ARM GAS  C:\Users\asus\AppData\Local\Temp\ccBslfd4.s 			page 1


   1              		.cpu cortex-m4
   2              		.arch armv7e-m
   3              		.fpu fpv4-sp-d16
   4              		.eabi_attribute 27, 1
   5              		.eabi_attribute 28, 1
   6              		.eabi_attribute 20, 1
   7              		.eabi_attribute 21, 1
   8              		.eabi_attribute 23, 3
   9              		.eabi_attribute 24, 1
  10              		.eabi_attribute 25, 1
  11              		.eabi_attribute 26, 1
  12              		.eabi_attribute 30, 1
  13              		.eabi_attribute 34, 1
  14              		.eabi_attribute 18, 4
  15              		.file	"adc1.c"
  16              		.text
  17              	.Ltext0:
  18              		.cfi_sections	.debug_frame
  19              		.file 1 "MyHardWare/Src/adc1.c"
  20              		.section	.text.ADC_GPIO_Init,"ax",%progbits
  21              		.align	1
  22              		.global	ADC_GPIO_Init
  23              		.syntax unified
  24              		.thumb
  25              		.thumb_func
  27              	ADC_GPIO_Init:
  28              	.LFB123:
   1:MyHardWare/Src/adc1.c **** #include "adc1.h"
   2:MyHardWare/Src/adc1.c **** #include "misc.h"
   3:MyHardWare/Src/adc1.c **** #include "stm32f4xx.h"
   4:MyHardWare/Src/adc1.c **** #include "stm32f4xx_adc.h"
   5:MyHardWare/Src/adc1.c **** #include "stm32f4xx_dma.h"
   6:MyHardWare/Src/adc1.c **** #include "stm32f4xx_gpio.h"
   7:MyHardWare/Src/adc1.c **** #include "stm32f4xx_rcc.h"
   8:MyHardWare/Src/adc1.c **** #include "stm32f4xx_tim.h"
   9:MyHardWare/Src/adc1.c **** #include <stdint.h>
  10:MyHardWare/Src/adc1.c **** /*
  11:MyHardWare/Src/adc1.c **** 使用TIM3
  12:MyHardWare/Src/adc1.c **** 采样频率100KHz
  13:MyHardWare/Src/adc1.c **** 采样间隔10us
  14:MyHardWare/Src/adc1.c **** adc转换时间1.9us（adcclk:21mhz,adc采样周期28,转换时间12）
  15:MyHardWare/Src/adc1.c **** 1024点采集时间10.24
  16:MyHardWare/Src/adc1.c **** */
  17:MyHardWare/Src/adc1.c **** static volatile uint16_t ADC_DMA_Buffer[ADC_DMA_BufferSize];
  18:MyHardWare/Src/adc1.c **** 
  19:MyHardWare/Src/adc1.c **** void ADC_GPIO_Init(void) {
  29              		.loc 1 19 26 view -0
  30              		.cfi_startproc
  31              		@ args = 0, pretend = 0, frame = 8
  32              		@ frame_needed = 0, uses_anonymous_args = 0
  33 0000 00B5     		push	{lr}
  34              	.LCFI0:
  35              		.cfi_def_cfa_offset 4
  36              		.cfi_offset 14, -4
  37 0002 83B0     		sub	sp, sp, #12
  38              	.LCFI1:
  39              		.cfi_def_cfa_offset 16
ARM GAS  C:\Users\asus\AppData\Local\Temp\ccBslfd4.s 			page 2


  20:MyHardWare/Src/adc1.c ****   RCC_AHB1PeriphClockCmd(RCC_AHB1Periph_GPIOA, ENABLE);
  40              		.loc 1 20 3 view .LVU1
  41 0004 0121     		movs	r1, #1
  42 0006 0846     		mov	r0, r1
  43 0008 FFF7FEFF 		bl	RCC_AHB1PeriphClockCmd
  44              	.LVL0:
  21:MyHardWare/Src/adc1.c ****   GPIO_InitTypeDef GPIO_InitStructure;
  45              		.loc 1 21 3 view .LVU2
  22:MyHardWare/Src/adc1.c ****   GPIO_InitStructure.GPIO_Mode = GPIO_Mode_AIN;
  46              		.loc 1 22 3 view .LVU3
  47              		.loc 1 22 32 is_stmt 0 view .LVU4
  48 000c 0323     		movs	r3, #3
  49 000e 8DF80430 		strb	r3, [sp, #4]
  23:MyHardWare/Src/adc1.c ****   GPIO_InitStructure.GPIO_Pin = GPIO_Pin_2; // PA2对应ADC1通道2
  50              		.loc 1 23 3 is_stmt 1 view .LVU5
  51              		.loc 1 23 31 is_stmt 0 view .LVU6
  52 0012 0422     		movs	r2, #4
  53 0014 0092     		str	r2, [sp]
  24:MyHardWare/Src/adc1.c ****   GPIO_InitStructure.GPIO_PuPd = GPIO_PuPd_NOPULL;
  54              		.loc 1 24 3 is_stmt 1 view .LVU7
  55              		.loc 1 24 32 is_stmt 0 view .LVU8
  56 0016 0022     		movs	r2, #0
  57 0018 8DF80720 		strb	r2, [sp, #7]
  25:MyHardWare/Src/adc1.c ****   GPIO_InitStructure.GPIO_Speed = GPIO_High_Speed;
  58              		.loc 1 25 3 is_stmt 1 view .LVU9
  59              		.loc 1 25 33 is_stmt 0 view .LVU10
  60 001c 8DF80530 		strb	r3, [sp, #5]
  26:MyHardWare/Src/adc1.c ****   GPIO_Init(GPIOA, &GPIO_InitStructure);
  61              		.loc 1 26 3 is_stmt 1 view .LVU11
  62 0020 6946     		mov	r1, sp
  63 0022 0348     		ldr	r0, .L3
  64 0024 FFF7FEFF 		bl	GPIO_Init
  65              	.LVL1:
  27:MyHardWare/Src/adc1.c **** }
  66              		.loc 1 27 1 is_stmt 0 view .LVU12
  67 0028 03B0     		add	sp, sp, #12
  68              	.LCFI2:
  69              		.cfi_def_cfa_offset 4
  70              		@ sp needed
  71 002a 5DF804FB 		ldr	pc, [sp], #4
  72              	.L4:
  73 002e 00BF     		.align	2
  74              	.L3:
  75 0030 00000240 		.word	1073872896
  76              		.cfi_endproc
  77              	.LFE123:
  79              		.section	.text.ADC_DMA_Init,"ax",%progbits
  80              		.align	1
  81              		.global	ADC_DMA_Init
  82              		.syntax unified
  83              		.thumb
  84              		.thumb_func
  86              	ADC_DMA_Init:
  87              	.LFB124:
  28:MyHardWare/Src/adc1.c **** 
  29:MyHardWare/Src/adc1.c **** void ADC_DMA_Init(void) {
  88              		.loc 1 29 25 is_stmt 1 view -0
ARM GAS  C:\Users\asus\AppData\Local\Temp\ccBslfd4.s 			page 3


  89              		.cfi_startproc
  90              		@ args = 0, pretend = 0, frame = 64
  91              		@ frame_needed = 0, uses_anonymous_args = 0
  92 0000 30B5     		push	{r4, r5, lr}
  93              	.LCFI3:
  94              		.cfi_def_cfa_offset 12
  95              		.cfi_offset 4, -12
  96              		.cfi_offset 5, -8
  97              		.cfi_offset 14, -4
  98 0002 91B0     		sub	sp, sp, #68
  99              	.LCFI4:
 100              		.cfi_def_cfa_offset 80
  30:MyHardWare/Src/adc1.c ****   // DMA配置，用于在看门狗触发后传输1024个数据
  31:MyHardWare/Src/adc1.c ****   RCC_AHB1PeriphClockCmd(RCC_AHB1Periph_DMA2, ENABLE);
 101              		.loc 1 31 3 view .LVU14
 102 0004 0121     		movs	r1, #1
 103 0006 4FF48000 		mov	r0, #4194304
 104 000a FFF7FEFF 		bl	RCC_AHB1PeriphClockCmd
 105              	.LVL2:
  32:MyHardWare/Src/adc1.c ****   DMA_DeInit(DMA2_Stream0);
 106              		.loc 1 32 3 view .LVU15
 107 000e 184C     		ldr	r4, .L7
 108 0010 2046     		mov	r0, r4
 109 0012 FFF7FEFF 		bl	DMA_DeInit
 110              	.LVL3:
  33:MyHardWare/Src/adc1.c ****   DMA_InitTypeDef DMA_InitStructure;
 111              		.loc 1 33 3 view .LVU16
  34:MyHardWare/Src/adc1.c ****   DMA_InitStructure.DMA_PeripheralBaseAddr = (uint32_t)&ADC1->DR;
 112              		.loc 1 34 3 view .LVU17
 113              		.loc 1 34 44 is_stmt 0 view .LVU18
 114 0016 174B     		ldr	r3, .L7+4
 115 0018 0293     		str	r3, [sp, #8]
  35:MyHardWare/Src/adc1.c ****   DMA_InitStructure.DMA_Memory0BaseAddr =
 116              		.loc 1 35 3 is_stmt 1 view .LVU19
  36:MyHardWare/Src/adc1.c ****       (uint32_t)ADC_DMA_Buffer; // 需要在头文件或外部定义这个数组
 117              		.loc 1 36 7 is_stmt 0 view .LVU20
 118 001a 174B     		ldr	r3, .L7+8
  35:MyHardWare/Src/adc1.c ****   DMA_InitStructure.DMA_Memory0BaseAddr =
 119              		.loc 1 35 41 view .LVU21
 120 001c 0393     		str	r3, [sp, #12]
  37:MyHardWare/Src/adc1.c ****   //  // 3. 配置双缓冲区模式
  38:MyHardWare/Src/adc1.c ****   //    Memory1BaseAddr: 第二个缓冲区地址
  39:MyHardWare/Src/adc1.c ****   //    DMA_CurrentMemory: DMA_Memory_0 或 DMA_Memory_1 (当前使用的内存)
  40:MyHardWare/Src/adc1.c ****   // DMA_DoubleBufferModeConfig(DMA2_Stream0,
  41:MyHardWare/Src/adc1.c ****   //                            (uint32_t)Buffer1,
  42:MyHardWare/Src/adc1.c ****   //                            DMA_Memory_0);
  43:MyHardWare/Src/adc1.c ****   //
  44:MyHardWare/Src/adc1.c ****   // 4. 使能双缓冲区模式
  45:MyHardWare/Src/adc1.c ****   // DMA_DoubleBufferModeCmd(DMA2_Stream0, ENABLE);
  46:MyHardWare/Src/adc1.c ****   DMA_InitStructure.DMA_MemoryDataSize =
 121              		.loc 1 46 3 is_stmt 1 view .LVU22
 122              		.loc 1 46 40 is_stmt 0 view .LVU23
 123 001e 4FF40053 		mov	r3, #8192
 124 0022 0993     		str	r3, [sp, #36]
  47:MyHardWare/Src/adc1.c ****       DMA_MemoryDataSize_HalfWord; // 存储器数据宽度：16位
  48:MyHardWare/Src/adc1.c ****   DMA_InitStructure.DMA_PeripheralDataSize =
 125              		.loc 1 48 3 is_stmt 1 view .LVU24
ARM GAS  C:\Users\asus\AppData\Local\Temp\ccBslfd4.s 			page 4


 126              		.loc 1 48 44 is_stmt 0 view .LVU25
 127 0024 4FF40063 		mov	r3, #2048
 128 0028 0893     		str	r3, [sp, #32]
  49:MyHardWare/Src/adc1.c ****       DMA_PeripheralDataSize_HalfWord;     // 外设数据宽度：16位
  50:MyHardWare/Src/adc1.c ****   DMA_InitStructure.DMA_BufferSize = 1024; // 缓冲区大小：1024个数据
 129              		.loc 1 50 3 is_stmt 1 view .LVU26
 130              		.loc 1 50 36 is_stmt 0 view .LVU27
 131 002a 4FF48063 		mov	r3, #1024
 132 002e 0593     		str	r3, [sp, #20]
  51:MyHardWare/Src/adc1.c ****   DMA_InitStructure.DMA_MemoryInc =
 133              		.loc 1 51 3 is_stmt 1 view .LVU28
 134              		.loc 1 51 35 is_stmt 0 view .LVU29
 135 0030 0793     		str	r3, [sp, #28]
  52:MyHardWare/Src/adc1.c ****       DMA_MemoryInc_Enable; // 存储器地址递增：使能
  53:MyHardWare/Src/adc1.c ****   DMA_InitStructure.DMA_PeripheralInc =
 136              		.loc 1 53 3 is_stmt 1 view .LVU30
 137              		.loc 1 53 39 is_stmt 0 view .LVU31
 138 0032 0023     		movs	r3, #0
 139 0034 0693     		str	r3, [sp, #24]
  54:MyHardWare/Src/adc1.c ****       DMA_PeripheralInc_Disable; // 外设地址递增：禁用
  55:MyHardWare/Src/adc1.c ****   DMA_InitStructure.DMA_DIR =
 140              		.loc 1 55 3 is_stmt 1 view .LVU32
 141              		.loc 1 55 29 is_stmt 0 view .LVU33
 142 0036 0493     		str	r3, [sp, #16]
  56:MyHardWare/Src/adc1.c ****       DMA_DIR_PeripheralToMemory; // 数据传输方向：外设到存储器
  57:MyHardWare/Src/adc1.c ****   DMA_InitStructure.DMA_Channel =
 143              		.loc 1 57 3 is_stmt 1 view .LVU34
 144              		.loc 1 57 33 is_stmt 0 view .LVU35
 145 0038 0193     		str	r3, [sp, #4]
  58:MyHardWare/Src/adc1.c ****       DMA_Channel_0; // ADC1使用DMA2 Stream 0 Channel 0
  59:MyHardWare/Src/adc1.c **** 
  60:MyHardWare/Src/adc1.c ****   DMA_InitStructure.DMA_PeripheralBurst =
 146              		.loc 1 60 3 is_stmt 1 view .LVU36
 147              		.loc 1 60 41 is_stmt 0 view .LVU37
 148 003a 0F93     		str	r3, [sp, #60]
  61:MyHardWare/Src/adc1.c ****       DMA_PeripheralBurst_Single; // 外设突发传输：单次
  62:MyHardWare/Src/adc1.c ****   DMA_InitStructure.DMA_MemoryBurst =
 149              		.loc 1 62 3 is_stmt 1 view .LVU38
 150              		.loc 1 62 37 is_stmt 0 view .LVU39
 151 003c 0E93     		str	r3, [sp, #56]
  63:MyHardWare/Src/adc1.c ****       DMA_MemoryBurst_Single;                           // 存储器突发传输：单次
  64:MyHardWare/Src/adc1.c ****   DMA_InitStructure.DMA_FIFOMode = DMA_FIFOMode_Enable; // FIFO模式：使能
 152              		.loc 1 64 3 is_stmt 1 view .LVU40
 153              		.loc 1 64 34 is_stmt 0 view .LVU41
 154 003e 0423     		movs	r3, #4
 155 0040 0C93     		str	r3, [sp, #48]
  65:MyHardWare/Src/adc1.c ****   DMA_InitStructure.DMA_Mode =
 156              		.loc 1 65 3 is_stmt 1 view .LVU42
 157              		.loc 1 65 30 is_stmt 0 view .LVU43
 158 0042 4FF48073 		mov	r3, #256
 159 0046 0A93     		str	r3, [sp, #40]
  66:MyHardWare/Src/adc1.c ****       DMA_Mode_Circular; // 正常模式（传输1024次后停止）
  67:MyHardWare/Src/adc1.c ****   DMA_InitStructure.DMA_Priority = DMA_Priority_High; // DMA优先级：高
 160              		.loc 1 67 3 is_stmt 1 view .LVU44
 161              		.loc 1 67 34 is_stmt 0 view .LVU45
 162 0048 4FF40033 		mov	r3, #131072
 163 004c 0B93     		str	r3, [sp, #44]
ARM GAS  C:\Users\asus\AppData\Local\Temp\ccBslfd4.s 			page 5


  68:MyHardWare/Src/adc1.c ****   DMA_InitStructure.DMA_FIFOThreshold =
 164              		.loc 1 68 3 is_stmt 1 view .LVU46
 165              		.loc 1 68 39 is_stmt 0 view .LVU47
 166 004e 0125     		movs	r5, #1
 167 0050 0D95     		str	r5, [sp, #52]
  69:MyHardWare/Src/adc1.c ****       DMA_FIFOThreshold_HalfFull; // FIFO阈值：半满
  70:MyHardWare/Src/adc1.c ****   DMA_InitStructure.DMA_MemoryBurst =
 168              		.loc 1 70 3 is_stmt 1 view .LVU48
  71:MyHardWare/Src/adc1.c ****       DMA_MemoryBurst_Single; // 存储器突发：单次
  72:MyHardWare/Src/adc1.c ****   DMA_InitStructure.DMA_PeripheralBurst =
 169              		.loc 1 72 3 view .LVU49
  73:MyHardWare/Src/adc1.c ****       DMA_PeripheralBurst_Single; // 外设突发：单次
  74:MyHardWare/Src/adc1.c **** 
  75:MyHardWare/Src/adc1.c ****   DMA_Init(DMA2_Stream0, &DMA_InitStructure); // 注意：ADC1应该使用DMA2_Stream0
 170              		.loc 1 75 3 view .LVU50
 171 0052 01A9     		add	r1, sp, #4
 172 0054 2046     		mov	r0, r4
 173 0056 FFF7FEFF 		bl	DMA_Init
 174              	.LVL4:
  76:MyHardWare/Src/adc1.c **** 
  77:MyHardWare/Src/adc1.c ****   // 使能DMA传输完成中断
  78:MyHardWare/Src/adc1.c ****   DMA_ITConfig(DMA2_Stream0, DMA_IT_TC, ENABLE);
 175              		.loc 1 78 3 view .LVU51
 176 005a 2A46     		mov	r2, r5
 177 005c 1021     		movs	r1, #16
 178 005e 2046     		mov	r0, r4
 179 0060 FFF7FEFF 		bl	DMA_ITConfig
 180              	.LVL5:
  79:MyHardWare/Src/adc1.c **** 
  80:MyHardWare/Src/adc1.c ****   // 注意：这里不使能DMA，等看门狗触发后再使能
  81:MyHardWare/Src/adc1.c ****   DMA_Cmd(DMA2_Stream0, ENABLE);
 181              		.loc 1 81 3 view .LVU52
 182 0064 2946     		mov	r1, r5
 183 0066 2046     		mov	r0, r4
 184 0068 FFF7FEFF 		bl	DMA_Cmd
 185              	.LVL6:
  82:MyHardWare/Src/adc1.c **** }
 186              		.loc 1 82 1 is_stmt 0 view .LVU53
 187 006c 11B0     		add	sp, sp, #68
 188              	.LCFI5:
 189              		.cfi_def_cfa_offset 12
 190              		@ sp needed
 191 006e 30BD     		pop	{r4, r5, pc}
 192              	.L8:
 193              		.align	2
 194              	.L7:
 195 0070 10640240 		.word	1073898512
 196 0074 4C200140 		.word	1073815628
 197 0078 00000000 		.word	ADC_DMA_Buffer
 198              		.cfi_endproc
 199              	.LFE124:
 201              		.section	.text.ADC_TIM3_Init,"ax",%progbits
 202              		.align	1
 203              		.global	ADC_TIM3_Init
 204              		.syntax unified
 205              		.thumb
 206              		.thumb_func
ARM GAS  C:\Users\asus\AppData\Local\Temp\ccBslfd4.s 			page 6


 208              	ADC_TIM3_Init:
 209              	.LFB125:
  83:MyHardWare/Src/adc1.c **** void ADC_TIM3_Init(void) {
 210              		.loc 1 83 26 is_stmt 1 view -0
 211              		.cfi_startproc
 212              		@ args = 0, pretend = 0, frame = 16
 213              		@ frame_needed = 0, uses_anonymous_args = 0
 214 0000 10B5     		push	{r4, lr}
 215              	.LCFI6:
 216              		.cfi_def_cfa_offset 8
 217              		.cfi_offset 4, -8
 218              		.cfi_offset 14, -4
 219 0002 84B0     		sub	sp, sp, #16
 220              	.LCFI7:
 221              		.cfi_def_cfa_offset 24
  84:MyHardWare/Src/adc1.c ****   // 配置时基单元，使ADC1可以以100kHz的速度进行采样
  85:MyHardWare/Src/adc1.c ****   RCC_APB1PeriphClockCmd(RCC_APB1Periph_TIM3, ENABLE);
 222              		.loc 1 85 3 view .LVU55
 223 0004 0121     		movs	r1, #1
 224 0006 0220     		movs	r0, #2
 225 0008 FFF7FEFF 		bl	RCC_APB1PeriphClockCmd
 226              	.LVL7:
  86:MyHardWare/Src/adc1.c **** 
  87:MyHardWare/Src/adc1.c ****   TIM_TimeBaseInitTypeDef TIM_TimeBaseInitStructure;
 227              		.loc 1 87 3 view .LVU56
  88:MyHardWare/Src/adc1.c **** 
  89:MyHardWare/Src/adc1.c ****   // 配置100kHz触发频率：
  90:MyHardWare/Src/adc1.c ****   // TIM3时钟 = 84MHz (APB1 42MHz × 2)
  91:MyHardWare/Src/adc1.c ****   // 目标频率 = 100kHz
  92:MyHardWare/Src/adc1.c ****   // 计算：84MHz / (PSC+1) / (ARR+1) = 100kHz
  93:MyHardWare/Src/adc1.c ****   // 设置：PSC = 83, ARR = 9
  94:MyHardWare/Src/adc1.c ****   // 实际频率：84MHz / 84 / 10 = 100kHz
  95:MyHardWare/Src/adc1.c **** 
  96:MyHardWare/Src/adc1.c ****   TIM_TimeBaseInitStructure.TIM_ClockDivision = TIM_CKD_DIV1; // 时钟不分频
 228              		.loc 1 96 3 view .LVU57
 229              		.loc 1 96 47 is_stmt 0 view .LVU58
 230 000c 0023     		movs	r3, #0
 231 000e ADF80C30 		strh	r3, [sp, #12]	@ movhi
  97:MyHardWare/Src/adc1.c ****   TIM_TimeBaseInitStructure.TIM_CounterMode =
 232              		.loc 1 97 3 is_stmt 1 view .LVU59
 233              		.loc 1 97 45 is_stmt 0 view .LVU60
 234 0012 ADF80630 		strh	r3, [sp, #6]	@ movhi
  98:MyHardWare/Src/adc1.c ****       TIM_CounterMode_Up; // 向上计数模式
  99:MyHardWare/Src/adc1.c ****   TIM_TimeBaseInitStructure.TIM_RepetitionCounter =
 235              		.loc 1 99 3 is_stmt 1 view .LVU61
 236              		.loc 1 99 51 is_stmt 0 view .LVU62
 237 0016 8DF80E30 		strb	r3, [sp, #14]
 100:MyHardWare/Src/adc1.c ****       0; // 重复计数器（基本定时器不使用）
 101:MyHardWare/Src/adc1.c ****   TIM_TimeBaseInitStructure.TIM_Period = 10 - 1;    // 自动重装载值 ARR = 9
 238              		.loc 1 101 3 is_stmt 1 view .LVU63
 239              		.loc 1 101 40 is_stmt 0 view .LVU64
 240 001a 0923     		movs	r3, #9
 241 001c 0293     		str	r3, [sp, #8]
 102:MyHardWare/Src/adc1.c ****   TIM_TimeBaseInitStructure.TIM_Prescaler = 84 - 1; // 预分频器值 PSC = 83
 242              		.loc 1 102 3 is_stmt 1 view .LVU65
 243              		.loc 1 102 43 is_stmt 0 view .LVU66
 244 001e 5323     		movs	r3, #83
ARM GAS  C:\Users\asus\AppData\Local\Temp\ccBslfd4.s 			page 7


 245 0020 ADF80430 		strh	r3, [sp, #4]	@ movhi
 103:MyHardWare/Src/adc1.c **** 
 104:MyHardWare/Src/adc1.c ****   TIM_TimeBaseInit(TIM3, &TIM_TimeBaseInitStructure);
 246              		.loc 1 104 3 is_stmt 1 view .LVU67
 247 0024 074C     		ldr	r4, .L11
 248 0026 01A9     		add	r1, sp, #4
 249 0028 2046     		mov	r0, r4
 250 002a FFF7FEFF 		bl	TIM_TimeBaseInit
 251              	.LVL8:
 105:MyHardWare/Src/adc1.c **** 
 106:MyHardWare/Src/adc1.c ****   // 使能TIM3的主模式输出，触发ADC
 107:MyHardWare/Src/adc1.c ****   TIM_SelectOutputTrigger(TIM3,
 252              		.loc 1 107 3 view .LVU68
 253 002e 2021     		movs	r1, #32
 254 0030 2046     		mov	r0, r4
 255 0032 FFF7FEFF 		bl	TIM_SelectOutputTrigger
 256              	.LVL9:
 108:MyHardWare/Src/adc1.c ****                           TIM_TRGOSource_Update); // 使用更新事件作为触发输出
 109:MyHardWare/Src/adc1.c **** 
 110:MyHardWare/Src/adc1.c ****   TIM_Cmd(TIM3, ENABLE); // 使能TIM3
 257              		.loc 1 110 3 view .LVU69
 258 0036 0121     		movs	r1, #1
 259 0038 2046     		mov	r0, r4
 260 003a FFF7FEFF 		bl	TIM_Cmd
 261              	.LVL10:
 111:MyHardWare/Src/adc1.c **** }
 262              		.loc 1 111 1 is_stmt 0 view .LVU70
 263 003e 04B0     		add	sp, sp, #16
 264              	.LCFI8:
 265              		.cfi_def_cfa_offset 8
 266              		@ sp needed
 267 0040 10BD     		pop	{r4, pc}
 268              	.L12:
 269 0042 00BF     		.align	2
 270              	.L11:
 271 0044 00040040 		.word	1073742848
 272              		.cfi_endproc
 273              	.LFE125:
 275              		.section	.text.ADC1_NVIC_IT_Init,"ax",%progbits
 276              		.align	1
 277              		.global	ADC1_NVIC_IT_Init
 278              		.syntax unified
 279              		.thumb
 280              		.thumb_func
 282              	ADC1_NVIC_IT_Init:
 283              	.LFB126:
 112:MyHardWare/Src/adc1.c **** void ADC1_NVIC_IT_Init(void) {
 284              		.loc 1 112 30 is_stmt 1 view -0
 285              		.cfi_startproc
 286              		@ args = 0, pretend = 0, frame = 8
 287              		@ frame_needed = 0, uses_anonymous_args = 0
 288 0000 10B5     		push	{r4, lr}
 289              	.LCFI9:
 290              		.cfi_def_cfa_offset 8
 291              		.cfi_offset 4, -8
 292              		.cfi_offset 14, -4
 293 0002 82B0     		sub	sp, sp, #8
ARM GAS  C:\Users\asus\AppData\Local\Temp\ccBslfd4.s 			page 8


 294              	.LCFI10:
 295              		.cfi_def_cfa_offset 16
 113:MyHardWare/Src/adc1.c ****   NVIC_InitTypeDef NVIC_InitStructure;
 296              		.loc 1 113 3 view .LVU72
 114:MyHardWare/Src/adc1.c ****   NVIC_PriorityGroupConfig(NVIC_PriorityGroup_2);
 297              		.loc 1 114 3 view .LVU73
 298 0004 4FF4A060 		mov	r0, #1280
 299 0008 FFF7FEFF 		bl	NVIC_PriorityGroupConfig
 300              	.LVL11:
 115:MyHardWare/Src/adc1.c **** 
 116:MyHardWare/Src/adc1.c ****   // 恢复DMA中断配置
 117:MyHardWare/Src/adc1.c ****   NVIC_InitStructure.NVIC_IRQChannel = DMA2_Stream0_IRQn;
 301              		.loc 1 117 3 view .LVU74
 302              		.loc 1 117 38 is_stmt 0 view .LVU75
 303 000c 3823     		movs	r3, #56
 304 000e 8DF80430 		strb	r3, [sp, #4]
 118:MyHardWare/Src/adc1.c ****   NVIC_InitStructure.NVIC_IRQChannelPreemptionPriority = 1;
 305              		.loc 1 118 3 is_stmt 1 view .LVU76
 306              		.loc 1 118 56 is_stmt 0 view .LVU77
 307 0012 0124     		movs	r4, #1
 308 0014 8DF80540 		strb	r4, [sp, #5]
 119:MyHardWare/Src/adc1.c ****   NVIC_InitStructure.NVIC_IRQChannelSubPriority = 1;
 309              		.loc 1 119 3 is_stmt 1 view .LVU78
 310              		.loc 1 119 49 is_stmt 0 view .LVU79
 311 0018 8DF80640 		strb	r4, [sp, #6]
 120:MyHardWare/Src/adc1.c ****   NVIC_InitStructure.NVIC_IRQChannelCmd = ENABLE;
 312              		.loc 1 120 3 is_stmt 1 view .LVU80
 313              		.loc 1 120 41 is_stmt 0 view .LVU81
 314 001c 8DF80740 		strb	r4, [sp, #7]
 121:MyHardWare/Src/adc1.c ****   NVIC_Init(&NVIC_InitStructure);
 315              		.loc 1 121 3 is_stmt 1 view .LVU82
 316 0020 01A8     		add	r0, sp, #4
 317 0022 FFF7FEFF 		bl	NVIC_Init
 318              	.LVL12:
 122:MyHardWare/Src/adc1.c **** 
 123:MyHardWare/Src/adc1.c ****   // NVIC_InitStructure.NVIC_IRQChannel =  TIM3_IRQn;
 124:MyHardWare/Src/adc1.c ****   // NVIC_InitStructure.NVIC_IRQChannelPreemptionPriority = 0;
 125:MyHardWare/Src/adc1.c ****   // NVIC_InitStructure.NVIC_IRQChannelSubPriority = 0;
 126:MyHardWare/Src/adc1.c ****   // NVIC_InitStructure.NVIC_IRQChannelCmd = ENABLE;
 127:MyHardWare/Src/adc1.c ****   // NVIC_Init(&NVIC_InitStructure);
 128:MyHardWare/Src/adc1.c **** 
 129:MyHardWare/Src/adc1.c ****   NVIC_InitStructure.NVIC_IRQChannel = ADC_IRQn;
 319              		.loc 1 129 3 view .LVU83
 320              		.loc 1 129 38 is_stmt 0 view .LVU84
 321 0026 1223     		movs	r3, #18
 322 0028 8DF80430 		strb	r3, [sp, #4]
 130:MyHardWare/Src/adc1.c ****   NVIC_InitStructure.NVIC_IRQChannelPreemptionPriority = 0;
 323              		.loc 1 130 3 is_stmt 1 view .LVU85
 324              		.loc 1 130 56 is_stmt 0 view .LVU86
 325 002c 0023     		movs	r3, #0
 326 002e 8DF80530 		strb	r3, [sp, #5]
 131:MyHardWare/Src/adc1.c ****   NVIC_InitStructure.NVIC_IRQChannelSubPriority = 0;
 327              		.loc 1 131 3 is_stmt 1 view .LVU87
 328              		.loc 1 131 49 is_stmt 0 view .LVU88
 329 0032 8DF80630 		strb	r3, [sp, #6]
 132:MyHardWare/Src/adc1.c ****   NVIC_InitStructure.NVIC_IRQChannelCmd = ENABLE;
 330              		.loc 1 132 3 is_stmt 1 view .LVU89
ARM GAS  C:\Users\asus\AppData\Local\Temp\ccBslfd4.s 			page 9


 331              		.loc 1 132 41 is_stmt 0 view .LVU90
 332 0036 8DF80740 		strb	r4, [sp, #7]
 133:MyHardWare/Src/adc1.c ****   NVIC_Init(&NVIC_InitStructure);
 333              		.loc 1 133 3 is_stmt 1 view .LVU91
 334 003a 01A8     		add	r0, sp, #4
 335 003c FFF7FEFF 		bl	NVIC_Init
 336              	.LVL13:
 134:MyHardWare/Src/adc1.c **** }
 337              		.loc 1 134 1 is_stmt 0 view .LVU92
 338 0040 02B0     		add	sp, sp, #8
 339              	.LCFI11:
 340              		.cfi_def_cfa_offset 8
 341              		@ sp needed
 342 0042 10BD     		pop	{r4, pc}
 343              		.cfi_endproc
 344              	.LFE126:
 346              		.section	.text.ADC1_Init,"ax",%progbits
 347              		.align	1
 348              		.global	ADC1_Init
 349              		.syntax unified
 350              		.thumb
 351              		.thumb_func
 353              	ADC1_Init:
 354              	.LFB127:
 135:MyHardWare/Src/adc1.c **** void ADC1_Init(void) {
 355              		.loc 1 135 22 is_stmt 1 view -0
 356              		.cfi_startproc
 357              		@ args = 0, pretend = 0, frame = 40
 358              		@ frame_needed = 0, uses_anonymous_args = 0
 359 0000 70B5     		push	{r4, r5, r6, lr}
 360              	.LCFI12:
 361              		.cfi_def_cfa_offset 16
 362              		.cfi_offset 4, -16
 363              		.cfi_offset 5, -12
 364              		.cfi_offset 6, -8
 365              		.cfi_offset 14, -4
 366 0002 8AB0     		sub	sp, sp, #40
 367              	.LCFI13:
 368              		.cfi_def_cfa_offset 56
 136:MyHardWare/Src/adc1.c **** 
 137:MyHardWare/Src/adc1.c ****   ADC_GPIO_Init();
 369              		.loc 1 137 3 view .LVU94
 370 0004 FFF7FEFF 		bl	ADC_GPIO_Init
 371              	.LVL14:
 138:MyHardWare/Src/adc1.c ****   // 恢复DMA初始化（但不使能DMA）
 139:MyHardWare/Src/adc1.c ****   ADC_DMA_Init();
 372              		.loc 1 139 3 view .LVU95
 373 0008 FFF7FEFF 		bl	ADC_DMA_Init
 374              	.LVL15:
 140:MyHardWare/Src/adc1.c ****   ADC_TIM3_Init();
 375              		.loc 1 140 3 view .LVU96
 376 000c FFF7FEFF 		bl	ADC_TIM3_Init
 377              	.LVL16:
 141:MyHardWare/Src/adc1.c ****   ADC1_NVIC_IT_Init();
 378              		.loc 1 141 3 view .LVU97
 379 0010 FFF7FEFF 		bl	ADC1_NVIC_IT_Init
 380              	.LVL17:
ARM GAS  C:\Users\asus\AppData\Local\Temp\ccBslfd4.s 			page 10


 142:MyHardWare/Src/adc1.c ****   RCC_APB2PeriphClockCmd(RCC_APB2Periph_ADC1, ENABLE);
 381              		.loc 1 142 3 view .LVU98
 382 0014 0121     		movs	r1, #1
 383 0016 4FF48070 		mov	r0, #256
 384 001a FFF7FEFF 		bl	RCC_APB2PeriphClockCmd
 385              	.LVL18:
 143:MyHardWare/Src/adc1.c ****   // ADC1根据TIM3的触发周期性地对GPIO_A2进行采样。
 144:MyHardWare/Src/adc1.c ****   ADC_CommonInitTypeDef ADC_CommonInitStructure;
 386              		.loc 1 144 3 view .LVU99
 145:MyHardWare/Src/adc1.c ****   ADC_CommonInitStructure.ADC_DMAAccessMode = ADC_DMAAccessMode_Disabled;
 387              		.loc 1 145 3 view .LVU100
 388              		.loc 1 145 45 is_stmt 0 view .LVU101
 389 001e 0025     		movs	r5, #0
 390 0020 0895     		str	r5, [sp, #32]
 146:MyHardWare/Src/adc1.c ****   ADC_CommonInitStructure.ADC_Mode = ADC_Mode_Independent;
 391              		.loc 1 146 3 is_stmt 1 view .LVU102
 392              		.loc 1 146 36 is_stmt 0 view .LVU103
 393 0022 0695     		str	r5, [sp, #24]
 147:MyHardWare/Src/adc1.c ****   ADC_CommonInitStructure.ADC_Prescaler = ADC_Prescaler_Div4;
 394              		.loc 1 147 3 is_stmt 1 view .LVU104
 395              		.loc 1 147 41 is_stmt 0 view .LVU105
 396 0024 4FF48033 		mov	r3, #65536
 397 0028 0793     		str	r3, [sp, #28]
 148:MyHardWare/Src/adc1.c ****   ADC_CommonInit(&ADC_CommonInitStructure);
 398              		.loc 1 148 3 is_stmt 1 view .LVU106
 399 002a 06A8     		add	r0, sp, #24
 400 002c FFF7FEFF 		bl	ADC_CommonInit
 401              	.LVL19:
 149:MyHardWare/Src/adc1.c ****   ADC_InitTypeDef ADC_InitStructure;
 402              		.loc 1 149 3 view .LVU107
 150:MyHardWare/Src/adc1.c ****   ADC_InitStructure.ADC_ScanConvMode = DISABLE;       // 单通道模式
 403              		.loc 1 150 3 view .LVU108
 404              		.loc 1 150 38 is_stmt 0 view .LVU109
 405 0030 8DF80450 		strb	r5, [sp, #4]
 151:MyHardWare/Src/adc1.c ****   ADC_InitStructure.ADC_ContinuousConvMode = DISABLE; // 非连续转换，由外部触发
 406              		.loc 1 151 3 is_stmt 1 view .LVU110
 407              		.loc 1 151 44 is_stmt 0 view .LVU111
 408 0034 8DF80550 		strb	r5, [sp, #5]
 152:MyHardWare/Src/adc1.c ****   ADC_InitStructure.ADC_ExternalTrigConv =
 409              		.loc 1 152 3 is_stmt 1 view .LVU112
 410              		.loc 1 152 42 is_stmt 0 view .LVU113
 411 0038 4FF00063 		mov	r3, #134217728
 412 003c 0393     		str	r3, [sp, #12]
 153:MyHardWare/Src/adc1.c ****       ADC_ExternalTrigConv_T3_TRGO; // TIM3触发
 154:MyHardWare/Src/adc1.c ****   ADC_InitStructure.ADC_ExternalTrigConvEdge =
 413              		.loc 1 154 3 is_stmt 1 view .LVU114
 414              		.loc 1 154 46 is_stmt 0 view .LVU115
 415 003e 4FF08053 		mov	r3, #268435456
 416 0042 0293     		str	r3, [sp, #8]
 155:MyHardWare/Src/adc1.c ****       ADC_ExternalTrigConvEdge_Rising;                   // 上升沿触发
 156:MyHardWare/Src/adc1.c ****   ADC_InitStructure.ADC_DataAlign = ADC_DataAlign_Right; // 数据右对齐
 417              		.loc 1 156 3 is_stmt 1 view .LVU116
 418              		.loc 1 156 35 is_stmt 0 view .LVU117
 419 0044 0495     		str	r5, [sp, #16]
 157:MyHardWare/Src/adc1.c ****   ADC_InitStructure.ADC_Resolution = ADC_Resolution_12b; // 12位分辨率
 420              		.loc 1 157 3 is_stmt 1 view .LVU118
 421              		.loc 1 157 36 is_stmt 0 view .LVU119
ARM GAS  C:\Users\asus\AppData\Local\Temp\ccBslfd4.s 			page 11


 422 0046 0095     		str	r5, [sp]
 158:MyHardWare/Src/adc1.c ****   ADC_InitStructure.ADC_NbrOfConversion = 1;             // 1个转换通道
 423              		.loc 1 158 3 is_stmt 1 view .LVU120
 424              		.loc 1 158 41 is_stmt 0 view .LVU121
 425 0048 0126     		movs	r6, #1
 426 004a 8DF81460 		strb	r6, [sp, #20]
 159:MyHardWare/Src/adc1.c **** 
 160:MyHardWare/Src/adc1.c ****   ADC_Init(ADC1, &ADC_InitStructure);
 427              		.loc 1 160 3 is_stmt 1 view .LVU122
 428 004e 194C     		ldr	r4, .L17
 429 0050 6946     		mov	r1, sp
 430 0052 2046     		mov	r0, r4
 431 0054 FFF7FEFF 		bl	ADC_Init
 432              	.LVL20:
 161:MyHardWare/Src/adc1.c **** 
 162:MyHardWare/Src/adc1.c ****   // 配置采样通道和采样周期
 163:MyHardWare/Src/adc1.c ****   ADC_RegularChannelConfig(ADC1, ADC_Channel_2, 1, ADC_SampleTime_28Cycles);
 433              		.loc 1 163 3 view .LVU123
 434 0058 0223     		movs	r3, #2
 435 005a 3246     		mov	r2, r6
 436 005c 1946     		mov	r1, r3
 437 005e 2046     		mov	r0, r4
 438 0060 FFF7FEFF 		bl	ADC_RegularChannelConfig
 439              	.LVL21:
 164:MyHardWare/Src/adc1.c **** 
 165:MyHardWare/Src/adc1.c ****   // 配置模拟看门狗
 166:MyHardWare/Src/adc1.c ****   ADC_AnalogWatchdogThresholdsConfig(ADC1, 500, 0x000);
 440              		.loc 1 166 3 view .LVU124
 441 0064 2A46     		mov	r2, r5
 442 0066 4FF4FA71 		mov	r1, #500
 443 006a 2046     		mov	r0, r4
 444 006c FFF7FEFF 		bl	ADC_AnalogWatchdogThresholdsConfig
 445              	.LVL22:
 167:MyHardWare/Src/adc1.c ****   ADC_AnalogWatchdogSingleChannelConfig(ADC1, ADC_Channel_2);
 446              		.loc 1 167 3 view .LVU125
 447 0070 0221     		movs	r1, #2
 448 0072 2046     		mov	r0, r4
 449 0074 FFF7FEFF 		bl	ADC_AnalogWatchdogSingleChannelConfig
 450              	.LVL23:
 168:MyHardWare/Src/adc1.c ****   ADC_AnalogWatchdogCmd(
 451              		.loc 1 168 3 view .LVU126
 452 0078 0F49     		ldr	r1, .L17+4
 453 007a 2046     		mov	r0, r4
 454 007c FFF7FEFF 		bl	ADC_AnalogWatchdogCmd
 455              	.LVL24:
 169:MyHardWare/Src/adc1.c ****       ADC1, ADC_AnalogWatchdog_SingleRegEnable); // 模拟看门狗监测通道使能
 170:MyHardWare/Src/adc1.c **** 
 171:MyHardWare/Src/adc1.c ****   ADC_DMACmd(ADC1, ENABLE);
 456              		.loc 1 171 3 view .LVU127
 457 0080 3146     		mov	r1, r6
 458 0082 2046     		mov	r0, r4
 459 0084 FFF7FEFF 		bl	ADC_DMACmd
 460              	.LVL25:
 172:MyHardWare/Src/adc1.c ****   ADC_DMARequestAfterLastTransferCmd(ADC1, ENABLE);
 461              		.loc 1 172 3 view .LVU128
 462 0088 3146     		mov	r1, r6
 463 008a 2046     		mov	r0, r4
ARM GAS  C:\Users\asus\AppData\Local\Temp\ccBslfd4.s 			page 12


 464 008c FFF7FEFF 		bl	ADC_DMARequestAfterLastTransferCmd
 465              	.LVL26:
 173:MyHardWare/Src/adc1.c **** 
 174:MyHardWare/Src/adc1.c ****   // 使能看门狗中断
 175:MyHardWare/Src/adc1.c ****   ADC_ITConfig(
 466              		.loc 1 175 3 view .LVU129
 467 0090 2A46     		mov	r2, r5
 468 0092 40F20521 		movw	r1, #517
 469 0096 2046     		mov	r0, r4
 470 0098 FFF7FEFF 		bl	ADC_ITConfig
 471              	.LVL27:
 176:MyHardWare/Src/adc1.c ****       ADC1, ADC_IT_EOC,
 177:MyHardWare/Src/adc1.c ****       DISABLE); // 便于观测adc转换是否正确,注意dma开启的时候会屏蔽eoc中断
 178:MyHardWare/Src/adc1.c ****   ADC_ITConfig(ADC1, ADC_IT_AWD, ENABLE);
 472              		.loc 1 178 3 view .LVU130
 473 009c 3246     		mov	r2, r6
 474 009e 4FF48371 		mov	r1, #262
 475 00a2 2046     		mov	r0, r4
 476 00a4 FFF7FEFF 		bl	ADC_ITConfig
 477              	.LVL28:
 179:MyHardWare/Src/adc1.c ****   // 最后使能ADC
 180:MyHardWare/Src/adc1.c ****   ADC_Cmd(ADC1, ENABLE);
 478              		.loc 1 180 3 view .LVU131
 479 00a8 3146     		mov	r1, r6
 480 00aa 2046     		mov	r0, r4
 481 00ac FFF7FEFF 		bl	ADC_Cmd
 482              	.LVL29:
 181:MyHardWare/Src/adc1.c **** }
 483              		.loc 1 181 1 is_stmt 0 view .LVU132
 484 00b0 0AB0     		add	sp, sp, #40
 485              	.LCFI14:
 486              		.cfi_def_cfa_offset 16
 487              		@ sp needed
 488 00b2 70BD     		pop	{r4, r5, r6, pc}
 489              	.L18:
 490              		.align	2
 491              	.L17:
 492 00b4 00200140 		.word	1073815552
 493 00b8 00028000 		.word	8389120
 494              		.cfi_endproc
 495              	.LFE127:
 497              		.section	.text.ADC_DMA_Start,"ax",%progbits
 498              		.align	1
 499              		.global	ADC_DMA_Start
 500              		.syntax unified
 501              		.thumb
 502              		.thumb_func
 504              	ADC_DMA_Start:
 505              	.LFB128:
 182:MyHardWare/Src/adc1.c **** /**
 183:MyHardWare/Src/adc1.c ****  * @brief  启动ADC DMA传输，在看门狗触发后调用
 184:MyHardWare/Src/adc1.c ****  * @param  None
 185:MyHardWare/Src/adc1.c ****  * @retval None
 186:MyHardWare/Src/adc1.c ****  */
 187:MyHardWare/Src/adc1.c **** void ADC_DMA_Start(void) {
 506              		.loc 1 187 26 is_stmt 1 view -0
 507              		.cfi_startproc
ARM GAS  C:\Users\asus\AppData\Local\Temp\ccBslfd4.s 			page 13


 508              		@ args = 0, pretend = 0, frame = 0
 509              		@ frame_needed = 0, uses_anonymous_args = 0
 510              		@ link register save eliminated.
 188:MyHardWare/Src/adc1.c ****   // 1. 禁用 DMA (直接操作寄存器)
 189:MyHardWare/Src/adc1.c ****   DMA2_Stream0->CR &= ~DMA_SxCR_EN;
 511              		.loc 1 189 3 view .LVU134
 512              		.loc 1 189 15 is_stmt 0 view .LVU135
 513 0000 0E4A     		ldr	r2, .L21
 514 0002 1369     		ldr	r3, [r2, #16]
 515              		.loc 1 189 20 view .LVU136
 516 0004 23F00103 		bic	r3, r3, #1
 517 0008 1361     		str	r3, [r2, #16]
 190:MyHardWare/Src/adc1.c **** 
 191:MyHardWare/Src/adc1.c ****   // 2. 等待 DMA 真正停止
 192:MyHardWare/Src/adc1.c ****   while (DMA2_Stream0->CR & DMA_SxCR_EN)
 518              		.loc 1 192 3 is_stmt 1 view .LVU137
 519              	.L20:
 520              		.loc 1 192 10 discriminator 1 view .LVU138
 521              		.loc 1 192 22 is_stmt 0 discriminator 1 view .LVU139
 522 000a 0C4B     		ldr	r3, .L21
 523 000c 1B69     		ldr	r3, [r3, #16]
 524              		.loc 1 192 10 discriminator 1 view .LVU140
 525 000e 13F0010F 		tst	r3, #1
 526 0012 FAD1     		bne	.L20
 193:MyHardWare/Src/adc1.c ****     ;
 194:MyHardWare/Src/adc1.c **** 
 195:MyHardWare/Src/adc1.c ****   // 3. 使能 ADC DMA 请求 (直接操作寄存器)
 196:MyHardWare/Src/adc1.c ****   ADC1->CR2 |= ADC_CR2_DMA;
 527              		.loc 1 196 3 is_stmt 1 view .LVU141
 528              		.loc 1 196 7 is_stmt 0 view .LVU142
 529 0014 0A4B     		ldr	r3, .L21+4
 530 0016 9A68     		ldr	r2, [r3, #8]
 531              		.loc 1 196 13 view .LVU143
 532 0018 42F48072 		orr	r2, r2, #256
 533 001c 9A60     		str	r2, [r3, #8]
 197:MyHardWare/Src/adc1.c ****   ADC1->CR2 |= ADC_CR2_DDS;
 534              		.loc 1 197 3 is_stmt 1 view .LVU144
 535              		.loc 1 197 7 is_stmt 0 view .LVU145
 536 001e 9A68     		ldr	r2, [r3, #8]
 537              		.loc 1 197 13 view .LVU146
 538 0020 42F40072 		orr	r2, r2, #512
 539 0024 9A60     		str	r2, [r3, #8]
 198:MyHardWare/Src/adc1.c ****   // 4. 清除 DMA 中断标志 (直接操作 LIFCR 寄存器)
 199:MyHardWare/Src/adc1.c ****   // DMA2->LIFCR = DMA_LIFCR_CTCIF0 | DMA_LIFCR_CTEIF0;
 200:MyHardWare/Src/adc1.c **** 
 201:MyHardWare/Src/adc1.c ****   // 5. 重新配置传输计数 (直接操作 CNDTR 寄存器)
 202:MyHardWare/Src/adc1.c ****   DMA2_Stream0->NDTR = 1024;
 540              		.loc 1 202 3 is_stmt 1 view .LVU147
 541              		.loc 1 202 22 is_stmt 0 view .LVU148
 542 0026 03F5A233 		add	r3, r3, #82944
 543 002a 4FF48062 		mov	r2, #1024
 544 002e 5A61     		str	r2, [r3, #20]
 203:MyHardWare/Src/adc1.c **** 
 204:MyHardWare/Src/adc1.c ****   // 6. 使能 DMA (直接操作寄存器)
 205:MyHardWare/Src/adc1.c ****   DMA2_Stream0->CR |= DMA_SxCR_EN;
 545              		.loc 1 205 3 is_stmt 1 view .LVU149
 546              		.loc 1 205 15 is_stmt 0 view .LVU150
ARM GAS  C:\Users\asus\AppData\Local\Temp\ccBslfd4.s 			page 14


 547 0030 1A69     		ldr	r2, [r3, #16]
 548              		.loc 1 205 20 view .LVU151
 549 0032 42F00102 		orr	r2, r2, #1
 550 0036 1A61     		str	r2, [r3, #16]
 206:MyHardWare/Src/adc1.c **** }
 551              		.loc 1 206 1 view .LVU152
 552 0038 7047     		bx	lr
 553              	.L22:
 554 003a 00BF     		.align	2
 555              	.L21:
 556 003c 00640240 		.word	1073898496
 557 0040 00200140 		.word	1073815552
 558              		.cfi_endproc
 559              	.LFE128:
 561              		.section	.bss.ADC_DMA_Buffer,"aw",%nobits
 562              		.align	2
 565              	ADC_DMA_Buffer:
 566 0000 00000000 		.space	2048
 566      00000000 
 566      00000000 
 566      00000000 
 566      00000000 
 567              		.text
 568              	.Letext0:
 569              		.file 2 "C:/Program Files (x86)/Arm GNU Toolchain arm-none-eabi/13.2 Rel1/arm-none-eabi/include/ma
 570              		.file 3 "C:/Program Files (x86)/Arm GNU Toolchain arm-none-eabi/13.2 Rel1/arm-none-eabi/include/sy
 571              		.file 4 "CMSIS/stm32f4xx.h"
 572              		.file 5 "Lib/StdPeriphs/inc/stm32f4xx_adc.h"
 573              		.file 6 "Lib/StdPeriphs/inc/stm32f4xx_dma.h"
 574              		.file 7 "Lib/StdPeriphs/inc/stm32f4xx_gpio.h"
 575              		.file 8 "Lib/StdPeriphs/inc/stm32f4xx_tim.h"
 576              		.file 9 "Lib/StdPeriphs/inc/misc.h"
 577              		.file 10 "Lib/StdPeriphs/inc/stm32f4xx_rcc.h"
ARM GAS  C:\Users\asus\AppData\Local\Temp\ccBslfd4.s 			page 15

