ARM GAS  /tmp/cckrZnTL.s 			page 1


   1              		.cpu cortex-m4
   2              		.arch armv7e-m
   3              		.fpu fpv4-sp-d16
   4              		.eabi_attribute 27, 1
   5              		.eabi_attribute 28, 1
   6              		.eabi_attribute 20, 1
   7              		.eabi_attribute 21, 1
   8              		.eabi_attribute 23, 3
   9              		.eabi_attribute 24, 1
  10              		.eabi_attribute 25, 1
  11              		.eabi_attribute 26, 1
  12              		.eabi_attribute 30, 1
  13              		.eabi_attribute 34, 1
  14              		.eabi_attribute 18, 4
  15              		.file	"inv_mpu_dmp_motion_driver.c"
  16              		.text
  17              	.Ltext0:
  18              		.cfi_sections	.debug_frame
  19              		.file 1 "MyHardWare/eMPL/inv_mpu_dmp_motion_driver.c"
  20              		.section	.text.decode_gesture,"ax",%progbits
  21              		.align	1
  22              		.syntax unified
  23              		.thumb
  24              		.thumb_func
  26              	decode_gesture:
  27              	.LVL0:
  28              	.LFB149:
   1:MyHardWare/eMPL/inv_mpu_dmp_motion_driver.c **** /*
   2:MyHardWare/eMPL/inv_mpu_dmp_motion_driver.c ****  $License:
   3:MyHardWare/eMPL/inv_mpu_dmp_motion_driver.c ****     Copyright (C) 2011-2012 InvenSense Corporation, All Rights Reserved.
   4:MyHardWare/eMPL/inv_mpu_dmp_motion_driver.c ****     See included License.txt for License information.
   5:MyHardWare/eMPL/inv_mpu_dmp_motion_driver.c ****  $
   6:MyHardWare/eMPL/inv_mpu_dmp_motion_driver.c ****  */
   7:MyHardWare/eMPL/inv_mpu_dmp_motion_driver.c **** /**
   8:MyHardWare/eMPL/inv_mpu_dmp_motion_driver.c ****  *  @addtogroup  DRIVERS Sensor Driver Layer
   9:MyHardWare/eMPL/inv_mpu_dmp_motion_driver.c ****  *  @brief       Hardware drivers to communicate with sensors via I2C.
  10:MyHardWare/eMPL/inv_mpu_dmp_motion_driver.c ****  *
  11:MyHardWare/eMPL/inv_mpu_dmp_motion_driver.c ****  *  @{
  12:MyHardWare/eMPL/inv_mpu_dmp_motion_driver.c ****  *      @file       inv_mpu_dmp_motion_driver.c
  13:MyHardWare/eMPL/inv_mpu_dmp_motion_driver.c ****  *      @brief      DMP image and interface functions.
  14:MyHardWare/eMPL/inv_mpu_dmp_motion_driver.c ****  *      @details    All functions are preceded by the dmp_ prefix to
  15:MyHardWare/eMPL/inv_mpu_dmp_motion_driver.c ****  *                  differentiate among MPL and general driver function calls.
  16:MyHardWare/eMPL/inv_mpu_dmp_motion_driver.c ****  */
  17:MyHardWare/eMPL/inv_mpu_dmp_motion_driver.c **** #include <stdio.h>
  18:MyHardWare/eMPL/inv_mpu_dmp_motion_driver.c **** #include <stdint.h>
  19:MyHardWare/eMPL/inv_mpu_dmp_motion_driver.c **** #include <stdlib.h>
  20:MyHardWare/eMPL/inv_mpu_dmp_motion_driver.c **** #include <string.h>
  21:MyHardWare/eMPL/inv_mpu_dmp_motion_driver.c **** #include <math.h>
  22:MyHardWare/eMPL/inv_mpu_dmp_motion_driver.c **** #include "inv_mpu.h"
  23:MyHardWare/eMPL/inv_mpu_dmp_motion_driver.c **** #include "inv_mpu_dmp_motion_driver.h"
  24:MyHardWare/eMPL/inv_mpu_dmp_motion_driver.c **** #include "dmpKey.h"
  25:MyHardWare/eMPL/inv_mpu_dmp_motion_driver.c **** #include "dmpmap.h"
  26:MyHardWare/eMPL/inv_mpu_dmp_motion_driver.c **** #include "usart.h"
  27:MyHardWare/eMPL/inv_mpu_dmp_motion_driver.c **** #include "delay.h"
  28:MyHardWare/eMPL/inv_mpu_dmp_motion_driver.c **** 
  29:MyHardWare/eMPL/inv_mpu_dmp_motion_driver.c **** //¶¨ŇĺÄż±ę°ĺ˛ÉÓĂMSP430
  30:MyHardWare/eMPL/inv_mpu_dmp_motion_driver.c **** #define  MOTION_DRIVER_TARGET_MSP430
ARM GAS  /tmp/cckrZnTL.s 			page 2


  31:MyHardWare/eMPL/inv_mpu_dmp_motion_driver.c **** 
  32:MyHardWare/eMPL/inv_mpu_dmp_motion_driver.c **** /* The following functions must be defined for this platform:
  33:MyHardWare/eMPL/inv_mpu_dmp_motion_driver.c ****  * i2c_write(unsigned char slave_addr, unsigned char reg_addr,
  34:MyHardWare/eMPL/inv_mpu_dmp_motion_driver.c ****  *      unsigned char length, unsigned char const *data)
  35:MyHardWare/eMPL/inv_mpu_dmp_motion_driver.c ****  * i2c_read(unsigned char slave_addr, unsigned char reg_addr,
  36:MyHardWare/eMPL/inv_mpu_dmp_motion_driver.c ****  *      unsigned char length, unsigned char *data)
  37:MyHardWare/eMPL/inv_mpu_dmp_motion_driver.c ****  * delay_ms(unsigned long num_ms)
  38:MyHardWare/eMPL/inv_mpu_dmp_motion_driver.c ****  * get_ms(unsigned long *count)
  39:MyHardWare/eMPL/inv_mpu_dmp_motion_driver.c ****  */
  40:MyHardWare/eMPL/inv_mpu_dmp_motion_driver.c **** #if defined MOTION_DRIVER_TARGET_MSP430
  41:MyHardWare/eMPL/inv_mpu_dmp_motion_driver.c **** //#include "msp430.h"
  42:MyHardWare/eMPL/inv_mpu_dmp_motion_driver.c **** //#include "msp430_clock.h"
  43:MyHardWare/eMPL/inv_mpu_dmp_motion_driver.c **** #define delay_ms    delay_ms
  44:MyHardWare/eMPL/inv_mpu_dmp_motion_driver.c **** #define get_ms      mget_ms
  45:MyHardWare/eMPL/inv_mpu_dmp_motion_driver.c **** #define log_i 		printf
  46:MyHardWare/eMPL/inv_mpu_dmp_motion_driver.c **** #define log_e  		printf
  47:MyHardWare/eMPL/inv_mpu_dmp_motion_driver.c **** 
  48:MyHardWare/eMPL/inv_mpu_dmp_motion_driver.c **** #elif defined EMPL_TARGET_MSP430
  49:MyHardWare/eMPL/inv_mpu_dmp_motion_driver.c **** #include "msp430.h"
  50:MyHardWare/eMPL/inv_mpu_dmp_motion_driver.c **** #include "msp430_clock.h"
  51:MyHardWare/eMPL/inv_mpu_dmp_motion_driver.c **** #include "log.h"
  52:MyHardWare/eMPL/inv_mpu_dmp_motion_driver.c **** #define delay_ms    msp430_delay_ms
  53:MyHardWare/eMPL/inv_mpu_dmp_motion_driver.c **** #define get_ms      msp430_get_clock_ms
  54:MyHardWare/eMPL/inv_mpu_dmp_motion_driver.c **** #define log_i       MPL_LOGI
  55:MyHardWare/eMPL/inv_mpu_dmp_motion_driver.c **** #define log_e       MPL_LOGE
  56:MyHardWare/eMPL/inv_mpu_dmp_motion_driver.c **** 
  57:MyHardWare/eMPL/inv_mpu_dmp_motion_driver.c **** #elif defined EMPL_TARGET_UC3L0
  58:MyHardWare/eMPL/inv_mpu_dmp_motion_driver.c **** /* Instead of using the standard TWI driver from the ASF library, we're using
  59:MyHardWare/eMPL/inv_mpu_dmp_motion_driver.c ****  * a TWI driver that follows the slave address + register address convention.
  60:MyHardWare/eMPL/inv_mpu_dmp_motion_driver.c ****  */
  61:MyHardWare/eMPL/inv_mpu_dmp_motion_driver.c **** #include "delay.h"
  62:MyHardWare/eMPL/inv_mpu_dmp_motion_driver.c **** #include "sysclk.h"
  63:MyHardWare/eMPL/inv_mpu_dmp_motion_driver.c **** #include "log.h"
  64:MyHardWare/eMPL/inv_mpu_dmp_motion_driver.c **** #include "uc3l0_clock.h"
  65:MyHardWare/eMPL/inv_mpu_dmp_motion_driver.c **** /* delay_ms is a function already defined in ASF. */
  66:MyHardWare/eMPL/inv_mpu_dmp_motion_driver.c **** #define get_ms  uc3l0_get_clock_ms
  67:MyHardWare/eMPL/inv_mpu_dmp_motion_driver.c **** #define log_i       MPL_LOGI
  68:MyHardWare/eMPL/inv_mpu_dmp_motion_driver.c **** #define log_e       MPL_LOGE
  69:MyHardWare/eMPL/inv_mpu_dmp_motion_driver.c **** 
  70:MyHardWare/eMPL/inv_mpu_dmp_motion_driver.c **** #else
  71:MyHardWare/eMPL/inv_mpu_dmp_motion_driver.c **** #error  Gyro driver is missing the system layer implementations.
  72:MyHardWare/eMPL/inv_mpu_dmp_motion_driver.c **** #endif
  73:MyHardWare/eMPL/inv_mpu_dmp_motion_driver.c **** 
  74:MyHardWare/eMPL/inv_mpu_dmp_motion_driver.c **** /* These defines are copied from dmpDefaultMPU6050.c in the general MPL
  75:MyHardWare/eMPL/inv_mpu_dmp_motion_driver.c ****  * releases. These defines may change for each DMP image, so be sure to modify
  76:MyHardWare/eMPL/inv_mpu_dmp_motion_driver.c ****  * these values when switching to a new image.
  77:MyHardWare/eMPL/inv_mpu_dmp_motion_driver.c ****  */
  78:MyHardWare/eMPL/inv_mpu_dmp_motion_driver.c **** #define CFG_LP_QUAT             (2712)
  79:MyHardWare/eMPL/inv_mpu_dmp_motion_driver.c **** #define END_ORIENT_TEMP         (1866)
  80:MyHardWare/eMPL/inv_mpu_dmp_motion_driver.c **** #define CFG_27                  (2742)
  81:MyHardWare/eMPL/inv_mpu_dmp_motion_driver.c **** #define CFG_20                  (2224)
  82:MyHardWare/eMPL/inv_mpu_dmp_motion_driver.c **** #define CFG_23                  (2745)
  83:MyHardWare/eMPL/inv_mpu_dmp_motion_driver.c **** #define CFG_FIFO_ON_EVENT       (2690)
  84:MyHardWare/eMPL/inv_mpu_dmp_motion_driver.c **** #define END_PREDICTION_UPDATE   (1761)
  85:MyHardWare/eMPL/inv_mpu_dmp_motion_driver.c **** #define CGNOTICE_INTR           (2620)
  86:MyHardWare/eMPL/inv_mpu_dmp_motion_driver.c **** #define X_GRT_Y_TMP             (1358)
  87:MyHardWare/eMPL/inv_mpu_dmp_motion_driver.c **** #define CFG_DR_INT              (1029)
ARM GAS  /tmp/cckrZnTL.s 			page 3


  88:MyHardWare/eMPL/inv_mpu_dmp_motion_driver.c **** #define CFG_AUTH                (1035)
  89:MyHardWare/eMPL/inv_mpu_dmp_motion_driver.c **** #define UPDATE_PROP_ROT         (1835)
  90:MyHardWare/eMPL/inv_mpu_dmp_motion_driver.c **** #define END_COMPARE_Y_X_TMP2    (1455)
  91:MyHardWare/eMPL/inv_mpu_dmp_motion_driver.c **** #define SKIP_X_GRT_Y_TMP        (1359)
  92:MyHardWare/eMPL/inv_mpu_dmp_motion_driver.c **** #define SKIP_END_COMPARE        (1435)
  93:MyHardWare/eMPL/inv_mpu_dmp_motion_driver.c **** #define FCFG_3                  (1088)
  94:MyHardWare/eMPL/inv_mpu_dmp_motion_driver.c **** #define FCFG_2                  (1066)
  95:MyHardWare/eMPL/inv_mpu_dmp_motion_driver.c **** #define FCFG_1                  (1062)
  96:MyHardWare/eMPL/inv_mpu_dmp_motion_driver.c **** #define END_COMPARE_Y_X_TMP3    (1434)
  97:MyHardWare/eMPL/inv_mpu_dmp_motion_driver.c **** #define FCFG_7                  (1073)
  98:MyHardWare/eMPL/inv_mpu_dmp_motion_driver.c **** #define FCFG_6                  (1106)
  99:MyHardWare/eMPL/inv_mpu_dmp_motion_driver.c **** #define FLAT_STATE_END          (1713)
 100:MyHardWare/eMPL/inv_mpu_dmp_motion_driver.c **** #define SWING_END_4             (1616)
 101:MyHardWare/eMPL/inv_mpu_dmp_motion_driver.c **** #define SWING_END_2             (1565)
 102:MyHardWare/eMPL/inv_mpu_dmp_motion_driver.c **** #define SWING_END_3             (1587)
 103:MyHardWare/eMPL/inv_mpu_dmp_motion_driver.c **** #define SWING_END_1             (1550)
 104:MyHardWare/eMPL/inv_mpu_dmp_motion_driver.c **** #define CFG_8                   (2718)
 105:MyHardWare/eMPL/inv_mpu_dmp_motion_driver.c **** #define CFG_15                  (2727)
 106:MyHardWare/eMPL/inv_mpu_dmp_motion_driver.c **** #define CFG_16                  (2746)
 107:MyHardWare/eMPL/inv_mpu_dmp_motion_driver.c **** #define CFG_EXT_GYRO_BIAS       (1189)
 108:MyHardWare/eMPL/inv_mpu_dmp_motion_driver.c **** #define END_COMPARE_Y_X_TMP     (1407)
 109:MyHardWare/eMPL/inv_mpu_dmp_motion_driver.c **** #define DO_NOT_UPDATE_PROP_ROT  (1839)
 110:MyHardWare/eMPL/inv_mpu_dmp_motion_driver.c **** #define CFG_7                   (1205)
 111:MyHardWare/eMPL/inv_mpu_dmp_motion_driver.c **** #define FLAT_STATE_END_TEMP     (1683)
 112:MyHardWare/eMPL/inv_mpu_dmp_motion_driver.c **** #define END_COMPARE_Y_X         (1484)
 113:MyHardWare/eMPL/inv_mpu_dmp_motion_driver.c **** #define SKIP_SWING_END_1        (1551)
 114:MyHardWare/eMPL/inv_mpu_dmp_motion_driver.c **** #define SKIP_SWING_END_3        (1588)
 115:MyHardWare/eMPL/inv_mpu_dmp_motion_driver.c **** #define SKIP_SWING_END_2        (1566)
 116:MyHardWare/eMPL/inv_mpu_dmp_motion_driver.c **** #define TILTG75_START           (1672)
 117:MyHardWare/eMPL/inv_mpu_dmp_motion_driver.c **** #define CFG_6                   (2753)
 118:MyHardWare/eMPL/inv_mpu_dmp_motion_driver.c **** #define TILTL75_END             (1669)
 119:MyHardWare/eMPL/inv_mpu_dmp_motion_driver.c **** #define END_ORIENT              (1884)
 120:MyHardWare/eMPL/inv_mpu_dmp_motion_driver.c **** #define CFG_FLICK_IN            (2573)
 121:MyHardWare/eMPL/inv_mpu_dmp_motion_driver.c **** #define TILTL75_START           (1643)
 122:MyHardWare/eMPL/inv_mpu_dmp_motion_driver.c **** #define CFG_MOTION_BIAS         (1208)
 123:MyHardWare/eMPL/inv_mpu_dmp_motion_driver.c **** #define X_GRT_Y                 (1408)
 124:MyHardWare/eMPL/inv_mpu_dmp_motion_driver.c **** #define TEMPLABEL               (2324)
 125:MyHardWare/eMPL/inv_mpu_dmp_motion_driver.c **** #define CFG_ANDROID_ORIENT_INT  (1853)
 126:MyHardWare/eMPL/inv_mpu_dmp_motion_driver.c **** #define CFG_GYRO_RAW_DATA       (2722)
 127:MyHardWare/eMPL/inv_mpu_dmp_motion_driver.c **** #define X_GRT_Y_TMP2            (1379)
 128:MyHardWare/eMPL/inv_mpu_dmp_motion_driver.c **** 
 129:MyHardWare/eMPL/inv_mpu_dmp_motion_driver.c **** #define D_0_22                  (22+512)
 130:MyHardWare/eMPL/inv_mpu_dmp_motion_driver.c **** #define D_0_24                  (24+512)
 131:MyHardWare/eMPL/inv_mpu_dmp_motion_driver.c **** 
 132:MyHardWare/eMPL/inv_mpu_dmp_motion_driver.c **** #define D_0_36                  (36)
 133:MyHardWare/eMPL/inv_mpu_dmp_motion_driver.c **** #define D_0_52                  (52)
 134:MyHardWare/eMPL/inv_mpu_dmp_motion_driver.c **** #define D_0_96                  (96)
 135:MyHardWare/eMPL/inv_mpu_dmp_motion_driver.c **** #define D_0_104                 (104)
 136:MyHardWare/eMPL/inv_mpu_dmp_motion_driver.c **** #define D_0_108                 (108)
 137:MyHardWare/eMPL/inv_mpu_dmp_motion_driver.c **** #define D_0_163                 (163)
 138:MyHardWare/eMPL/inv_mpu_dmp_motion_driver.c **** #define D_0_188                 (188)
 139:MyHardWare/eMPL/inv_mpu_dmp_motion_driver.c **** #define D_0_192                 (192)
 140:MyHardWare/eMPL/inv_mpu_dmp_motion_driver.c **** #define D_0_224                 (224)
 141:MyHardWare/eMPL/inv_mpu_dmp_motion_driver.c **** #define D_0_228                 (228)
 142:MyHardWare/eMPL/inv_mpu_dmp_motion_driver.c **** #define D_0_232                 (232)
 143:MyHardWare/eMPL/inv_mpu_dmp_motion_driver.c **** #define D_0_236                 (236)
 144:MyHardWare/eMPL/inv_mpu_dmp_motion_driver.c **** 
ARM GAS  /tmp/cckrZnTL.s 			page 4


 145:MyHardWare/eMPL/inv_mpu_dmp_motion_driver.c **** #define D_1_2                   (256 + 2)
 146:MyHardWare/eMPL/inv_mpu_dmp_motion_driver.c **** #define D_1_4                   (256 + 4)
 147:MyHardWare/eMPL/inv_mpu_dmp_motion_driver.c **** #define D_1_8                   (256 + 8)
 148:MyHardWare/eMPL/inv_mpu_dmp_motion_driver.c **** #define D_1_10                  (256 + 10)
 149:MyHardWare/eMPL/inv_mpu_dmp_motion_driver.c **** #define D_1_24                  (256 + 24)
 150:MyHardWare/eMPL/inv_mpu_dmp_motion_driver.c **** #define D_1_28                  (256 + 28)
 151:MyHardWare/eMPL/inv_mpu_dmp_motion_driver.c **** #define D_1_36                  (256 + 36)
 152:MyHardWare/eMPL/inv_mpu_dmp_motion_driver.c **** #define D_1_40                  (256 + 40)
 153:MyHardWare/eMPL/inv_mpu_dmp_motion_driver.c **** #define D_1_44                  (256 + 44)
 154:MyHardWare/eMPL/inv_mpu_dmp_motion_driver.c **** #define D_1_72                  (256 + 72)
 155:MyHardWare/eMPL/inv_mpu_dmp_motion_driver.c **** #define D_1_74                  (256 + 74)
 156:MyHardWare/eMPL/inv_mpu_dmp_motion_driver.c **** #define D_1_79                  (256 + 79)
 157:MyHardWare/eMPL/inv_mpu_dmp_motion_driver.c **** #define D_1_88                  (256 + 88)
 158:MyHardWare/eMPL/inv_mpu_dmp_motion_driver.c **** #define D_1_90                  (256 + 90)
 159:MyHardWare/eMPL/inv_mpu_dmp_motion_driver.c **** #define D_1_92                  (256 + 92)
 160:MyHardWare/eMPL/inv_mpu_dmp_motion_driver.c **** #define D_1_96                  (256 + 96)
 161:MyHardWare/eMPL/inv_mpu_dmp_motion_driver.c **** #define D_1_98                  (256 + 98)
 162:MyHardWare/eMPL/inv_mpu_dmp_motion_driver.c **** #define D_1_106                 (256 + 106)
 163:MyHardWare/eMPL/inv_mpu_dmp_motion_driver.c **** #define D_1_108                 (256 + 108)
 164:MyHardWare/eMPL/inv_mpu_dmp_motion_driver.c **** #define D_1_112                 (256 + 112)
 165:MyHardWare/eMPL/inv_mpu_dmp_motion_driver.c **** #define D_1_128                 (256 + 144)
 166:MyHardWare/eMPL/inv_mpu_dmp_motion_driver.c **** #define D_1_152                 (256 + 12)
 167:MyHardWare/eMPL/inv_mpu_dmp_motion_driver.c **** #define D_1_160                 (256 + 160)
 168:MyHardWare/eMPL/inv_mpu_dmp_motion_driver.c **** #define D_1_176                 (256 + 176)
 169:MyHardWare/eMPL/inv_mpu_dmp_motion_driver.c **** #define D_1_178                 (256 + 178)
 170:MyHardWare/eMPL/inv_mpu_dmp_motion_driver.c **** #define D_1_218                 (256 + 218)
 171:MyHardWare/eMPL/inv_mpu_dmp_motion_driver.c **** #define D_1_232                 (256 + 232)
 172:MyHardWare/eMPL/inv_mpu_dmp_motion_driver.c **** #define D_1_236                 (256 + 236)
 173:MyHardWare/eMPL/inv_mpu_dmp_motion_driver.c **** #define D_1_240                 (256 + 240)
 174:MyHardWare/eMPL/inv_mpu_dmp_motion_driver.c **** #define D_1_244                 (256 + 244)
 175:MyHardWare/eMPL/inv_mpu_dmp_motion_driver.c **** #define D_1_250                 (256 + 250)
 176:MyHardWare/eMPL/inv_mpu_dmp_motion_driver.c **** #define D_1_252                 (256 + 252)
 177:MyHardWare/eMPL/inv_mpu_dmp_motion_driver.c **** #define D_2_12                  (512 + 12)
 178:MyHardWare/eMPL/inv_mpu_dmp_motion_driver.c **** #define D_2_96                  (512 + 96)
 179:MyHardWare/eMPL/inv_mpu_dmp_motion_driver.c **** #define D_2_108                 (512 + 108)
 180:MyHardWare/eMPL/inv_mpu_dmp_motion_driver.c **** #define D_2_208                 (512 + 208)
 181:MyHardWare/eMPL/inv_mpu_dmp_motion_driver.c **** #define D_2_224                 (512 + 224)
 182:MyHardWare/eMPL/inv_mpu_dmp_motion_driver.c **** #define D_2_236                 (512 + 236)
 183:MyHardWare/eMPL/inv_mpu_dmp_motion_driver.c **** #define D_2_244                 (512 + 244)
 184:MyHardWare/eMPL/inv_mpu_dmp_motion_driver.c **** #define D_2_248                 (512 + 248)
 185:MyHardWare/eMPL/inv_mpu_dmp_motion_driver.c **** #define D_2_252                 (512 + 252)
 186:MyHardWare/eMPL/inv_mpu_dmp_motion_driver.c **** 
 187:MyHardWare/eMPL/inv_mpu_dmp_motion_driver.c **** #define CPASS_BIAS_X            (35 * 16 + 4)
 188:MyHardWare/eMPL/inv_mpu_dmp_motion_driver.c **** #define CPASS_BIAS_Y            (35 * 16 + 8)
 189:MyHardWare/eMPL/inv_mpu_dmp_motion_driver.c **** #define CPASS_BIAS_Z            (35 * 16 + 12)
 190:MyHardWare/eMPL/inv_mpu_dmp_motion_driver.c **** #define CPASS_MTX_00            (36 * 16)
 191:MyHardWare/eMPL/inv_mpu_dmp_motion_driver.c **** #define CPASS_MTX_01            (36 * 16 + 4)
 192:MyHardWare/eMPL/inv_mpu_dmp_motion_driver.c **** #define CPASS_MTX_02            (36 * 16 + 8)
 193:MyHardWare/eMPL/inv_mpu_dmp_motion_driver.c **** #define CPASS_MTX_10            (36 * 16 + 12)
 194:MyHardWare/eMPL/inv_mpu_dmp_motion_driver.c **** #define CPASS_MTX_11            (37 * 16)
 195:MyHardWare/eMPL/inv_mpu_dmp_motion_driver.c **** #define CPASS_MTX_12            (37 * 16 + 4)
 196:MyHardWare/eMPL/inv_mpu_dmp_motion_driver.c **** #define CPASS_MTX_20            (37 * 16 + 8)
 197:MyHardWare/eMPL/inv_mpu_dmp_motion_driver.c **** #define CPASS_MTX_21            (37 * 16 + 12)
 198:MyHardWare/eMPL/inv_mpu_dmp_motion_driver.c **** #define CPASS_MTX_22            (43 * 16 + 12)
 199:MyHardWare/eMPL/inv_mpu_dmp_motion_driver.c **** #define D_EXT_GYRO_BIAS_X       (61 * 16)
 200:MyHardWare/eMPL/inv_mpu_dmp_motion_driver.c **** #define D_EXT_GYRO_BIAS_Y       (61 * 16) + 4
 201:MyHardWare/eMPL/inv_mpu_dmp_motion_driver.c **** #define D_EXT_GYRO_BIAS_Z       (61 * 16) + 8
ARM GAS  /tmp/cckrZnTL.s 			page 5


 202:MyHardWare/eMPL/inv_mpu_dmp_motion_driver.c **** #define D_ACT0                  (40 * 16)
 203:MyHardWare/eMPL/inv_mpu_dmp_motion_driver.c **** #define D_ACSX                  (40 * 16 + 4)
 204:MyHardWare/eMPL/inv_mpu_dmp_motion_driver.c **** #define D_ACSY                  (40 * 16 + 8)
 205:MyHardWare/eMPL/inv_mpu_dmp_motion_driver.c **** #define D_ACSZ                  (40 * 16 + 12)
 206:MyHardWare/eMPL/inv_mpu_dmp_motion_driver.c **** 
 207:MyHardWare/eMPL/inv_mpu_dmp_motion_driver.c **** #define FLICK_MSG               (45 * 16 + 4)
 208:MyHardWare/eMPL/inv_mpu_dmp_motion_driver.c **** #define FLICK_COUNTER           (45 * 16 + 8)
 209:MyHardWare/eMPL/inv_mpu_dmp_motion_driver.c **** #define FLICK_LOWER             (45 * 16 + 12)
 210:MyHardWare/eMPL/inv_mpu_dmp_motion_driver.c **** #define FLICK_UPPER             (46 * 16 + 12)
 211:MyHardWare/eMPL/inv_mpu_dmp_motion_driver.c **** 
 212:MyHardWare/eMPL/inv_mpu_dmp_motion_driver.c **** #define D_AUTH_OUT              (992)
 213:MyHardWare/eMPL/inv_mpu_dmp_motion_driver.c **** #define D_AUTH_IN               (996)
 214:MyHardWare/eMPL/inv_mpu_dmp_motion_driver.c **** #define D_AUTH_A                (1000)
 215:MyHardWare/eMPL/inv_mpu_dmp_motion_driver.c **** #define D_AUTH_B                (1004)
 216:MyHardWare/eMPL/inv_mpu_dmp_motion_driver.c **** 
 217:MyHardWare/eMPL/inv_mpu_dmp_motion_driver.c **** #define D_PEDSTD_BP_B           (768 + 0x1C)
 218:MyHardWare/eMPL/inv_mpu_dmp_motion_driver.c **** #define D_PEDSTD_HP_A           (768 + 0x78)
 219:MyHardWare/eMPL/inv_mpu_dmp_motion_driver.c **** #define D_PEDSTD_HP_B           (768 + 0x7C)
 220:MyHardWare/eMPL/inv_mpu_dmp_motion_driver.c **** #define D_PEDSTD_BP_A4          (768 + 0x40)
 221:MyHardWare/eMPL/inv_mpu_dmp_motion_driver.c **** #define D_PEDSTD_BP_A3          (768 + 0x44)
 222:MyHardWare/eMPL/inv_mpu_dmp_motion_driver.c **** #define D_PEDSTD_BP_A2          (768 + 0x48)
 223:MyHardWare/eMPL/inv_mpu_dmp_motion_driver.c **** #define D_PEDSTD_BP_A1          (768 + 0x4C)
 224:MyHardWare/eMPL/inv_mpu_dmp_motion_driver.c **** #define D_PEDSTD_INT_THRSH      (768 + 0x68)
 225:MyHardWare/eMPL/inv_mpu_dmp_motion_driver.c **** #define D_PEDSTD_CLIP           (768 + 0x6C)
 226:MyHardWare/eMPL/inv_mpu_dmp_motion_driver.c **** #define D_PEDSTD_SB             (768 + 0x28)
 227:MyHardWare/eMPL/inv_mpu_dmp_motion_driver.c **** #define D_PEDSTD_SB_TIME        (768 + 0x2C)
 228:MyHardWare/eMPL/inv_mpu_dmp_motion_driver.c **** #define D_PEDSTD_PEAKTHRSH      (768 + 0x98)
 229:MyHardWare/eMPL/inv_mpu_dmp_motion_driver.c **** #define D_PEDSTD_TIML           (768 + 0x2A)
 230:MyHardWare/eMPL/inv_mpu_dmp_motion_driver.c **** #define D_PEDSTD_TIMH           (768 + 0x2E)
 231:MyHardWare/eMPL/inv_mpu_dmp_motion_driver.c **** #define D_PEDSTD_PEAK           (768 + 0X94)
 232:MyHardWare/eMPL/inv_mpu_dmp_motion_driver.c **** #define D_PEDSTD_STEPCTR        (768 + 0x60)
 233:MyHardWare/eMPL/inv_mpu_dmp_motion_driver.c **** #define D_PEDSTD_TIMECTR        (964)
 234:MyHardWare/eMPL/inv_mpu_dmp_motion_driver.c **** #define D_PEDSTD_DECI           (768 + 0xA0)
 235:MyHardWare/eMPL/inv_mpu_dmp_motion_driver.c **** 
 236:MyHardWare/eMPL/inv_mpu_dmp_motion_driver.c **** #define D_HOST_NO_MOT           (976)
 237:MyHardWare/eMPL/inv_mpu_dmp_motion_driver.c **** #define D_ACCEL_BIAS            (660)
 238:MyHardWare/eMPL/inv_mpu_dmp_motion_driver.c **** 
 239:MyHardWare/eMPL/inv_mpu_dmp_motion_driver.c **** #define D_ORIENT_GAP            (76)
 240:MyHardWare/eMPL/inv_mpu_dmp_motion_driver.c **** 
 241:MyHardWare/eMPL/inv_mpu_dmp_motion_driver.c **** #define D_TILT0_H               (48)
 242:MyHardWare/eMPL/inv_mpu_dmp_motion_driver.c **** #define D_TILT0_L               (50)
 243:MyHardWare/eMPL/inv_mpu_dmp_motion_driver.c **** #define D_TILT1_H               (52)
 244:MyHardWare/eMPL/inv_mpu_dmp_motion_driver.c **** #define D_TILT1_L               (54)
 245:MyHardWare/eMPL/inv_mpu_dmp_motion_driver.c **** #define D_TILT2_H               (56)
 246:MyHardWare/eMPL/inv_mpu_dmp_motion_driver.c **** #define D_TILT2_L               (58)
 247:MyHardWare/eMPL/inv_mpu_dmp_motion_driver.c **** #define D_TILT3_H               (60)
 248:MyHardWare/eMPL/inv_mpu_dmp_motion_driver.c **** #define D_TILT3_L               (62)
 249:MyHardWare/eMPL/inv_mpu_dmp_motion_driver.c **** 
 250:MyHardWare/eMPL/inv_mpu_dmp_motion_driver.c **** #define DMP_CODE_SIZE           (3062)
 251:MyHardWare/eMPL/inv_mpu_dmp_motion_driver.c **** 
 252:MyHardWare/eMPL/inv_mpu_dmp_motion_driver.c **** static const unsigned char dmp_memory[DMP_CODE_SIZE] = {
 253:MyHardWare/eMPL/inv_mpu_dmp_motion_driver.c ****     /* bank # 0 */
 254:MyHardWare/eMPL/inv_mpu_dmp_motion_driver.c ****     0x00, 0x00, 0x70, 0x00, 0x00, 0x00, 0x00, 0x24, 0x00, 0x00, 0x00, 0x02, 0x00, 0x03, 0x00, 0x00,
 255:MyHardWare/eMPL/inv_mpu_dmp_motion_driver.c ****     0x00, 0x65, 0x00, 0x54, 0xff, 0xef, 0x00, 0x00, 0xfa, 0x80, 0x00, 0x0b, 0x12, 0x82, 0x00, 0x01,
 256:MyHardWare/eMPL/inv_mpu_dmp_motion_driver.c ****     0x03, 0x0c, 0x30, 0xc3, 0x0e, 0x8c, 0x8c, 0xe9, 0x14, 0xd5, 0x40, 0x02, 0x13, 0x71, 0x0f, 0x8e,
 257:MyHardWare/eMPL/inv_mpu_dmp_motion_driver.c ****     0x38, 0x83, 0xf8, 0x83, 0x30, 0x00, 0xf8, 0x83, 0x25, 0x8e, 0xf8, 0x83, 0x30, 0x00, 0xf8, 0x83,
 258:MyHardWare/eMPL/inv_mpu_dmp_motion_driver.c ****     0xff, 0xff, 0xff, 0xff, 0x0f, 0xfe, 0xa9, 0xd6, 0x24, 0x00, 0x04, 0x00, 0x1a, 0x82, 0x79, 0xa1,
ARM GAS  /tmp/cckrZnTL.s 			page 6


 259:MyHardWare/eMPL/inv_mpu_dmp_motion_driver.c ****     0x00, 0x00, 0x00, 0x3c, 0xff, 0xff, 0x00, 0x00, 0x00, 0x10, 0x00, 0x00, 0x38, 0x83, 0x6f, 0xa2,
 260:MyHardWare/eMPL/inv_mpu_dmp_motion_driver.c ****     0x00, 0x3e, 0x03, 0x30, 0x40, 0x00, 0x00, 0x00, 0x02, 0xca, 0xe3, 0x09, 0x3e, 0x80, 0x00, 0x00,
 261:MyHardWare/eMPL/inv_mpu_dmp_motion_driver.c ****     0x20, 0x00, 0x00, 0x00, 0x00, 0x00, 0x00, 0x00, 0x40, 0x00, 0x00, 0x00, 0x60, 0x00, 0x00, 0x00,
 262:MyHardWare/eMPL/inv_mpu_dmp_motion_driver.c ****     0x00, 0x0c, 0x00, 0x00, 0x00, 0x0c, 0x18, 0x6e, 0x00, 0x00, 0x06, 0x92, 0x0a, 0x16, 0xc0, 0xdf,
 263:MyHardWare/eMPL/inv_mpu_dmp_motion_driver.c ****     0xff, 0xff, 0x02, 0x56, 0xfd, 0x8c, 0xd3, 0x77, 0xff, 0xe1, 0xc4, 0x96, 0xe0, 0xc5, 0xbe, 0xaa,
 264:MyHardWare/eMPL/inv_mpu_dmp_motion_driver.c ****     0x00, 0x00, 0x00, 0x00, 0xff, 0xff, 0x0b, 0x2b, 0x00, 0x00, 0x16, 0x57, 0x00, 0x00, 0x03, 0x59,
 265:MyHardWare/eMPL/inv_mpu_dmp_motion_driver.c ****     0x40, 0x00, 0x00, 0x00, 0x00, 0x00, 0x1d, 0xfa, 0x00, 0x02, 0x6c, 0x1d, 0x00, 0x00, 0x00, 0x00,
 266:MyHardWare/eMPL/inv_mpu_dmp_motion_driver.c ****     0x3f, 0xff, 0xdf, 0xeb, 0x00, 0x3e, 0xb3, 0xb6, 0x00, 0x0d, 0x22, 0x78, 0x00, 0x00, 0x2f, 0x3c,
 267:MyHardWare/eMPL/inv_mpu_dmp_motion_driver.c ****     0x00, 0x00, 0x00, 0x00, 0x00, 0x19, 0x42, 0xb5, 0x00, 0x00, 0x39, 0xa2, 0x00, 0x00, 0xb3, 0x65,
 268:MyHardWare/eMPL/inv_mpu_dmp_motion_driver.c ****     0xd9, 0x0e, 0x9f, 0xc9, 0x1d, 0xcf, 0x4c, 0x34, 0x30, 0x00, 0x00, 0x00, 0x50, 0x00, 0x00, 0x00,
 269:MyHardWare/eMPL/inv_mpu_dmp_motion_driver.c ****     0x3b, 0xb6, 0x7a, 0xe8, 0x00, 0x64, 0x00, 0x00, 0x00, 0xc8, 0x00, 0x00, 0x00, 0x00, 0x00, 0x00,
 270:MyHardWare/eMPL/inv_mpu_dmp_motion_driver.c ****     /* bank # 1 */
 271:MyHardWare/eMPL/inv_mpu_dmp_motion_driver.c ****     0x10, 0x00, 0x00, 0x00, 0x10, 0x00, 0xfa, 0x92, 0x10, 0x00, 0x22, 0x5e, 0x00, 0x0d, 0x22, 0x9f,
 272:MyHardWare/eMPL/inv_mpu_dmp_motion_driver.c ****     0x00, 0x01, 0x00, 0x00, 0x00, 0x32, 0x00, 0x00, 0xff, 0x46, 0x00, 0x00, 0x63, 0xd4, 0x00, 0x00,
 273:MyHardWare/eMPL/inv_mpu_dmp_motion_driver.c ****     0x10, 0x00, 0x00, 0x00, 0x04, 0xd6, 0x00, 0x00, 0x04, 0xcc, 0x00, 0x00, 0x04, 0xcc, 0x00, 0x00,
 274:MyHardWare/eMPL/inv_mpu_dmp_motion_driver.c ****     0x00, 0x00, 0x10, 0x72, 0x00, 0x00, 0x00, 0x40, 0x00, 0x00, 0x00, 0x00, 0x00, 0x00, 0x00, 0x00,
 275:MyHardWare/eMPL/inv_mpu_dmp_motion_driver.c ****     0x00, 0x06, 0x00, 0x02, 0x00, 0x05, 0x00, 0x07, 0x00, 0x00, 0x00, 0x00, 0x00, 0x64, 0x00, 0x00,
 276:MyHardWare/eMPL/inv_mpu_dmp_motion_driver.c ****     0x00, 0x00, 0x00, 0x00, 0x00, 0x00, 0x00, 0x05, 0x00, 0x05, 0x00, 0x64, 0x00, 0x20, 0x00, 0x00,
 277:MyHardWare/eMPL/inv_mpu_dmp_motion_driver.c ****     0x00, 0x00, 0x00, 0x00, 0x00, 0x00, 0x00, 0x00, 0x00, 0x00, 0x40, 0x00, 0x00, 0x00, 0x03, 0x00,
 278:MyHardWare/eMPL/inv_mpu_dmp_motion_driver.c ****     0x00, 0x00, 0x00, 0x32, 0xf8, 0x98, 0x00, 0x00, 0xff, 0x65, 0x00, 0x00, 0x83, 0x0f, 0x00, 0x00,
 279:MyHardWare/eMPL/inv_mpu_dmp_motion_driver.c ****     0xff, 0x9b, 0xfc, 0x00, 0x00, 0x00, 0x00, 0x00, 0x00, 0x00, 0x00, 0x00, 0x00, 0x00, 0x00, 0x00,
 280:MyHardWare/eMPL/inv_mpu_dmp_motion_driver.c ****     0x00, 0x00, 0x00, 0x00, 0x00, 0x00, 0x00, 0x00, 0x00, 0x00, 0x00, 0x00, 0x00, 0x00, 0x00, 0x00,
 281:MyHardWare/eMPL/inv_mpu_dmp_motion_driver.c ****     0x00, 0x00, 0x00, 0x00, 0x00, 0x00, 0x00, 0x00, 0x00, 0x00, 0x00, 0x00, 0x00, 0x00, 0x10, 0x00,
 282:MyHardWare/eMPL/inv_mpu_dmp_motion_driver.c ****     0x40, 0x00, 0x00, 0x00, 0x00, 0x00, 0x00, 0x06, 0x00, 0x00, 0xb2, 0x6a, 0x00, 0x02, 0x00, 0x00,
 283:MyHardWare/eMPL/inv_mpu_dmp_motion_driver.c ****     0x00, 0x01, 0xfb, 0x83, 0x00, 0x68, 0x00, 0x00, 0x00, 0xd9, 0xfc, 0x00, 0x7c, 0xf1, 0xff, 0x83,
 284:MyHardWare/eMPL/inv_mpu_dmp_motion_driver.c ****     0x00, 0x00, 0x00, 0x00, 0x00, 0x65, 0x00, 0x00, 0x00, 0x64, 0x03, 0xe8, 0x00, 0x64, 0x00, 0x28,
 285:MyHardWare/eMPL/inv_mpu_dmp_motion_driver.c ****     0x00, 0x00, 0x00, 0x25, 0x00, 0x00, 0x00, 0x00, 0x16, 0xa0, 0x00, 0x00, 0x00, 0x00, 0x10, 0x00,
 286:MyHardWare/eMPL/inv_mpu_dmp_motion_driver.c ****     0x00, 0x00, 0x10, 0x00, 0x00, 0x2f, 0x00, 0x00, 0x00, 0x00, 0x01, 0xf4, 0x00, 0x00, 0x10, 0x00,
 287:MyHardWare/eMPL/inv_mpu_dmp_motion_driver.c ****     /* bank # 2 */
 288:MyHardWare/eMPL/inv_mpu_dmp_motion_driver.c ****     0x00, 0x28, 0x00, 0x00, 0xff, 0xff, 0x45, 0x81, 0xff, 0xff, 0xfa, 0x72, 0x00, 0x00, 0x00, 0x00,
 289:MyHardWare/eMPL/inv_mpu_dmp_motion_driver.c ****     0x00, 0x00, 0x00, 0x00, 0x00, 0x44, 0x00, 0x05, 0x00, 0x05, 0xba, 0xc6, 0x00, 0x47, 0x78, 0xa2,
 290:MyHardWare/eMPL/inv_mpu_dmp_motion_driver.c ****     0x00, 0x00, 0x00, 0x01, 0x00, 0x00, 0x00, 0x00, 0x00, 0x00, 0x06, 0x00, 0x00, 0x00, 0x00, 0x14,
 291:MyHardWare/eMPL/inv_mpu_dmp_motion_driver.c ****     0x00, 0x00, 0x25, 0x4d, 0x00, 0x2f, 0x70, 0x6d, 0x00, 0x00, 0x05, 0xae, 0x00, 0x0c, 0x02, 0xd0,
 292:MyHardWare/eMPL/inv_mpu_dmp_motion_driver.c ****     0x00, 0x00, 0x00, 0x00, 0x00, 0x00, 0x00, 0x00, 0x00, 0x00, 0x00, 0x00, 0x00, 0x00, 0x00, 0x00,
 293:MyHardWare/eMPL/inv_mpu_dmp_motion_driver.c ****     0x00, 0x1b, 0x00, 0x00, 0x00, 0x00, 0x00, 0x00, 0x00, 0x00, 0x00, 0x00, 0x00, 0x00, 0x00, 0x00,
 294:MyHardWare/eMPL/inv_mpu_dmp_motion_driver.c ****     0x00, 0x64, 0x00, 0x00, 0x00, 0x08, 0x00, 0x00, 0x00, 0x00, 0x00, 0x00, 0x00, 0x00, 0x00, 0x00,
 295:MyHardWare/eMPL/inv_mpu_dmp_motion_driver.c ****     0x00, 0x00, 0x00, 0x00, 0x00, 0x00, 0x00, 0x00, 0x00, 0x00, 0x00, 0x00, 0x00, 0x00, 0x00, 0x00,
 296:MyHardWare/eMPL/inv_mpu_dmp_motion_driver.c ****     0x00, 0x00, 0x00, 0x00, 0x00, 0x00, 0x00, 0x00, 0x00, 0x00, 0x00, 0x00, 0x00, 0x00, 0x00, 0x00,
 297:MyHardWare/eMPL/inv_mpu_dmp_motion_driver.c ****     0x00, 0x00, 0x00, 0x00, 0x00, 0x00, 0x00, 0x00, 0x00, 0x00, 0x00, 0x00, 0x00, 0x00, 0x00, 0x00,
 298:MyHardWare/eMPL/inv_mpu_dmp_motion_driver.c ****     0x00, 0x00, 0x00, 0x00, 0x00, 0x00, 0x00, 0x00, 0x00, 0x00, 0x00, 0x00, 0x00, 0x00, 0x00, 0x00,
 299:MyHardWare/eMPL/inv_mpu_dmp_motion_driver.c ****     0x00, 0x00, 0x00, 0x00, 0x00, 0x00, 0x00, 0x00, 0x00, 0x00, 0x00, 0x00, 0x00, 0x00, 0x00, 0x00,
 300:MyHardWare/eMPL/inv_mpu_dmp_motion_driver.c ****     0x00, 0x1b, 0x00, 0x00, 0x00, 0x00, 0x00, 0x00, 0x00, 0x00, 0x00, 0x00, 0x00, 0x0e, 0x00, 0x0e,
 301:MyHardWare/eMPL/inv_mpu_dmp_motion_driver.c ****     0x00, 0x00, 0x0a, 0xc7, 0x00, 0x04, 0x00, 0x00, 0x00, 0x00, 0x00, 0x32, 0xff, 0xff, 0xff, 0x9c,
 302:MyHardWare/eMPL/inv_mpu_dmp_motion_driver.c ****     0x00, 0x00, 0x0b, 0x2b, 0x00, 0x00, 0x00, 0x02, 0x00, 0x00, 0x00, 0x01, 0x00, 0x00, 0x00, 0x64,
 303:MyHardWare/eMPL/inv_mpu_dmp_motion_driver.c ****     0xff, 0xe5, 0x00, 0x00, 0x00, 0x00, 0x00, 0x00, 0x00, 0x00, 0x00, 0x00, 0x00, 0x00, 0x00, 0x00,
 304:MyHardWare/eMPL/inv_mpu_dmp_motion_driver.c ****     /* bank # 3 */
 305:MyHardWare/eMPL/inv_mpu_dmp_motion_driver.c ****     0x00, 0x00, 0x00, 0x01, 0x00, 0x00, 0x00, 0x00, 0x00, 0x01, 0x00, 0x00, 0x00, 0x00, 0x00, 0x00,
 306:MyHardWare/eMPL/inv_mpu_dmp_motion_driver.c ****     0x00, 0x01, 0x80, 0x00, 0x00, 0x01, 0x80, 0x00, 0x00, 0x01, 0x80, 0x00, 0x00, 0x24, 0x26, 0xd3,
 307:MyHardWare/eMPL/inv_mpu_dmp_motion_driver.c ****     0x00, 0x00, 0x00, 0x00, 0x00, 0x00, 0x00, 0x00, 0x00, 0x06, 0x00, 0x10, 0x00, 0x96, 0x00, 0x3c,
 308:MyHardWare/eMPL/inv_mpu_dmp_motion_driver.c ****     0x00, 0x00, 0x00, 0x00, 0x00, 0x00, 0x00, 0x00, 0x00, 0x00, 0x00, 0x00, 0x00, 0x00, 0x00, 0x00,
 309:MyHardWare/eMPL/inv_mpu_dmp_motion_driver.c ****     0x0c, 0x0a, 0x4e, 0x68, 0xcd, 0xcf, 0x77, 0x09, 0x50, 0x16, 0x67, 0x59, 0xc6, 0x19, 0xce, 0x82,
 310:MyHardWare/eMPL/inv_mpu_dmp_motion_driver.c ****     0x00, 0x00, 0x00, 0x00, 0x00, 0x00, 0x00, 0x00, 0x00, 0x00, 0x00, 0x00, 0x00, 0x00, 0x00, 0x00,
 311:MyHardWare/eMPL/inv_mpu_dmp_motion_driver.c ****     0x00, 0x00, 0x00, 0x00, 0x00, 0x00, 0x00, 0x00, 0x17, 0xd7, 0x84, 0x00, 0x03, 0x00, 0x00, 0x00,
 312:MyHardWare/eMPL/inv_mpu_dmp_motion_driver.c ****     0x00, 0x00, 0x00, 0x00, 0x00, 0x00, 0x00, 0x00, 0xc7, 0x93, 0x8f, 0x9d, 0x1e, 0x1b, 0x1c, 0x19,
 313:MyHardWare/eMPL/inv_mpu_dmp_motion_driver.c ****     0x00, 0x00, 0x00, 0x00, 0x00, 0x00, 0x00, 0x00, 0x00, 0x00, 0x00, 0x00, 0x00, 0x00, 0x00, 0x00,
 314:MyHardWare/eMPL/inv_mpu_dmp_motion_driver.c ****     0x00, 0x00, 0x00, 0x00, 0x00, 0x00, 0x00, 0x00, 0x02, 0x03, 0x18, 0x85, 0x00, 0x00, 0x40, 0x00,
 315:MyHardWare/eMPL/inv_mpu_dmp_motion_driver.c ****     0x00, 0x00, 0x00, 0x03, 0x00, 0x00, 0x00, 0x03, 0x00, 0x00, 0x00, 0x00, 0x00, 0x00, 0x00, 0x00,
ARM GAS  /tmp/cckrZnTL.s 			page 7


 316:MyHardWare/eMPL/inv_mpu_dmp_motion_driver.c ****     0x40, 0x00, 0x00, 0x00, 0x00, 0x00, 0x00, 0x00, 0x00, 0x00, 0x00, 0x00, 0x00, 0x00, 0x00, 0x00,
 317:MyHardWare/eMPL/inv_mpu_dmp_motion_driver.c ****     0x00, 0x00, 0x00, 0x00, 0x00, 0x00, 0x00, 0x00, 0x00, 0x00, 0x00, 0x00, 0x00, 0x00, 0x00, 0x00,
 318:MyHardWare/eMPL/inv_mpu_dmp_motion_driver.c ****     0x00, 0x00, 0x00, 0x00, 0x00, 0x00, 0x00, 0x00, 0x00, 0x00, 0x00, 0x00, 0x00, 0x00, 0x00, 0x00,
 319:MyHardWare/eMPL/inv_mpu_dmp_motion_driver.c ****     0x00, 0x00, 0x00, 0x00, 0x67, 0x7d, 0xdf, 0x7e, 0x72, 0x90, 0x2e, 0x55, 0x4c, 0xf6, 0xe6, 0x88,
 320:MyHardWare/eMPL/inv_mpu_dmp_motion_driver.c ****     0x00, 0x00, 0x00, 0x00, 0x00, 0x00, 0x00, 0x00, 0x00, 0x00, 0x00, 0x00, 0x00, 0x00, 0x00, 0x00,
 321:MyHardWare/eMPL/inv_mpu_dmp_motion_driver.c **** 
 322:MyHardWare/eMPL/inv_mpu_dmp_motion_driver.c ****     /* bank # 4 */
 323:MyHardWare/eMPL/inv_mpu_dmp_motion_driver.c ****     0xd8, 0xdc, 0xb4, 0xb8, 0xb0, 0xd8, 0xb9, 0xab, 0xf3, 0xf8, 0xfa, 0xb3, 0xb7, 0xbb, 0x8e, 0x9e,
 324:MyHardWare/eMPL/inv_mpu_dmp_motion_driver.c ****     0xae, 0xf1, 0x32, 0xf5, 0x1b, 0xf1, 0xb4, 0xb8, 0xb0, 0x80, 0x97, 0xf1, 0xa9, 0xdf, 0xdf, 0xdf,
 325:MyHardWare/eMPL/inv_mpu_dmp_motion_driver.c ****     0xaa, 0xdf, 0xdf, 0xdf, 0xf2, 0xaa, 0xc5, 0xcd, 0xc7, 0xa9, 0x0c, 0xc9, 0x2c, 0x97, 0xf1, 0xa9,
 326:MyHardWare/eMPL/inv_mpu_dmp_motion_driver.c ****     0x89, 0x26, 0x46, 0x66, 0xb2, 0x89, 0x99, 0xa9, 0x2d, 0x55, 0x7d, 0xb0, 0xb0, 0x8a, 0xa8, 0x96,
 327:MyHardWare/eMPL/inv_mpu_dmp_motion_driver.c ****     0x36, 0x56, 0x76, 0xf1, 0xba, 0xa3, 0xb4, 0xb2, 0x80, 0xc0, 0xb8, 0xa8, 0x97, 0x11, 0xb2, 0x83,
 328:MyHardWare/eMPL/inv_mpu_dmp_motion_driver.c ****     0x98, 0xba, 0xa3, 0xf0, 0x24, 0x08, 0x44, 0x10, 0x64, 0x18, 0xb2, 0xb9, 0xb4, 0x98, 0x83, 0xf1,
 329:MyHardWare/eMPL/inv_mpu_dmp_motion_driver.c ****     0xa3, 0x29, 0x55, 0x7d, 0xba, 0xb5, 0xb1, 0xa3, 0x83, 0x93, 0xf0, 0x00, 0x28, 0x50, 0xf5, 0xb2,
 330:MyHardWare/eMPL/inv_mpu_dmp_motion_driver.c ****     0xb6, 0xaa, 0x83, 0x93, 0x28, 0x54, 0x7c, 0xf1, 0xb9, 0xa3, 0x82, 0x93, 0x61, 0xba, 0xa2, 0xda,
 331:MyHardWare/eMPL/inv_mpu_dmp_motion_driver.c ****     0xde, 0xdf, 0xdb, 0x81, 0x9a, 0xb9, 0xae, 0xf5, 0x60, 0x68, 0x70, 0xf1, 0xda, 0xba, 0xa2, 0xdf,
 332:MyHardWare/eMPL/inv_mpu_dmp_motion_driver.c ****     0xd9, 0xba, 0xa2, 0xfa, 0xb9, 0xa3, 0x82, 0x92, 0xdb, 0x31, 0xba, 0xa2, 0xd9, 0xba, 0xa2, 0xf8,
 333:MyHardWare/eMPL/inv_mpu_dmp_motion_driver.c ****     0xdf, 0x85, 0xa4, 0xd0, 0xc1, 0xbb, 0xad, 0x83, 0xc2, 0xc5, 0xc7, 0xb8, 0xa2, 0xdf, 0xdf, 0xdf,
 334:MyHardWare/eMPL/inv_mpu_dmp_motion_driver.c ****     0xba, 0xa0, 0xdf, 0xdf, 0xdf, 0xd8, 0xd8, 0xf1, 0xb8, 0xaa, 0xb3, 0x8d, 0xb4, 0x98, 0x0d, 0x35,
 335:MyHardWare/eMPL/inv_mpu_dmp_motion_driver.c ****     0x5d, 0xb2, 0xb6, 0xba, 0xaf, 0x8c, 0x96, 0x19, 0x8f, 0x9f, 0xa7, 0x0e, 0x16, 0x1e, 0xb4, 0x9a,
 336:MyHardWare/eMPL/inv_mpu_dmp_motion_driver.c ****     0xb8, 0xaa, 0x87, 0x2c, 0x54, 0x7c, 0xba, 0xa4, 0xb0, 0x8a, 0xb6, 0x91, 0x32, 0x56, 0x76, 0xb2,
 337:MyHardWare/eMPL/inv_mpu_dmp_motion_driver.c ****     0x84, 0x94, 0xa4, 0xc8, 0x08, 0xcd, 0xd8, 0xb8, 0xb4, 0xb0, 0xf1, 0x99, 0x82, 0xa8, 0x2d, 0x55,
 338:MyHardWare/eMPL/inv_mpu_dmp_motion_driver.c ****     0x7d, 0x98, 0xa8, 0x0e, 0x16, 0x1e, 0xa2, 0x2c, 0x54, 0x7c, 0x92, 0xa4, 0xf0, 0x2c, 0x50, 0x78,
 339:MyHardWare/eMPL/inv_mpu_dmp_motion_driver.c ****     /* bank # 5 */
 340:MyHardWare/eMPL/inv_mpu_dmp_motion_driver.c ****     0xf1, 0x84, 0xa8, 0x98, 0xc4, 0xcd, 0xfc, 0xd8, 0x0d, 0xdb, 0xa8, 0xfc, 0x2d, 0xf3, 0xd9, 0xba,
 341:MyHardWare/eMPL/inv_mpu_dmp_motion_driver.c ****     0xa6, 0xf8, 0xda, 0xba, 0xa6, 0xde, 0xd8, 0xba, 0xb2, 0xb6, 0x86, 0x96, 0xa6, 0xd0, 0xf3, 0xc8,
 342:MyHardWare/eMPL/inv_mpu_dmp_motion_driver.c ****     0x41, 0xda, 0xa6, 0xc8, 0xf8, 0xd8, 0xb0, 0xb4, 0xb8, 0x82, 0xa8, 0x92, 0xf5, 0x2c, 0x54, 0x88,
 343:MyHardWare/eMPL/inv_mpu_dmp_motion_driver.c ****     0x98, 0xf1, 0x35, 0xd9, 0xf4, 0x18, 0xd8, 0xf1, 0xa2, 0xd0, 0xf8, 0xf9, 0xa8, 0x84, 0xd9, 0xc7,
 344:MyHardWare/eMPL/inv_mpu_dmp_motion_driver.c ****     0xdf, 0xf8, 0xf8, 0x83, 0xc5, 0xda, 0xdf, 0x69, 0xdf, 0x83, 0xc1, 0xd8, 0xf4, 0x01, 0x14, 0xf1,
 345:MyHardWare/eMPL/inv_mpu_dmp_motion_driver.c ****     0xa8, 0x82, 0x4e, 0xa8, 0x84, 0xf3, 0x11, 0xd1, 0x82, 0xf5, 0xd9, 0x92, 0x28, 0x97, 0x88, 0xf1,
 346:MyHardWare/eMPL/inv_mpu_dmp_motion_driver.c ****     0x09, 0xf4, 0x1c, 0x1c, 0xd8, 0x84, 0xa8, 0xf3, 0xc0, 0xf9, 0xd1, 0xd9, 0x97, 0x82, 0xf1, 0x29,
 347:MyHardWare/eMPL/inv_mpu_dmp_motion_driver.c ****     0xf4, 0x0d, 0xd8, 0xf3, 0xf9, 0xf9, 0xd1, 0xd9, 0x82, 0xf4, 0xc2, 0x03, 0xd8, 0xde, 0xdf, 0x1a,
 348:MyHardWare/eMPL/inv_mpu_dmp_motion_driver.c ****     0xd8, 0xf1, 0xa2, 0xfa, 0xf9, 0xa8, 0x84, 0x98, 0xd9, 0xc7, 0xdf, 0xf8, 0xf8, 0xf8, 0x83, 0xc7,
 349:MyHardWare/eMPL/inv_mpu_dmp_motion_driver.c ****     0xda, 0xdf, 0x69, 0xdf, 0xf8, 0x83, 0xc3, 0xd8, 0xf4, 0x01, 0x14, 0xf1, 0x98, 0xa8, 0x82, 0x2e,
 350:MyHardWare/eMPL/inv_mpu_dmp_motion_driver.c ****     0xa8, 0x84, 0xf3, 0x11, 0xd1, 0x82, 0xf5, 0xd9, 0x92, 0x50, 0x97, 0x88, 0xf1, 0x09, 0xf4, 0x1c,
 351:MyHardWare/eMPL/inv_mpu_dmp_motion_driver.c ****     0xd8, 0x84, 0xa8, 0xf3, 0xc0, 0xf8, 0xf9, 0xd1, 0xd9, 0x97, 0x82, 0xf1, 0x49, 0xf4, 0x0d, 0xd8,
 352:MyHardWare/eMPL/inv_mpu_dmp_motion_driver.c ****     0xf3, 0xf9, 0xf9, 0xd1, 0xd9, 0x82, 0xf4, 0xc4, 0x03, 0xd8, 0xde, 0xdf, 0xd8, 0xf1, 0xad, 0x88,
 353:MyHardWare/eMPL/inv_mpu_dmp_motion_driver.c ****     0x98, 0xcc, 0xa8, 0x09, 0xf9, 0xd9, 0x82, 0x92, 0xa8, 0xf5, 0x7c, 0xf1, 0x88, 0x3a, 0xcf, 0x94,
 354:MyHardWare/eMPL/inv_mpu_dmp_motion_driver.c ****     0x4a, 0x6e, 0x98, 0xdb, 0x69, 0x31, 0xda, 0xad, 0xf2, 0xde, 0xf9, 0xd8, 0x87, 0x95, 0xa8, 0xf2,
 355:MyHardWare/eMPL/inv_mpu_dmp_motion_driver.c ****     0x21, 0xd1, 0xda, 0xa5, 0xf9, 0xf4, 0x17, 0xd9, 0xf1, 0xae, 0x8e, 0xd0, 0xc0, 0xc3, 0xae, 0x82,
 356:MyHardWare/eMPL/inv_mpu_dmp_motion_driver.c ****     /* bank # 6 */
 357:MyHardWare/eMPL/inv_mpu_dmp_motion_driver.c ****     0xc6, 0x84, 0xc3, 0xa8, 0x85, 0x95, 0xc8, 0xa5, 0x88, 0xf2, 0xc0, 0xf1, 0xf4, 0x01, 0x0e, 0xf1,
 358:MyHardWare/eMPL/inv_mpu_dmp_motion_driver.c ****     0x8e, 0x9e, 0xa8, 0xc6, 0x3e, 0x56, 0xf5, 0x54, 0xf1, 0x88, 0x72, 0xf4, 0x01, 0x15, 0xf1, 0x98,
 359:MyHardWare/eMPL/inv_mpu_dmp_motion_driver.c ****     0x45, 0x85, 0x6e, 0xf5, 0x8e, 0x9e, 0x04, 0x88, 0xf1, 0x42, 0x98, 0x5a, 0x8e, 0x9e, 0x06, 0x88,
 360:MyHardWare/eMPL/inv_mpu_dmp_motion_driver.c ****     0x69, 0xf4, 0x01, 0x1c, 0xf1, 0x98, 0x1e, 0x11, 0x08, 0xd0, 0xf5, 0x04, 0xf1, 0x1e, 0x97, 0x02,
 361:MyHardWare/eMPL/inv_mpu_dmp_motion_driver.c ****     0x02, 0x98, 0x36, 0x25, 0xdb, 0xf9, 0xd9, 0x85, 0xa5, 0xf3, 0xc1, 0xda, 0x85, 0xa5, 0xf3, 0xdf,
 362:MyHardWare/eMPL/inv_mpu_dmp_motion_driver.c ****     0xd8, 0x85, 0x95, 0xa8, 0xf3, 0x09, 0xda, 0xa5, 0xfa, 0xd8, 0x82, 0x92, 0xa8, 0xf5, 0x78, 0xf1,
 363:MyHardWare/eMPL/inv_mpu_dmp_motion_driver.c ****     0x88, 0x1a, 0x84, 0x9f, 0x26, 0x88, 0x98, 0x21, 0xda, 0xf4, 0x1d, 0xf3, 0xd8, 0x87, 0x9f, 0x39,
 364:MyHardWare/eMPL/inv_mpu_dmp_motion_driver.c ****     0xd1, 0xaf, 0xd9, 0xdf, 0xdf, 0xfb, 0xf9, 0xf4, 0x0c, 0xf3, 0xd8, 0xfa, 0xd0, 0xf8, 0xda, 0xf9,
 365:MyHardWare/eMPL/inv_mpu_dmp_motion_driver.c ****     0xf9, 0xd0, 0xdf, 0xd9, 0xf9, 0xd8, 0xf4, 0x0b, 0xd8, 0xf3, 0x87, 0x9f, 0x39, 0xd1, 0xaf, 0xd9,
 366:MyHardWare/eMPL/inv_mpu_dmp_motion_driver.c ****     0xdf, 0xdf, 0xf4, 0x1d, 0xf3, 0xd8, 0xfa, 0xfc, 0xa8, 0x69, 0xf9, 0xf9, 0xaf, 0xd0, 0xda, 0xde,
 367:MyHardWare/eMPL/inv_mpu_dmp_motion_driver.c ****     0xfa, 0xd9, 0xf8, 0x8f, 0x9f, 0xa8, 0xf1, 0xcc, 0xf3, 0x98, 0xdb, 0x45, 0xd9, 0xaf, 0xdf, 0xd0,
 368:MyHardWare/eMPL/inv_mpu_dmp_motion_driver.c ****     0xf8, 0xd8, 0xf1, 0x8f, 0x9f, 0xa8, 0xca, 0xf3, 0x88, 0x09, 0xda, 0xaf, 0x8f, 0xcb, 0xf8, 0xd8,
 369:MyHardWare/eMPL/inv_mpu_dmp_motion_driver.c ****     0xf2, 0xad, 0x97, 0x8d, 0x0c, 0xd9, 0xa5, 0xdf, 0xf9, 0xba, 0xa6, 0xf3, 0xfa, 0xf4, 0x12, 0xf2,
 370:MyHardWare/eMPL/inv_mpu_dmp_motion_driver.c ****     0xd8, 0x95, 0x0d, 0xd1, 0xd9, 0xba, 0xa6, 0xf3, 0xfa, 0xda, 0xa5, 0xf2, 0xc1, 0xba, 0xa6, 0xf3,
 371:MyHardWare/eMPL/inv_mpu_dmp_motion_driver.c ****     0xdf, 0xd8, 0xf1, 0xba, 0xb2, 0xb6, 0x86, 0x96, 0xa6, 0xd0, 0xca, 0xf3, 0x49, 0xda, 0xa6, 0xcb,
 372:MyHardWare/eMPL/inv_mpu_dmp_motion_driver.c ****     0xf8, 0xd8, 0xb0, 0xb4, 0xb8, 0xd8, 0xad, 0x84, 0xf2, 0xc0, 0xdf, 0xf1, 0x8f, 0xcb, 0xc3, 0xa8,
ARM GAS  /tmp/cckrZnTL.s 			page 8


 373:MyHardWare/eMPL/inv_mpu_dmp_motion_driver.c ****     /* bank # 7 */
 374:MyHardWare/eMPL/inv_mpu_dmp_motion_driver.c ****     0xb2, 0xb6, 0x86, 0x96, 0xc8, 0xc1, 0xcb, 0xc3, 0xf3, 0xb0, 0xb4, 0x88, 0x98, 0xa8, 0x21, 0xdb,
 375:MyHardWare/eMPL/inv_mpu_dmp_motion_driver.c ****     0x71, 0x8d, 0x9d, 0x71, 0x85, 0x95, 0x21, 0xd9, 0xad, 0xf2, 0xfa, 0xd8, 0x85, 0x97, 0xa8, 0x28,
 376:MyHardWare/eMPL/inv_mpu_dmp_motion_driver.c ****     0xd9, 0xf4, 0x08, 0xd8, 0xf2, 0x8d, 0x29, 0xda, 0xf4, 0x05, 0xd9, 0xf2, 0x85, 0xa4, 0xc2, 0xf2,
 377:MyHardWare/eMPL/inv_mpu_dmp_motion_driver.c ****     0xd8, 0xa8, 0x8d, 0x94, 0x01, 0xd1, 0xd9, 0xf4, 0x11, 0xf2, 0xd8, 0x87, 0x21, 0xd8, 0xf4, 0x0a,
 378:MyHardWare/eMPL/inv_mpu_dmp_motion_driver.c ****     0xd8, 0xf2, 0x84, 0x98, 0xa8, 0xc8, 0x01, 0xd1, 0xd9, 0xf4, 0x11, 0xd8, 0xf3, 0xa4, 0xc8, 0xbb,
 379:MyHardWare/eMPL/inv_mpu_dmp_motion_driver.c ****     0xaf, 0xd0, 0xf2, 0xde, 0xf8, 0xf8, 0xf8, 0xf8, 0xf8, 0xf8, 0xf8, 0xf8, 0xd8, 0xf1, 0xb8, 0xf6,
 380:MyHardWare/eMPL/inv_mpu_dmp_motion_driver.c ****     0xb5, 0xb9, 0xb0, 0x8a, 0x95, 0xa3, 0xde, 0x3c, 0xa3, 0xd9, 0xf8, 0xd8, 0x5c, 0xa3, 0xd9, 0xf8,
 381:MyHardWare/eMPL/inv_mpu_dmp_motion_driver.c ****     0xd8, 0x7c, 0xa3, 0xd9, 0xf8, 0xd8, 0xf8, 0xf9, 0xd1, 0xa5, 0xd9, 0xdf, 0xda, 0xfa, 0xd8, 0xb1,
 382:MyHardWare/eMPL/inv_mpu_dmp_motion_driver.c ****     0x85, 0x30, 0xf7, 0xd9, 0xde, 0xd8, 0xf8, 0x30, 0xad, 0xda, 0xde, 0xd8, 0xf2, 0xb4, 0x8c, 0x99,
 383:MyHardWare/eMPL/inv_mpu_dmp_motion_driver.c ****     0xa3, 0x2d, 0x55, 0x7d, 0xa0, 0x83, 0xdf, 0xdf, 0xdf, 0xb5, 0x91, 0xa0, 0xf6, 0x29, 0xd9, 0xfb,
 384:MyHardWare/eMPL/inv_mpu_dmp_motion_driver.c ****     0xd8, 0xa0, 0xfc, 0x29, 0xd9, 0xfa, 0xd8, 0xa0, 0xd0, 0x51, 0xd9, 0xf8, 0xd8, 0xfc, 0x51, 0xd9,
 385:MyHardWare/eMPL/inv_mpu_dmp_motion_driver.c ****     0xf9, 0xd8, 0x79, 0xd9, 0xfb, 0xd8, 0xa0, 0xd0, 0xfc, 0x79, 0xd9, 0xfa, 0xd8, 0xa1, 0xf9, 0xf9,
 386:MyHardWare/eMPL/inv_mpu_dmp_motion_driver.c ****     0xf9, 0xf9, 0xf9, 0xa0, 0xda, 0xdf, 0xdf, 0xdf, 0xd8, 0xa1, 0xf8, 0xf8, 0xf8, 0xf8, 0xf8, 0xac,
 387:MyHardWare/eMPL/inv_mpu_dmp_motion_driver.c ****     0xde, 0xf8, 0xad, 0xde, 0x83, 0x93, 0xac, 0x2c, 0x54, 0x7c, 0xf1, 0xa8, 0xdf, 0xdf, 0xdf, 0xf6,
 388:MyHardWare/eMPL/inv_mpu_dmp_motion_driver.c ****     0x9d, 0x2c, 0xda, 0xa0, 0xdf, 0xd9, 0xfa, 0xdb, 0x2d, 0xf8, 0xd8, 0xa8, 0x50, 0xda, 0xa0, 0xd0,
 389:MyHardWare/eMPL/inv_mpu_dmp_motion_driver.c ****     0xde, 0xd9, 0xd0, 0xf8, 0xf8, 0xf8, 0xdb, 0x55, 0xf8, 0xd8, 0xa8, 0x78, 0xda, 0xa0, 0xd0, 0xdf,
 390:MyHardWare/eMPL/inv_mpu_dmp_motion_driver.c ****     /* bank # 8 */
 391:MyHardWare/eMPL/inv_mpu_dmp_motion_driver.c ****     0xd9, 0xd0, 0xfa, 0xf8, 0xf8, 0xf8, 0xf8, 0xdb, 0x7d, 0xf8, 0xd8, 0x9c, 0xa8, 0x8c, 0xf5, 0x30,
 392:MyHardWare/eMPL/inv_mpu_dmp_motion_driver.c ****     0xdb, 0x38, 0xd9, 0xd0, 0xde, 0xdf, 0xa0, 0xd0, 0xde, 0xdf, 0xd8, 0xa8, 0x48, 0xdb, 0x58, 0xd9,
 393:MyHardWare/eMPL/inv_mpu_dmp_motion_driver.c ****     0xdf, 0xd0, 0xde, 0xa0, 0xdf, 0xd0, 0xde, 0xd8, 0xa8, 0x68, 0xdb, 0x70, 0xd9, 0xdf, 0xdf, 0xa0,
 394:MyHardWare/eMPL/inv_mpu_dmp_motion_driver.c ****     0xdf, 0xdf, 0xd8, 0xf1, 0xa8, 0x88, 0x90, 0x2c, 0x54, 0x7c, 0x98, 0xa8, 0xd0, 0x5c, 0x38, 0xd1,
 395:MyHardWare/eMPL/inv_mpu_dmp_motion_driver.c ****     0xda, 0xf2, 0xae, 0x8c, 0xdf, 0xf9, 0xd8, 0xb0, 0x87, 0xa8, 0xc1, 0xc1, 0xb1, 0x88, 0xa8, 0xc6,
 396:MyHardWare/eMPL/inv_mpu_dmp_motion_driver.c ****     0xf9, 0xf9, 0xda, 0x36, 0xd8, 0xa8, 0xf9, 0xda, 0x36, 0xd8, 0xa8, 0xf9, 0xda, 0x36, 0xd8, 0xa8,
 397:MyHardWare/eMPL/inv_mpu_dmp_motion_driver.c ****     0xf9, 0xda, 0x36, 0xd8, 0xa8, 0xf9, 0xda, 0x36, 0xd8, 0xf7, 0x8d, 0x9d, 0xad, 0xf8, 0x18, 0xda,
 398:MyHardWare/eMPL/inv_mpu_dmp_motion_driver.c ****     0xf2, 0xae, 0xdf, 0xd8, 0xf7, 0xad, 0xfa, 0x30, 0xd9, 0xa4, 0xde, 0xf9, 0xd8, 0xf2, 0xae, 0xde,
 399:MyHardWare/eMPL/inv_mpu_dmp_motion_driver.c ****     0xfa, 0xf9, 0x83, 0xa7, 0xd9, 0xc3, 0xc5, 0xc7, 0xf1, 0x88, 0x9b, 0xa7, 0x7a, 0xad, 0xf7, 0xde,
 400:MyHardWare/eMPL/inv_mpu_dmp_motion_driver.c ****     0xdf, 0xa4, 0xf8, 0x84, 0x94, 0x08, 0xa7, 0x97, 0xf3, 0x00, 0xae, 0xf2, 0x98, 0x19, 0xa4, 0x88,
 401:MyHardWare/eMPL/inv_mpu_dmp_motion_driver.c ****     0xc6, 0xa3, 0x94, 0x88, 0xf6, 0x32, 0xdf, 0xf2, 0x83, 0x93, 0xdb, 0x09, 0xd9, 0xf2, 0xaa, 0xdf,
 402:MyHardWare/eMPL/inv_mpu_dmp_motion_driver.c ****     0xd8, 0xd8, 0xae, 0xf8, 0xf9, 0xd1, 0xda, 0xf3, 0xa4, 0xde, 0xa7, 0xf1, 0x88, 0x9b, 0x7a, 0xd8,
 403:MyHardWare/eMPL/inv_mpu_dmp_motion_driver.c ****     0xf3, 0x84, 0x94, 0xae, 0x19, 0xf9, 0xda, 0xaa, 0xf1, 0xdf, 0xd8, 0xa8, 0x81, 0xc0, 0xc3, 0xc5,
 404:MyHardWare/eMPL/inv_mpu_dmp_motion_driver.c ****     0xc7, 0xa3, 0x92, 0x83, 0xf6, 0x28, 0xad, 0xde, 0xd9, 0xf8, 0xd8, 0xa3, 0x50, 0xad, 0xd9, 0xf8,
 405:MyHardWare/eMPL/inv_mpu_dmp_motion_driver.c ****     0xd8, 0xa3, 0x78, 0xad, 0xd9, 0xf8, 0xd8, 0xf8, 0xf9, 0xd1, 0xa1, 0xda, 0xde, 0xc3, 0xc5, 0xc7,
 406:MyHardWare/eMPL/inv_mpu_dmp_motion_driver.c ****     0xd8, 0xa1, 0x81, 0x94, 0xf8, 0x18, 0xf2, 0xb0, 0x89, 0xac, 0xc3, 0xc5, 0xc7, 0xf1, 0xd8, 0xb8,
 407:MyHardWare/eMPL/inv_mpu_dmp_motion_driver.c ****     /* bank # 9 */
 408:MyHardWare/eMPL/inv_mpu_dmp_motion_driver.c ****     0xb4, 0xb0, 0x97, 0x86, 0xa8, 0x31, 0x9b, 0x06, 0x99, 0x07, 0xab, 0x97, 0x28, 0x88, 0x9b, 0xf0,
 409:MyHardWare/eMPL/inv_mpu_dmp_motion_driver.c ****     0x0c, 0x20, 0x14, 0x40, 0xb0, 0xb4, 0xb8, 0xf0, 0xa8, 0x8a, 0x9a, 0x28, 0x50, 0x78, 0xb7, 0x9b,
 410:MyHardWare/eMPL/inv_mpu_dmp_motion_driver.c ****     0xa8, 0x29, 0x51, 0x79, 0x24, 0x70, 0x59, 0x44, 0x69, 0x38, 0x64, 0x48, 0x31, 0xf1, 0xbb, 0xab,
 411:MyHardWare/eMPL/inv_mpu_dmp_motion_driver.c ****     0x88, 0x00, 0x2c, 0x54, 0x7c, 0xf0, 0xb3, 0x8b, 0xb8, 0xa8, 0x04, 0x28, 0x50, 0x78, 0xf1, 0xb0,
 412:MyHardWare/eMPL/inv_mpu_dmp_motion_driver.c ****     0x88, 0xb4, 0x97, 0x26, 0xa8, 0x59, 0x98, 0xbb, 0xab, 0xb3, 0x8b, 0x02, 0x26, 0x46, 0x66, 0xb0,
 413:MyHardWare/eMPL/inv_mpu_dmp_motion_driver.c ****     0xb8, 0xf0, 0x8a, 0x9c, 0xa8, 0x29, 0x51, 0x79, 0x8b, 0x29, 0x51, 0x79, 0x8a, 0x24, 0x70, 0x59,
 414:MyHardWare/eMPL/inv_mpu_dmp_motion_driver.c ****     0x8b, 0x20, 0x58, 0x71, 0x8a, 0x44, 0x69, 0x38, 0x8b, 0x39, 0x40, 0x68, 0x8a, 0x64, 0x48, 0x31,
 415:MyHardWare/eMPL/inv_mpu_dmp_motion_driver.c ****     0x8b, 0x30, 0x49, 0x60, 0x88, 0xf1, 0xac, 0x00, 0x2c, 0x54, 0x7c, 0xf0, 0x8c, 0xa8, 0x04, 0x28,
 416:MyHardWare/eMPL/inv_mpu_dmp_motion_driver.c ****     0x50, 0x78, 0xf1, 0x88, 0x97, 0x26, 0xa8, 0x59, 0x98, 0xac, 0x8c, 0x02, 0x26, 0x46, 0x66, 0xf0,
 417:MyHardWare/eMPL/inv_mpu_dmp_motion_driver.c ****     0x89, 0x9c, 0xa8, 0x29, 0x51, 0x79, 0x24, 0x70, 0x59, 0x44, 0x69, 0x38, 0x64, 0x48, 0x31, 0xa9,
 418:MyHardWare/eMPL/inv_mpu_dmp_motion_driver.c ****     0x88, 0x09, 0x20, 0x59, 0x70, 0xab, 0x11, 0x38, 0x40, 0x69, 0xa8, 0x19, 0x31, 0x48, 0x60, 0x8c,
 419:MyHardWare/eMPL/inv_mpu_dmp_motion_driver.c ****     0xa8, 0x3c, 0x41, 0x5c, 0x20, 0x7c, 0x00, 0xf1, 0x87, 0x98, 0x19, 0x86, 0xa8, 0x6e, 0x76, 0x7e,
 420:MyHardWare/eMPL/inv_mpu_dmp_motion_driver.c ****     0xa9, 0x99, 0x88, 0x2d, 0x55, 0x7d, 0xd8, 0xb1, 0xb5, 0xb9, 0xa3, 0xdf, 0xdf, 0xdf, 0xae, 0xd0,
 421:MyHardWare/eMPL/inv_mpu_dmp_motion_driver.c ****     0xdf, 0xaa, 0xd0, 0xde, 0xf2, 0xab, 0xf8, 0xf9, 0xd9, 0xb0, 0x87, 0xc4, 0xaa, 0xf1, 0xdf, 0xdf,
 422:MyHardWare/eMPL/inv_mpu_dmp_motion_driver.c ****     0xbb, 0xaf, 0xdf, 0xdf, 0xb9, 0xd8, 0xb1, 0xf1, 0xa3, 0x97, 0x8e, 0x60, 0xdf, 0xb0, 0x84, 0xf2,
 423:MyHardWare/eMPL/inv_mpu_dmp_motion_driver.c ****     0xc8, 0xf8, 0xf9, 0xd9, 0xde, 0xd8, 0x93, 0x85, 0xf1, 0x4a, 0xb1, 0x83, 0xa3, 0x08, 0xb5, 0x83,
 424:MyHardWare/eMPL/inv_mpu_dmp_motion_driver.c ****     /* bank # 10 */
 425:MyHardWare/eMPL/inv_mpu_dmp_motion_driver.c ****     0x9a, 0x08, 0x10, 0xb7, 0x9f, 0x10, 0xd8, 0xf1, 0xb0, 0xba, 0xae, 0xb0, 0x8a, 0xc2, 0xb2, 0xb6,
 426:MyHardWare/eMPL/inv_mpu_dmp_motion_driver.c ****     0x8e, 0x9e, 0xf1, 0xfb, 0xd9, 0xf4, 0x1d, 0xd8, 0xf9, 0xd9, 0x0c, 0xf1, 0xd8, 0xf8, 0xf8, 0xad,
 427:MyHardWare/eMPL/inv_mpu_dmp_motion_driver.c ****     0x61, 0xd9, 0xae, 0xfb, 0xd8, 0xf4, 0x0c, 0xf1, 0xd8, 0xf8, 0xf8, 0xad, 0x19, 0xd9, 0xae, 0xfb,
 428:MyHardWare/eMPL/inv_mpu_dmp_motion_driver.c ****     0xdf, 0xd8, 0xf4, 0x16, 0xf1, 0xd8, 0xf8, 0xad, 0x8d, 0x61, 0xd9, 0xf4, 0xf4, 0xac, 0xf5, 0x9c,
 429:MyHardWare/eMPL/inv_mpu_dmp_motion_driver.c ****     0x9c, 0x8d, 0xdf, 0x2b, 0xba, 0xb6, 0xae, 0xfa, 0xf8, 0xf4, 0x0b, 0xd8, 0xf1, 0xae, 0xd0, 0xf8,
ARM GAS  /tmp/cckrZnTL.s 			page 9


 430:MyHardWare/eMPL/inv_mpu_dmp_motion_driver.c ****     0xad, 0x51, 0xda, 0xae, 0xfa, 0xf8, 0xf1, 0xd8, 0xb9, 0xb1, 0xb6, 0xa3, 0x83, 0x9c, 0x08, 0xb9,
 431:MyHardWare/eMPL/inv_mpu_dmp_motion_driver.c ****     0xb1, 0x83, 0x9a, 0xb5, 0xaa, 0xc0, 0xfd, 0x30, 0x83, 0xb7, 0x9f, 0x10, 0xb5, 0x8b, 0x93, 0xf2,
 432:MyHardWare/eMPL/inv_mpu_dmp_motion_driver.c ****     0x02, 0x02, 0xd1, 0xab, 0xda, 0xde, 0xd8, 0xf1, 0xb0, 0x80, 0xba, 0xab, 0xc0, 0xc3, 0xb2, 0x84,
 433:MyHardWare/eMPL/inv_mpu_dmp_motion_driver.c ****     0xc1, 0xc3, 0xd8, 0xb1, 0xb9, 0xf3, 0x8b, 0xa3, 0x91, 0xb6, 0x09, 0xb4, 0xd9, 0xab, 0xde, 0xb0,
 434:MyHardWare/eMPL/inv_mpu_dmp_motion_driver.c ****     0x87, 0x9c, 0xb9, 0xa3, 0xdd, 0xf1, 0xb3, 0x8b, 0x8b, 0x8b, 0x8b, 0x8b, 0xb0, 0x87, 0xa3, 0xa3,
 435:MyHardWare/eMPL/inv_mpu_dmp_motion_driver.c ****     0xa3, 0xa3, 0xb2, 0x8b, 0xb6, 0x9b, 0xf2, 0xa3, 0xa3, 0xa3, 0xa3, 0xa3, 0xa3, 0xa3, 0xa3, 0xa3,
 436:MyHardWare/eMPL/inv_mpu_dmp_motion_driver.c ****     0xa3, 0xf1, 0xb0, 0x87, 0xb5, 0x9a, 0xa3, 0xf3, 0x9b, 0xa3, 0xa3, 0xdc, 0xba, 0xac, 0xdf, 0xb9,
 437:MyHardWare/eMPL/inv_mpu_dmp_motion_driver.c ****     0xa3, 0xa3, 0xa3, 0xa3, 0xa3, 0xa3, 0xa3, 0xa3, 0xa3, 0xa3, 0xa3, 0xa3, 0xa3, 0xa3, 0xa3, 0xa3,
 438:MyHardWare/eMPL/inv_mpu_dmp_motion_driver.c ****     0xd8, 0xd8, 0xd8, 0xbb, 0xb3, 0xb7, 0xf1, 0xaa, 0xf9, 0xda, 0xff, 0xd9, 0x80, 0x9a, 0xaa, 0x28,
 439:MyHardWare/eMPL/inv_mpu_dmp_motion_driver.c ****     0xb4, 0x80, 0x98, 0xa7, 0x20, 0xb7, 0x97, 0x87, 0xa8, 0x66, 0x88, 0xf0, 0x79, 0x51, 0xf1, 0x90,
 440:MyHardWare/eMPL/inv_mpu_dmp_motion_driver.c ****     0x2c, 0x87, 0x0c, 0xa7, 0x81, 0x97, 0x62, 0x93, 0xf0, 0x71, 0x71, 0x60, 0x85, 0x94, 0x01, 0x29,
 441:MyHardWare/eMPL/inv_mpu_dmp_motion_driver.c ****     /* bank # 11 */
 442:MyHardWare/eMPL/inv_mpu_dmp_motion_driver.c ****     0x51, 0x79, 0x90, 0xa5, 0xf1, 0x28, 0x4c, 0x6c, 0x87, 0x0c, 0x95, 0x18, 0x85, 0x78, 0xa3, 0x83,
 443:MyHardWare/eMPL/inv_mpu_dmp_motion_driver.c ****     0x90, 0x28, 0x4c, 0x6c, 0x88, 0x6c, 0xd8, 0xf3, 0xa2, 0x82, 0x00, 0xf2, 0x10, 0xa8, 0x92, 0x19,
 444:MyHardWare/eMPL/inv_mpu_dmp_motion_driver.c ****     0x80, 0xa2, 0xf2, 0xd9, 0x26, 0xd8, 0xf1, 0x88, 0xa8, 0x4d, 0xd9, 0x48, 0xd8, 0x96, 0xa8, 0x39,
 445:MyHardWare/eMPL/inv_mpu_dmp_motion_driver.c ****     0x80, 0xd9, 0x3c, 0xd8, 0x95, 0x80, 0xa8, 0x39, 0xa6, 0x86, 0x98, 0xd9, 0x2c, 0xda, 0x87, 0xa7,
 446:MyHardWare/eMPL/inv_mpu_dmp_motion_driver.c ****     0x2c, 0xd8, 0xa8, 0x89, 0x95, 0x19, 0xa9, 0x80, 0xd9, 0x38, 0xd8, 0xa8, 0x89, 0x39, 0xa9, 0x80,
 447:MyHardWare/eMPL/inv_mpu_dmp_motion_driver.c ****     0xda, 0x3c, 0xd8, 0xa8, 0x2e, 0xa8, 0x39, 0x90, 0xd9, 0x0c, 0xd8, 0xa8, 0x95, 0x31, 0x98, 0xd9,
 448:MyHardWare/eMPL/inv_mpu_dmp_motion_driver.c ****     0x0c, 0xd8, 0xa8, 0x09, 0xd9, 0xff, 0xd8, 0x01, 0xda, 0xff, 0xd8, 0x95, 0x39, 0xa9, 0xda, 0x26,
 449:MyHardWare/eMPL/inv_mpu_dmp_motion_driver.c ****     0xff, 0xd8, 0x90, 0xa8, 0x0d, 0x89, 0x99, 0xa8, 0x10, 0x80, 0x98, 0x21, 0xda, 0x2e, 0xd8, 0x89,
 450:MyHardWare/eMPL/inv_mpu_dmp_motion_driver.c ****     0x99, 0xa8, 0x31, 0x80, 0xda, 0x2e, 0xd8, 0xa8, 0x86, 0x96, 0x31, 0x80, 0xda, 0x2e, 0xd8, 0xa8,
 451:MyHardWare/eMPL/inv_mpu_dmp_motion_driver.c ****     0x87, 0x31, 0x80, 0xda, 0x2e, 0xd8, 0xa8, 0x82, 0x92, 0xf3, 0x41, 0x80, 0xf1, 0xd9, 0x2e, 0xd8,
 452:MyHardWare/eMPL/inv_mpu_dmp_motion_driver.c ****     0xa8, 0x82, 0xf3, 0x19, 0x80, 0xf1, 0xd9, 0x2e, 0xd8, 0x82, 0xac, 0xf3, 0xc0, 0xa2, 0x80, 0x22,
 453:MyHardWare/eMPL/inv_mpu_dmp_motion_driver.c ****     0xf1, 0xa6, 0x2e, 0xa7, 0x2e, 0xa9, 0x22, 0x98, 0xa8, 0x29, 0xda, 0xac, 0xde, 0xff, 0xd8, 0xa2,
 454:MyHardWare/eMPL/inv_mpu_dmp_motion_driver.c ****     0xf2, 0x2a, 0xf1, 0xa9, 0x2e, 0x82, 0x92, 0xa8, 0xf2, 0x31, 0x80, 0xa6, 0x96, 0xf1, 0xd9, 0x00,
 455:MyHardWare/eMPL/inv_mpu_dmp_motion_driver.c ****     0xac, 0x8c, 0x9c, 0x0c, 0x30, 0xac, 0xde, 0xd0, 0xde, 0xff, 0xd8, 0x8c, 0x9c, 0xac, 0xd0, 0x10,
 456:MyHardWare/eMPL/inv_mpu_dmp_motion_driver.c ****     0xac, 0xde, 0x80, 0x92, 0xa2, 0xf2, 0x4c, 0x82, 0xa8, 0xf1, 0xca, 0xf2, 0x35, 0xf1, 0x96, 0x88,
 457:MyHardWare/eMPL/inv_mpu_dmp_motion_driver.c ****     0xa6, 0xd9, 0x00, 0xd8, 0xf1, 0xff
 458:MyHardWare/eMPL/inv_mpu_dmp_motion_driver.c **** };
 459:MyHardWare/eMPL/inv_mpu_dmp_motion_driver.c **** 
 460:MyHardWare/eMPL/inv_mpu_dmp_motion_driver.c **** static const unsigned short sStartAddress = 0x0400;
 461:MyHardWare/eMPL/inv_mpu_dmp_motion_driver.c **** 
 462:MyHardWare/eMPL/inv_mpu_dmp_motion_driver.c **** /* END OF SECTION COPIED FROM dmpDefaultMPU6050.c */
 463:MyHardWare/eMPL/inv_mpu_dmp_motion_driver.c **** 
 464:MyHardWare/eMPL/inv_mpu_dmp_motion_driver.c **** #define INT_SRC_TAP             (0x01)
 465:MyHardWare/eMPL/inv_mpu_dmp_motion_driver.c **** #define INT_SRC_ANDROID_ORIENT  (0x08)
 466:MyHardWare/eMPL/inv_mpu_dmp_motion_driver.c **** 
 467:MyHardWare/eMPL/inv_mpu_dmp_motion_driver.c **** #define DMP_FEATURE_SEND_ANY_GYRO   (DMP_FEATURE_SEND_RAW_GYRO | \
 468:MyHardWare/eMPL/inv_mpu_dmp_motion_driver.c ****                                      DMP_FEATURE_SEND_CAL_GYRO)
 469:MyHardWare/eMPL/inv_mpu_dmp_motion_driver.c **** 
 470:MyHardWare/eMPL/inv_mpu_dmp_motion_driver.c **** #define MAX_PACKET_LENGTH   (32)
 471:MyHardWare/eMPL/inv_mpu_dmp_motion_driver.c **** 
 472:MyHardWare/eMPL/inv_mpu_dmp_motion_driver.c **** #define DMP_SAMPLE_RATE     (200)
 473:MyHardWare/eMPL/inv_mpu_dmp_motion_driver.c **** #define GYRO_SF             (46850825LL * 200 / DMP_SAMPLE_RATE)
 474:MyHardWare/eMPL/inv_mpu_dmp_motion_driver.c **** 
 475:MyHardWare/eMPL/inv_mpu_dmp_motion_driver.c **** #define FIFO_CORRUPTION_CHECK
 476:MyHardWare/eMPL/inv_mpu_dmp_motion_driver.c **** #ifdef FIFO_CORRUPTION_CHECK
 477:MyHardWare/eMPL/inv_mpu_dmp_motion_driver.c **** #define QUAT_ERROR_THRESH       (1L<<24)
 478:MyHardWare/eMPL/inv_mpu_dmp_motion_driver.c **** #define QUAT_MAG_SQ_NORMALIZED  (1L<<28)
 479:MyHardWare/eMPL/inv_mpu_dmp_motion_driver.c **** #define QUAT_MAG_SQ_MIN         (QUAT_MAG_SQ_NORMALIZED - QUAT_ERROR_THRESH)
 480:MyHardWare/eMPL/inv_mpu_dmp_motion_driver.c **** #define QUAT_MAG_SQ_MAX         (QUAT_MAG_SQ_NORMALIZED + QUAT_ERROR_THRESH)
 481:MyHardWare/eMPL/inv_mpu_dmp_motion_driver.c **** #endif
 482:MyHardWare/eMPL/inv_mpu_dmp_motion_driver.c **** 
 483:MyHardWare/eMPL/inv_mpu_dmp_motion_driver.c **** struct dmp_s {
 484:MyHardWare/eMPL/inv_mpu_dmp_motion_driver.c ****     void (*tap_cb)(unsigned char count, unsigned char direction);
 485:MyHardWare/eMPL/inv_mpu_dmp_motion_driver.c ****     void (*android_orient_cb)(unsigned char orientation);
 486:MyHardWare/eMPL/inv_mpu_dmp_motion_driver.c ****     unsigned short orient;
ARM GAS  /tmp/cckrZnTL.s 			page 10


 487:MyHardWare/eMPL/inv_mpu_dmp_motion_driver.c ****     unsigned short feature_mask;
 488:MyHardWare/eMPL/inv_mpu_dmp_motion_driver.c ****     unsigned short fifo_rate;
 489:MyHardWare/eMPL/inv_mpu_dmp_motion_driver.c ****     unsigned char packet_length;
 490:MyHardWare/eMPL/inv_mpu_dmp_motion_driver.c **** };
 491:MyHardWare/eMPL/inv_mpu_dmp_motion_driver.c **** 
 492:MyHardWare/eMPL/inv_mpu_dmp_motion_driver.c **** //static struct dmp_s dmp = {
 493:MyHardWare/eMPL/inv_mpu_dmp_motion_driver.c **** //    .tap_cb = NULL,
 494:MyHardWare/eMPL/inv_mpu_dmp_motion_driver.c **** //    .android_orient_cb = NULL,
 495:MyHardWare/eMPL/inv_mpu_dmp_motion_driver.c **** //    .orient = 0,
 496:MyHardWare/eMPL/inv_mpu_dmp_motion_driver.c **** //    .feature_mask = 0,
 497:MyHardWare/eMPL/inv_mpu_dmp_motion_driver.c **** //    .fifo_rate = 0,
 498:MyHardWare/eMPL/inv_mpu_dmp_motion_driver.c **** //    .packet_length = 0
 499:MyHardWare/eMPL/inv_mpu_dmp_motion_driver.c **** //};
 500:MyHardWare/eMPL/inv_mpu_dmp_motion_driver.c **** 
 501:MyHardWare/eMPL/inv_mpu_dmp_motion_driver.c **** static struct dmp_s dmp={
 502:MyHardWare/eMPL/inv_mpu_dmp_motion_driver.c ****   NULL,
 503:MyHardWare/eMPL/inv_mpu_dmp_motion_driver.c ****   NULL,
 504:MyHardWare/eMPL/inv_mpu_dmp_motion_driver.c ****   0,
 505:MyHardWare/eMPL/inv_mpu_dmp_motion_driver.c ****   0,
 506:MyHardWare/eMPL/inv_mpu_dmp_motion_driver.c ****   0,
 507:MyHardWare/eMPL/inv_mpu_dmp_motion_driver.c ****   0
 508:MyHardWare/eMPL/inv_mpu_dmp_motion_driver.c **** };
 509:MyHardWare/eMPL/inv_mpu_dmp_motion_driver.c **** 
 510:MyHardWare/eMPL/inv_mpu_dmp_motion_driver.c **** /**
 511:MyHardWare/eMPL/inv_mpu_dmp_motion_driver.c ****  *  @brief  Load the DMP with this image.
 512:MyHardWare/eMPL/inv_mpu_dmp_motion_driver.c ****  *  @return 0 if successful.
 513:MyHardWare/eMPL/inv_mpu_dmp_motion_driver.c ****  */
 514:MyHardWare/eMPL/inv_mpu_dmp_motion_driver.c **** int dmp_load_motion_driver_firmware(void)
 515:MyHardWare/eMPL/inv_mpu_dmp_motion_driver.c **** {
 516:MyHardWare/eMPL/inv_mpu_dmp_motion_driver.c ****     return mpu_load_firmware(DMP_CODE_SIZE, dmp_memory, sStartAddress,
 517:MyHardWare/eMPL/inv_mpu_dmp_motion_driver.c ****         DMP_SAMPLE_RATE);
 518:MyHardWare/eMPL/inv_mpu_dmp_motion_driver.c **** }
 519:MyHardWare/eMPL/inv_mpu_dmp_motion_driver.c **** 
 520:MyHardWare/eMPL/inv_mpu_dmp_motion_driver.c **** /**
 521:MyHardWare/eMPL/inv_mpu_dmp_motion_driver.c ****  *  @brief      Push gyro and accel orientation to the DMP.
 522:MyHardWare/eMPL/inv_mpu_dmp_motion_driver.c ****  *  The orientation is represented here as the output of
 523:MyHardWare/eMPL/inv_mpu_dmp_motion_driver.c ****  *  @e inv_orientation_matrix_to_scalar.
 524:MyHardWare/eMPL/inv_mpu_dmp_motion_driver.c ****  *  @param[in]  orient  Gyro and accel orientation in body frame.
 525:MyHardWare/eMPL/inv_mpu_dmp_motion_driver.c ****  *  @return     0 if successful.
 526:MyHardWare/eMPL/inv_mpu_dmp_motion_driver.c ****  */
 527:MyHardWare/eMPL/inv_mpu_dmp_motion_driver.c **** int dmp_set_orientation(unsigned short orient)
 528:MyHardWare/eMPL/inv_mpu_dmp_motion_driver.c **** {
 529:MyHardWare/eMPL/inv_mpu_dmp_motion_driver.c ****     unsigned char gyro_regs[3], accel_regs[3];
 530:MyHardWare/eMPL/inv_mpu_dmp_motion_driver.c ****     const unsigned char gyro_axes[3] = {DINA4C, DINACD, DINA6C};
 531:MyHardWare/eMPL/inv_mpu_dmp_motion_driver.c ****     const unsigned char accel_axes[3] = {DINA0C, DINAC9, DINA2C};
 532:MyHardWare/eMPL/inv_mpu_dmp_motion_driver.c ****     const unsigned char gyro_sign[3] = {DINA36, DINA56, DINA76};
 533:MyHardWare/eMPL/inv_mpu_dmp_motion_driver.c ****     const unsigned char accel_sign[3] = {DINA26, DINA46, DINA66};
 534:MyHardWare/eMPL/inv_mpu_dmp_motion_driver.c **** 
 535:MyHardWare/eMPL/inv_mpu_dmp_motion_driver.c ****     gyro_regs[0] = gyro_axes[orient & 3];
 536:MyHardWare/eMPL/inv_mpu_dmp_motion_driver.c ****     gyro_regs[1] = gyro_axes[(orient >> 3) & 3];
 537:MyHardWare/eMPL/inv_mpu_dmp_motion_driver.c ****     gyro_regs[2] = gyro_axes[(orient >> 6) & 3];
 538:MyHardWare/eMPL/inv_mpu_dmp_motion_driver.c ****     accel_regs[0] = accel_axes[orient & 3];
 539:MyHardWare/eMPL/inv_mpu_dmp_motion_driver.c ****     accel_regs[1] = accel_axes[(orient >> 3) & 3];
 540:MyHardWare/eMPL/inv_mpu_dmp_motion_driver.c ****     accel_regs[2] = accel_axes[(orient >> 6) & 3];
 541:MyHardWare/eMPL/inv_mpu_dmp_motion_driver.c **** 
 542:MyHardWare/eMPL/inv_mpu_dmp_motion_driver.c ****     /* Chip-to-body, axes only. */
 543:MyHardWare/eMPL/inv_mpu_dmp_motion_driver.c ****     if (mpu_write_mem(FCFG_1, 3, gyro_regs))
ARM GAS  /tmp/cckrZnTL.s 			page 11


 544:MyHardWare/eMPL/inv_mpu_dmp_motion_driver.c ****         return -1;
 545:MyHardWare/eMPL/inv_mpu_dmp_motion_driver.c ****     if (mpu_write_mem(FCFG_2, 3, accel_regs))
 546:MyHardWare/eMPL/inv_mpu_dmp_motion_driver.c ****         return -1;
 547:MyHardWare/eMPL/inv_mpu_dmp_motion_driver.c **** 
 548:MyHardWare/eMPL/inv_mpu_dmp_motion_driver.c ****     memcpy(gyro_regs, gyro_sign, 3);
 549:MyHardWare/eMPL/inv_mpu_dmp_motion_driver.c ****     memcpy(accel_regs, accel_sign, 3);
 550:MyHardWare/eMPL/inv_mpu_dmp_motion_driver.c ****     if (orient & 4) {
 551:MyHardWare/eMPL/inv_mpu_dmp_motion_driver.c ****         gyro_regs[0] |= 1;
 552:MyHardWare/eMPL/inv_mpu_dmp_motion_driver.c ****         accel_regs[0] |= 1;
 553:MyHardWare/eMPL/inv_mpu_dmp_motion_driver.c ****     }
 554:MyHardWare/eMPL/inv_mpu_dmp_motion_driver.c ****     if (orient & 0x20) {
 555:MyHardWare/eMPL/inv_mpu_dmp_motion_driver.c ****         gyro_regs[1] |= 1;
 556:MyHardWare/eMPL/inv_mpu_dmp_motion_driver.c ****         accel_regs[1] |= 1;
 557:MyHardWare/eMPL/inv_mpu_dmp_motion_driver.c ****     }
 558:MyHardWare/eMPL/inv_mpu_dmp_motion_driver.c ****     if (orient & 0x100) {
 559:MyHardWare/eMPL/inv_mpu_dmp_motion_driver.c ****         gyro_regs[2] |= 1;
 560:MyHardWare/eMPL/inv_mpu_dmp_motion_driver.c ****         accel_regs[2] |= 1;
 561:MyHardWare/eMPL/inv_mpu_dmp_motion_driver.c ****     }
 562:MyHardWare/eMPL/inv_mpu_dmp_motion_driver.c **** 
 563:MyHardWare/eMPL/inv_mpu_dmp_motion_driver.c ****     /* Chip-to-body, sign only. */
 564:MyHardWare/eMPL/inv_mpu_dmp_motion_driver.c ****     if (mpu_write_mem(FCFG_3, 3, gyro_regs))
 565:MyHardWare/eMPL/inv_mpu_dmp_motion_driver.c ****         return -1;
 566:MyHardWare/eMPL/inv_mpu_dmp_motion_driver.c ****     if (mpu_write_mem(FCFG_7, 3, accel_regs))
 567:MyHardWare/eMPL/inv_mpu_dmp_motion_driver.c ****         return -1;
 568:MyHardWare/eMPL/inv_mpu_dmp_motion_driver.c ****     dmp.orient = orient;
 569:MyHardWare/eMPL/inv_mpu_dmp_motion_driver.c ****     return 0;
 570:MyHardWare/eMPL/inv_mpu_dmp_motion_driver.c **** }
 571:MyHardWare/eMPL/inv_mpu_dmp_motion_driver.c **** 
 572:MyHardWare/eMPL/inv_mpu_dmp_motion_driver.c **** /**
 573:MyHardWare/eMPL/inv_mpu_dmp_motion_driver.c ****  *  @brief      Push gyro biases to the DMP.
 574:MyHardWare/eMPL/inv_mpu_dmp_motion_driver.c ****  *  Because the gyro integration is handled in the DMP, any gyro biases
 575:MyHardWare/eMPL/inv_mpu_dmp_motion_driver.c ****  *  calculated by the MPL should be pushed down to DMP memory to remove
 576:MyHardWare/eMPL/inv_mpu_dmp_motion_driver.c ****  *  3-axis quaternion drift.
 577:MyHardWare/eMPL/inv_mpu_dmp_motion_driver.c ****  *  \n NOTE: If the DMP-based gyro calibration is enabled, the DMP will
 578:MyHardWare/eMPL/inv_mpu_dmp_motion_driver.c ****  *  overwrite the biases written to this location once a new one is computed.
 579:MyHardWare/eMPL/inv_mpu_dmp_motion_driver.c ****  *  @param[in]  bias    Gyro biases in q16.
 580:MyHardWare/eMPL/inv_mpu_dmp_motion_driver.c ****  *  @return     0 if successful.
 581:MyHardWare/eMPL/inv_mpu_dmp_motion_driver.c ****  */
 582:MyHardWare/eMPL/inv_mpu_dmp_motion_driver.c **** int dmp_set_gyro_bias(long *bias)
 583:MyHardWare/eMPL/inv_mpu_dmp_motion_driver.c **** {
 584:MyHardWare/eMPL/inv_mpu_dmp_motion_driver.c ****     long gyro_bias_body[3];
 585:MyHardWare/eMPL/inv_mpu_dmp_motion_driver.c ****     unsigned char regs[4];
 586:MyHardWare/eMPL/inv_mpu_dmp_motion_driver.c **** 
 587:MyHardWare/eMPL/inv_mpu_dmp_motion_driver.c ****     gyro_bias_body[0] = bias[dmp.orient & 3];
 588:MyHardWare/eMPL/inv_mpu_dmp_motion_driver.c ****     if (dmp.orient & 4)
 589:MyHardWare/eMPL/inv_mpu_dmp_motion_driver.c ****         gyro_bias_body[0] *= -1;
 590:MyHardWare/eMPL/inv_mpu_dmp_motion_driver.c ****     gyro_bias_body[1] = bias[(dmp.orient >> 3) & 3];
 591:MyHardWare/eMPL/inv_mpu_dmp_motion_driver.c ****     if (dmp.orient & 0x20)
 592:MyHardWare/eMPL/inv_mpu_dmp_motion_driver.c ****         gyro_bias_body[1] *= -1;
 593:MyHardWare/eMPL/inv_mpu_dmp_motion_driver.c ****     gyro_bias_body[2] = bias[(dmp.orient >> 6) & 3];
 594:MyHardWare/eMPL/inv_mpu_dmp_motion_driver.c ****     if (dmp.orient & 0x100)
 595:MyHardWare/eMPL/inv_mpu_dmp_motion_driver.c ****         gyro_bias_body[2] *= -1;
 596:MyHardWare/eMPL/inv_mpu_dmp_motion_driver.c **** 
 597:MyHardWare/eMPL/inv_mpu_dmp_motion_driver.c **** #ifdef EMPL_NO_64BIT
 598:MyHardWare/eMPL/inv_mpu_dmp_motion_driver.c ****     gyro_bias_body[0] = (long)(((float)gyro_bias_body[0] * GYRO_SF) / 1073741824.f);
 599:MyHardWare/eMPL/inv_mpu_dmp_motion_driver.c ****     gyro_bias_body[1] = (long)(((float)gyro_bias_body[1] * GYRO_SF) / 1073741824.f);
 600:MyHardWare/eMPL/inv_mpu_dmp_motion_driver.c ****     gyro_bias_body[2] = (long)(((float)gyro_bias_body[2] * GYRO_SF) / 1073741824.f);
ARM GAS  /tmp/cckrZnTL.s 			page 12


 601:MyHardWare/eMPL/inv_mpu_dmp_motion_driver.c **** #else
 602:MyHardWare/eMPL/inv_mpu_dmp_motion_driver.c ****     gyro_bias_body[0] = (long)(((long long)gyro_bias_body[0] * GYRO_SF) >> 30);
 603:MyHardWare/eMPL/inv_mpu_dmp_motion_driver.c ****     gyro_bias_body[1] = (long)(((long long)gyro_bias_body[1] * GYRO_SF) >> 30);
 604:MyHardWare/eMPL/inv_mpu_dmp_motion_driver.c ****     gyro_bias_body[2] = (long)(((long long)gyro_bias_body[2] * GYRO_SF) >> 30);
 605:MyHardWare/eMPL/inv_mpu_dmp_motion_driver.c **** #endif
 606:MyHardWare/eMPL/inv_mpu_dmp_motion_driver.c **** 
 607:MyHardWare/eMPL/inv_mpu_dmp_motion_driver.c ****     regs[0] = (unsigned char)((gyro_bias_body[0] >> 24) & 0xFF);
 608:MyHardWare/eMPL/inv_mpu_dmp_motion_driver.c ****     regs[1] = (unsigned char)((gyro_bias_body[0] >> 16) & 0xFF);
 609:MyHardWare/eMPL/inv_mpu_dmp_motion_driver.c ****     regs[2] = (unsigned char)((gyro_bias_body[0] >> 8) & 0xFF);
 610:MyHardWare/eMPL/inv_mpu_dmp_motion_driver.c ****     regs[3] = (unsigned char)(gyro_bias_body[0] & 0xFF);
 611:MyHardWare/eMPL/inv_mpu_dmp_motion_driver.c ****     if (mpu_write_mem(D_EXT_GYRO_BIAS_X, 4, regs))
 612:MyHardWare/eMPL/inv_mpu_dmp_motion_driver.c ****         return -1;
 613:MyHardWare/eMPL/inv_mpu_dmp_motion_driver.c **** 
 614:MyHardWare/eMPL/inv_mpu_dmp_motion_driver.c ****     regs[0] = (unsigned char)((gyro_bias_body[1] >> 24) & 0xFF);
 615:MyHardWare/eMPL/inv_mpu_dmp_motion_driver.c ****     regs[1] = (unsigned char)((gyro_bias_body[1] >> 16) & 0xFF);
 616:MyHardWare/eMPL/inv_mpu_dmp_motion_driver.c ****     regs[2] = (unsigned char)((gyro_bias_body[1] >> 8) & 0xFF);
 617:MyHardWare/eMPL/inv_mpu_dmp_motion_driver.c ****     regs[3] = (unsigned char)(gyro_bias_body[1] & 0xFF);
 618:MyHardWare/eMPL/inv_mpu_dmp_motion_driver.c ****     if (mpu_write_mem(D_EXT_GYRO_BIAS_Y, 4, regs))
 619:MyHardWare/eMPL/inv_mpu_dmp_motion_driver.c ****         return -1;
 620:MyHardWare/eMPL/inv_mpu_dmp_motion_driver.c **** 
 621:MyHardWare/eMPL/inv_mpu_dmp_motion_driver.c ****     regs[0] = (unsigned char)((gyro_bias_body[2] >> 24) & 0xFF);
 622:MyHardWare/eMPL/inv_mpu_dmp_motion_driver.c ****     regs[1] = (unsigned char)((gyro_bias_body[2] >> 16) & 0xFF);
 623:MyHardWare/eMPL/inv_mpu_dmp_motion_driver.c ****     regs[2] = (unsigned char)((gyro_bias_body[2] >> 8) & 0xFF);
 624:MyHardWare/eMPL/inv_mpu_dmp_motion_driver.c ****     regs[3] = (unsigned char)(gyro_bias_body[2] & 0xFF);
 625:MyHardWare/eMPL/inv_mpu_dmp_motion_driver.c ****     return mpu_write_mem(D_EXT_GYRO_BIAS_Z, 4, regs);
 626:MyHardWare/eMPL/inv_mpu_dmp_motion_driver.c **** }
 627:MyHardWare/eMPL/inv_mpu_dmp_motion_driver.c **** 
 628:MyHardWare/eMPL/inv_mpu_dmp_motion_driver.c **** /**
 629:MyHardWare/eMPL/inv_mpu_dmp_motion_driver.c ****  *  @brief      Push accel biases to the DMP.
 630:MyHardWare/eMPL/inv_mpu_dmp_motion_driver.c ****  *  These biases will be removed from the DMP 6-axis quaternion.
 631:MyHardWare/eMPL/inv_mpu_dmp_motion_driver.c ****  *  @param[in]  bias    Accel biases in q16.
 632:MyHardWare/eMPL/inv_mpu_dmp_motion_driver.c ****  *  @return     0 if successful.
 633:MyHardWare/eMPL/inv_mpu_dmp_motion_driver.c ****  */
 634:MyHardWare/eMPL/inv_mpu_dmp_motion_driver.c **** int dmp_set_accel_bias(long *bias)
 635:MyHardWare/eMPL/inv_mpu_dmp_motion_driver.c **** {
 636:MyHardWare/eMPL/inv_mpu_dmp_motion_driver.c ****     long accel_bias_body[3];
 637:MyHardWare/eMPL/inv_mpu_dmp_motion_driver.c ****     unsigned char regs[12];
 638:MyHardWare/eMPL/inv_mpu_dmp_motion_driver.c ****     long long accel_sf;
 639:MyHardWare/eMPL/inv_mpu_dmp_motion_driver.c ****     unsigned short accel_sens;
 640:MyHardWare/eMPL/inv_mpu_dmp_motion_driver.c **** 
 641:MyHardWare/eMPL/inv_mpu_dmp_motion_driver.c ****     mpu_get_accel_sens(&accel_sens);
 642:MyHardWare/eMPL/inv_mpu_dmp_motion_driver.c ****     accel_sf = (long long)accel_sens << 15;
 643:MyHardWare/eMPL/inv_mpu_dmp_motion_driver.c ****     //__no_operation();
 644:MyHardWare/eMPL/inv_mpu_dmp_motion_driver.c **** 
 645:MyHardWare/eMPL/inv_mpu_dmp_motion_driver.c ****     accel_bias_body[0] = bias[dmp.orient & 3];
 646:MyHardWare/eMPL/inv_mpu_dmp_motion_driver.c ****     if (dmp.orient & 4)
 647:MyHardWare/eMPL/inv_mpu_dmp_motion_driver.c ****         accel_bias_body[0] *= -1;
 648:MyHardWare/eMPL/inv_mpu_dmp_motion_driver.c ****     accel_bias_body[1] = bias[(dmp.orient >> 3) & 3];
 649:MyHardWare/eMPL/inv_mpu_dmp_motion_driver.c ****     if (dmp.orient & 0x20)
 650:MyHardWare/eMPL/inv_mpu_dmp_motion_driver.c ****         accel_bias_body[1] *= -1;
 651:MyHardWare/eMPL/inv_mpu_dmp_motion_driver.c ****     accel_bias_body[2] = bias[(dmp.orient >> 6) & 3];
 652:MyHardWare/eMPL/inv_mpu_dmp_motion_driver.c ****     if (dmp.orient & 0x100)
 653:MyHardWare/eMPL/inv_mpu_dmp_motion_driver.c ****         accel_bias_body[2] *= -1;
 654:MyHardWare/eMPL/inv_mpu_dmp_motion_driver.c **** 
 655:MyHardWare/eMPL/inv_mpu_dmp_motion_driver.c **** #ifdef EMPL_NO_64BIT
 656:MyHardWare/eMPL/inv_mpu_dmp_motion_driver.c ****     accel_bias_body[0] = (long)(((float)accel_bias_body[0] * accel_sf) / 1073741824.f);
 657:MyHardWare/eMPL/inv_mpu_dmp_motion_driver.c ****     accel_bias_body[1] = (long)(((float)accel_bias_body[1] * accel_sf) / 1073741824.f);
ARM GAS  /tmp/cckrZnTL.s 			page 13


 658:MyHardWare/eMPL/inv_mpu_dmp_motion_driver.c ****     accel_bias_body[2] = (long)(((float)accel_bias_body[2] * accel_sf) / 1073741824.f);
 659:MyHardWare/eMPL/inv_mpu_dmp_motion_driver.c **** #else
 660:MyHardWare/eMPL/inv_mpu_dmp_motion_driver.c ****     accel_bias_body[0] = (long)(((long long)accel_bias_body[0] * accel_sf) >> 30);
 661:MyHardWare/eMPL/inv_mpu_dmp_motion_driver.c ****     accel_bias_body[1] = (long)(((long long)accel_bias_body[1] * accel_sf) >> 30);
 662:MyHardWare/eMPL/inv_mpu_dmp_motion_driver.c ****     accel_bias_body[2] = (long)(((long long)accel_bias_body[2] * accel_sf) >> 30);
 663:MyHardWare/eMPL/inv_mpu_dmp_motion_driver.c **** #endif
 664:MyHardWare/eMPL/inv_mpu_dmp_motion_driver.c **** 
 665:MyHardWare/eMPL/inv_mpu_dmp_motion_driver.c ****     regs[0] = (unsigned char)((accel_bias_body[0] >> 24) & 0xFF);
 666:MyHardWare/eMPL/inv_mpu_dmp_motion_driver.c ****     regs[1] = (unsigned char)((accel_bias_body[0] >> 16) & 0xFF);
 667:MyHardWare/eMPL/inv_mpu_dmp_motion_driver.c ****     regs[2] = (unsigned char)((accel_bias_body[0] >> 8) & 0xFF);
 668:MyHardWare/eMPL/inv_mpu_dmp_motion_driver.c ****     regs[3] = (unsigned char)(accel_bias_body[0] & 0xFF);
 669:MyHardWare/eMPL/inv_mpu_dmp_motion_driver.c ****     regs[4] = (unsigned char)((accel_bias_body[1] >> 24) & 0xFF);
 670:MyHardWare/eMPL/inv_mpu_dmp_motion_driver.c ****     regs[5] = (unsigned char)((accel_bias_body[1] >> 16) & 0xFF);
 671:MyHardWare/eMPL/inv_mpu_dmp_motion_driver.c ****     regs[6] = (unsigned char)((accel_bias_body[1] >> 8) & 0xFF);
 672:MyHardWare/eMPL/inv_mpu_dmp_motion_driver.c ****     regs[7] = (unsigned char)(accel_bias_body[1] & 0xFF);
 673:MyHardWare/eMPL/inv_mpu_dmp_motion_driver.c ****     regs[8] = (unsigned char)((accel_bias_body[2] >> 24) & 0xFF);
 674:MyHardWare/eMPL/inv_mpu_dmp_motion_driver.c ****     regs[9] = (unsigned char)((accel_bias_body[2] >> 16) & 0xFF);
 675:MyHardWare/eMPL/inv_mpu_dmp_motion_driver.c ****     regs[10] = (unsigned char)((accel_bias_body[2] >> 8) & 0xFF);
 676:MyHardWare/eMPL/inv_mpu_dmp_motion_driver.c ****     regs[11] = (unsigned char)(accel_bias_body[2] & 0xFF);
 677:MyHardWare/eMPL/inv_mpu_dmp_motion_driver.c ****     return mpu_write_mem(D_ACCEL_BIAS, 12, regs);
 678:MyHardWare/eMPL/inv_mpu_dmp_motion_driver.c **** }
 679:MyHardWare/eMPL/inv_mpu_dmp_motion_driver.c **** 
 680:MyHardWare/eMPL/inv_mpu_dmp_motion_driver.c **** /**
 681:MyHardWare/eMPL/inv_mpu_dmp_motion_driver.c ****  *  @brief      Set DMP output rate.
 682:MyHardWare/eMPL/inv_mpu_dmp_motion_driver.c ****  *  Only used when DMP is on.
 683:MyHardWare/eMPL/inv_mpu_dmp_motion_driver.c ****  *  @param[in]  rate    Desired fifo rate (Hz).
 684:MyHardWare/eMPL/inv_mpu_dmp_motion_driver.c ****  *  @return     0 if successful.
 685:MyHardWare/eMPL/inv_mpu_dmp_motion_driver.c ****  */
 686:MyHardWare/eMPL/inv_mpu_dmp_motion_driver.c **** int dmp_set_fifo_rate(unsigned short rate)
 687:MyHardWare/eMPL/inv_mpu_dmp_motion_driver.c **** {
 688:MyHardWare/eMPL/inv_mpu_dmp_motion_driver.c ****     const unsigned char regs_end[12] = {DINAFE, DINAF2, DINAAB,
 689:MyHardWare/eMPL/inv_mpu_dmp_motion_driver.c ****         0xc4, DINAAA, DINAF1, DINADF, DINADF, 0xBB, 0xAF, DINADF, DINADF};
 690:MyHardWare/eMPL/inv_mpu_dmp_motion_driver.c ****     unsigned short div;
 691:MyHardWare/eMPL/inv_mpu_dmp_motion_driver.c ****     unsigned char tmp[8];
 692:MyHardWare/eMPL/inv_mpu_dmp_motion_driver.c **** 
 693:MyHardWare/eMPL/inv_mpu_dmp_motion_driver.c ****     if (rate > DMP_SAMPLE_RATE)
 694:MyHardWare/eMPL/inv_mpu_dmp_motion_driver.c ****         return -1;
 695:MyHardWare/eMPL/inv_mpu_dmp_motion_driver.c ****     div = DMP_SAMPLE_RATE / rate - 1;
 696:MyHardWare/eMPL/inv_mpu_dmp_motion_driver.c ****     tmp[0] = (unsigned char)((div >> 8) & 0xFF);
 697:MyHardWare/eMPL/inv_mpu_dmp_motion_driver.c ****     tmp[1] = (unsigned char)(div & 0xFF);
 698:MyHardWare/eMPL/inv_mpu_dmp_motion_driver.c ****     if (mpu_write_mem(D_0_22, 2, tmp))
 699:MyHardWare/eMPL/inv_mpu_dmp_motion_driver.c ****         return -1;
 700:MyHardWare/eMPL/inv_mpu_dmp_motion_driver.c ****     if (mpu_write_mem(CFG_6, 12, (unsigned char*)regs_end))
 701:MyHardWare/eMPL/inv_mpu_dmp_motion_driver.c ****         return -1;
 702:MyHardWare/eMPL/inv_mpu_dmp_motion_driver.c **** 
 703:MyHardWare/eMPL/inv_mpu_dmp_motion_driver.c ****     dmp.fifo_rate = rate;
 704:MyHardWare/eMPL/inv_mpu_dmp_motion_driver.c ****     return 0;
 705:MyHardWare/eMPL/inv_mpu_dmp_motion_driver.c **** }
 706:MyHardWare/eMPL/inv_mpu_dmp_motion_driver.c **** 
 707:MyHardWare/eMPL/inv_mpu_dmp_motion_driver.c **** /**
 708:MyHardWare/eMPL/inv_mpu_dmp_motion_driver.c ****  *  @brief      Get DMP output rate.
 709:MyHardWare/eMPL/inv_mpu_dmp_motion_driver.c ****  *  @param[out] rate    Current fifo rate (Hz).
 710:MyHardWare/eMPL/inv_mpu_dmp_motion_driver.c ****  *  @return     0 if successful.
 711:MyHardWare/eMPL/inv_mpu_dmp_motion_driver.c ****  */
 712:MyHardWare/eMPL/inv_mpu_dmp_motion_driver.c **** int dmp_get_fifo_rate(unsigned short *rate)
 713:MyHardWare/eMPL/inv_mpu_dmp_motion_driver.c **** {
 714:MyHardWare/eMPL/inv_mpu_dmp_motion_driver.c ****     rate[0] = dmp.fifo_rate;
ARM GAS  /tmp/cckrZnTL.s 			page 14


 715:MyHardWare/eMPL/inv_mpu_dmp_motion_driver.c ****     return 0;
 716:MyHardWare/eMPL/inv_mpu_dmp_motion_driver.c **** }
 717:MyHardWare/eMPL/inv_mpu_dmp_motion_driver.c **** 
 718:MyHardWare/eMPL/inv_mpu_dmp_motion_driver.c **** /**
 719:MyHardWare/eMPL/inv_mpu_dmp_motion_driver.c ****  *  @brief      Set tap threshold for a specific axis.
 720:MyHardWare/eMPL/inv_mpu_dmp_motion_driver.c ****  *  @param[in]  axis    1, 2, and 4 for XYZ accel, respectively.
 721:MyHardWare/eMPL/inv_mpu_dmp_motion_driver.c ****  *  @param[in]  thresh  Tap threshold, in mg/ms.
 722:MyHardWare/eMPL/inv_mpu_dmp_motion_driver.c ****  *  @return     0 if successful.
 723:MyHardWare/eMPL/inv_mpu_dmp_motion_driver.c ****  */
 724:MyHardWare/eMPL/inv_mpu_dmp_motion_driver.c **** int dmp_set_tap_thresh(unsigned char axis, unsigned short thresh)
 725:MyHardWare/eMPL/inv_mpu_dmp_motion_driver.c **** {
 726:MyHardWare/eMPL/inv_mpu_dmp_motion_driver.c ****     unsigned char tmp[4], accel_fsr;
 727:MyHardWare/eMPL/inv_mpu_dmp_motion_driver.c ****     float scaled_thresh;
 728:MyHardWare/eMPL/inv_mpu_dmp_motion_driver.c ****     unsigned short dmp_thresh, dmp_thresh_2;
 729:MyHardWare/eMPL/inv_mpu_dmp_motion_driver.c ****     if (!(axis & TAP_XYZ) || thresh > 1600)
 730:MyHardWare/eMPL/inv_mpu_dmp_motion_driver.c ****         return -1;
 731:MyHardWare/eMPL/inv_mpu_dmp_motion_driver.c **** 
 732:MyHardWare/eMPL/inv_mpu_dmp_motion_driver.c ****     scaled_thresh = (float)thresh / DMP_SAMPLE_RATE;
 733:MyHardWare/eMPL/inv_mpu_dmp_motion_driver.c **** 
 734:MyHardWare/eMPL/inv_mpu_dmp_motion_driver.c ****     mpu_get_accel_fsr(&accel_fsr);
 735:MyHardWare/eMPL/inv_mpu_dmp_motion_driver.c ****     switch (accel_fsr) {
 736:MyHardWare/eMPL/inv_mpu_dmp_motion_driver.c ****     case 2:
 737:MyHardWare/eMPL/inv_mpu_dmp_motion_driver.c ****         dmp_thresh = (unsigned short)(scaled_thresh * 16384);
 738:MyHardWare/eMPL/inv_mpu_dmp_motion_driver.c ****         /* dmp_thresh * 0.75 */
 739:MyHardWare/eMPL/inv_mpu_dmp_motion_driver.c ****         dmp_thresh_2 = (unsigned short)(scaled_thresh * 12288);
 740:MyHardWare/eMPL/inv_mpu_dmp_motion_driver.c ****         break;
 741:MyHardWare/eMPL/inv_mpu_dmp_motion_driver.c ****     case 4:
 742:MyHardWare/eMPL/inv_mpu_dmp_motion_driver.c ****         dmp_thresh = (unsigned short)(scaled_thresh * 8192);
 743:MyHardWare/eMPL/inv_mpu_dmp_motion_driver.c ****         /* dmp_thresh * 0.75 */
 744:MyHardWare/eMPL/inv_mpu_dmp_motion_driver.c ****         dmp_thresh_2 = (unsigned short)(scaled_thresh * 6144);
 745:MyHardWare/eMPL/inv_mpu_dmp_motion_driver.c ****         break;
 746:MyHardWare/eMPL/inv_mpu_dmp_motion_driver.c ****     case 8:
 747:MyHardWare/eMPL/inv_mpu_dmp_motion_driver.c ****         dmp_thresh = (unsigned short)(scaled_thresh * 4096);
 748:MyHardWare/eMPL/inv_mpu_dmp_motion_driver.c ****         /* dmp_thresh * 0.75 */
 749:MyHardWare/eMPL/inv_mpu_dmp_motion_driver.c ****         dmp_thresh_2 = (unsigned short)(scaled_thresh * 3072);
 750:MyHardWare/eMPL/inv_mpu_dmp_motion_driver.c ****         break;
 751:MyHardWare/eMPL/inv_mpu_dmp_motion_driver.c ****     case 16:
 752:MyHardWare/eMPL/inv_mpu_dmp_motion_driver.c ****         dmp_thresh = (unsigned short)(scaled_thresh * 2048);
 753:MyHardWare/eMPL/inv_mpu_dmp_motion_driver.c ****         /* dmp_thresh * 0.75 */
 754:MyHardWare/eMPL/inv_mpu_dmp_motion_driver.c ****         dmp_thresh_2 = (unsigned short)(scaled_thresh * 1536);
 755:MyHardWare/eMPL/inv_mpu_dmp_motion_driver.c ****         break;
 756:MyHardWare/eMPL/inv_mpu_dmp_motion_driver.c ****     default:
 757:MyHardWare/eMPL/inv_mpu_dmp_motion_driver.c ****         return -1;
 758:MyHardWare/eMPL/inv_mpu_dmp_motion_driver.c ****     }
 759:MyHardWare/eMPL/inv_mpu_dmp_motion_driver.c ****     tmp[0] = (unsigned char)(dmp_thresh >> 8);
 760:MyHardWare/eMPL/inv_mpu_dmp_motion_driver.c ****     tmp[1] = (unsigned char)(dmp_thresh & 0xFF);
 761:MyHardWare/eMPL/inv_mpu_dmp_motion_driver.c ****     tmp[2] = (unsigned char)(dmp_thresh_2 >> 8);
 762:MyHardWare/eMPL/inv_mpu_dmp_motion_driver.c ****     tmp[3] = (unsigned char)(dmp_thresh_2 & 0xFF);
 763:MyHardWare/eMPL/inv_mpu_dmp_motion_driver.c **** 
 764:MyHardWare/eMPL/inv_mpu_dmp_motion_driver.c ****     if (axis & TAP_X) {
 765:MyHardWare/eMPL/inv_mpu_dmp_motion_driver.c ****         if (mpu_write_mem(DMP_TAP_THX, 2, tmp))
 766:MyHardWare/eMPL/inv_mpu_dmp_motion_driver.c ****             return -1;
 767:MyHardWare/eMPL/inv_mpu_dmp_motion_driver.c ****         if (mpu_write_mem(D_1_36, 2, tmp+2))
 768:MyHardWare/eMPL/inv_mpu_dmp_motion_driver.c ****             return -1;
 769:MyHardWare/eMPL/inv_mpu_dmp_motion_driver.c ****     }
 770:MyHardWare/eMPL/inv_mpu_dmp_motion_driver.c ****     if (axis & TAP_Y) {
 771:MyHardWare/eMPL/inv_mpu_dmp_motion_driver.c ****         if (mpu_write_mem(DMP_TAP_THY, 2, tmp))
ARM GAS  /tmp/cckrZnTL.s 			page 15


 772:MyHardWare/eMPL/inv_mpu_dmp_motion_driver.c ****             return -1;
 773:MyHardWare/eMPL/inv_mpu_dmp_motion_driver.c ****         if (mpu_write_mem(D_1_40, 2, tmp+2))
 774:MyHardWare/eMPL/inv_mpu_dmp_motion_driver.c ****             return -1;
 775:MyHardWare/eMPL/inv_mpu_dmp_motion_driver.c ****     }
 776:MyHardWare/eMPL/inv_mpu_dmp_motion_driver.c ****     if (axis & TAP_Z) {
 777:MyHardWare/eMPL/inv_mpu_dmp_motion_driver.c ****         if (mpu_write_mem(DMP_TAP_THZ, 2, tmp))
 778:MyHardWare/eMPL/inv_mpu_dmp_motion_driver.c ****             return -1;
 779:MyHardWare/eMPL/inv_mpu_dmp_motion_driver.c ****         if (mpu_write_mem(D_1_44, 2, tmp+2))
 780:MyHardWare/eMPL/inv_mpu_dmp_motion_driver.c ****             return -1;
 781:MyHardWare/eMPL/inv_mpu_dmp_motion_driver.c ****     }
 782:MyHardWare/eMPL/inv_mpu_dmp_motion_driver.c ****     return 0;
 783:MyHardWare/eMPL/inv_mpu_dmp_motion_driver.c **** }
 784:MyHardWare/eMPL/inv_mpu_dmp_motion_driver.c **** 
 785:MyHardWare/eMPL/inv_mpu_dmp_motion_driver.c **** /**
 786:MyHardWare/eMPL/inv_mpu_dmp_motion_driver.c ****  *  @brief      Set which axes will register a tap.
 787:MyHardWare/eMPL/inv_mpu_dmp_motion_driver.c ****  *  @param[in]  axis    1, 2, and 4 for XYZ, respectively.
 788:MyHardWare/eMPL/inv_mpu_dmp_motion_driver.c ****  *  @return     0 if successful.
 789:MyHardWare/eMPL/inv_mpu_dmp_motion_driver.c ****  */
 790:MyHardWare/eMPL/inv_mpu_dmp_motion_driver.c **** int dmp_set_tap_axes(unsigned char axis)
 791:MyHardWare/eMPL/inv_mpu_dmp_motion_driver.c **** {
 792:MyHardWare/eMPL/inv_mpu_dmp_motion_driver.c ****     unsigned char tmp = 0;
 793:MyHardWare/eMPL/inv_mpu_dmp_motion_driver.c **** 
 794:MyHardWare/eMPL/inv_mpu_dmp_motion_driver.c ****     if (axis & TAP_X)
 795:MyHardWare/eMPL/inv_mpu_dmp_motion_driver.c ****         tmp |= 0x30;
 796:MyHardWare/eMPL/inv_mpu_dmp_motion_driver.c ****     if (axis & TAP_Y)
 797:MyHardWare/eMPL/inv_mpu_dmp_motion_driver.c ****         tmp |= 0x0C;
 798:MyHardWare/eMPL/inv_mpu_dmp_motion_driver.c ****     if (axis & TAP_Z)
 799:MyHardWare/eMPL/inv_mpu_dmp_motion_driver.c ****         tmp |= 0x03;
 800:MyHardWare/eMPL/inv_mpu_dmp_motion_driver.c ****     return mpu_write_mem(D_1_72, 1, &tmp);
 801:MyHardWare/eMPL/inv_mpu_dmp_motion_driver.c **** }
 802:MyHardWare/eMPL/inv_mpu_dmp_motion_driver.c **** 
 803:MyHardWare/eMPL/inv_mpu_dmp_motion_driver.c **** /**
 804:MyHardWare/eMPL/inv_mpu_dmp_motion_driver.c ****  *  @brief      Set minimum number of taps needed for an interrupt.
 805:MyHardWare/eMPL/inv_mpu_dmp_motion_driver.c ****  *  @param[in]  min_taps    Minimum consecutive taps (1-4).
 806:MyHardWare/eMPL/inv_mpu_dmp_motion_driver.c ****  *  @return     0 if successful.
 807:MyHardWare/eMPL/inv_mpu_dmp_motion_driver.c ****  */
 808:MyHardWare/eMPL/inv_mpu_dmp_motion_driver.c **** int dmp_set_tap_count(unsigned char min_taps)
 809:MyHardWare/eMPL/inv_mpu_dmp_motion_driver.c **** {
 810:MyHardWare/eMPL/inv_mpu_dmp_motion_driver.c ****     unsigned char tmp;
 811:MyHardWare/eMPL/inv_mpu_dmp_motion_driver.c **** 
 812:MyHardWare/eMPL/inv_mpu_dmp_motion_driver.c ****     if (min_taps < 1)
 813:MyHardWare/eMPL/inv_mpu_dmp_motion_driver.c ****         min_taps = 1;
 814:MyHardWare/eMPL/inv_mpu_dmp_motion_driver.c ****     else if (min_taps > 4)
 815:MyHardWare/eMPL/inv_mpu_dmp_motion_driver.c ****         min_taps = 4;
 816:MyHardWare/eMPL/inv_mpu_dmp_motion_driver.c **** 
 817:MyHardWare/eMPL/inv_mpu_dmp_motion_driver.c ****     tmp = min_taps - 1;
 818:MyHardWare/eMPL/inv_mpu_dmp_motion_driver.c ****     return mpu_write_mem(D_1_79, 1, &tmp);
 819:MyHardWare/eMPL/inv_mpu_dmp_motion_driver.c **** }
 820:MyHardWare/eMPL/inv_mpu_dmp_motion_driver.c **** 
 821:MyHardWare/eMPL/inv_mpu_dmp_motion_driver.c **** /**
 822:MyHardWare/eMPL/inv_mpu_dmp_motion_driver.c ****  *  @brief      Set length between valid taps.
 823:MyHardWare/eMPL/inv_mpu_dmp_motion_driver.c ****  *  @param[in]  time    Milliseconds between taps.
 824:MyHardWare/eMPL/inv_mpu_dmp_motion_driver.c ****  *  @return     0 if successful.
 825:MyHardWare/eMPL/inv_mpu_dmp_motion_driver.c ****  */
 826:MyHardWare/eMPL/inv_mpu_dmp_motion_driver.c **** int dmp_set_tap_time(unsigned short time)
 827:MyHardWare/eMPL/inv_mpu_dmp_motion_driver.c **** {
 828:MyHardWare/eMPL/inv_mpu_dmp_motion_driver.c ****     unsigned short dmp_time;
ARM GAS  /tmp/cckrZnTL.s 			page 16


 829:MyHardWare/eMPL/inv_mpu_dmp_motion_driver.c ****     unsigned char tmp[2];
 830:MyHardWare/eMPL/inv_mpu_dmp_motion_driver.c **** 
 831:MyHardWare/eMPL/inv_mpu_dmp_motion_driver.c ****     dmp_time = time / (1000 / DMP_SAMPLE_RATE);
 832:MyHardWare/eMPL/inv_mpu_dmp_motion_driver.c ****     tmp[0] = (unsigned char)(dmp_time >> 8);
 833:MyHardWare/eMPL/inv_mpu_dmp_motion_driver.c ****     tmp[1] = (unsigned char)(dmp_time & 0xFF);
 834:MyHardWare/eMPL/inv_mpu_dmp_motion_driver.c ****     return mpu_write_mem(DMP_TAPW_MIN, 2, tmp);
 835:MyHardWare/eMPL/inv_mpu_dmp_motion_driver.c **** }
 836:MyHardWare/eMPL/inv_mpu_dmp_motion_driver.c **** 
 837:MyHardWare/eMPL/inv_mpu_dmp_motion_driver.c **** /**
 838:MyHardWare/eMPL/inv_mpu_dmp_motion_driver.c ****  *  @brief      Set max time between taps to register as a multi-tap.
 839:MyHardWare/eMPL/inv_mpu_dmp_motion_driver.c ****  *  @param[in]  time    Max milliseconds between taps.
 840:MyHardWare/eMPL/inv_mpu_dmp_motion_driver.c ****  *  @return     0 if successful.
 841:MyHardWare/eMPL/inv_mpu_dmp_motion_driver.c ****  */
 842:MyHardWare/eMPL/inv_mpu_dmp_motion_driver.c **** int dmp_set_tap_time_multi(unsigned short time)
 843:MyHardWare/eMPL/inv_mpu_dmp_motion_driver.c **** {
 844:MyHardWare/eMPL/inv_mpu_dmp_motion_driver.c ****     unsigned short dmp_time;
 845:MyHardWare/eMPL/inv_mpu_dmp_motion_driver.c ****     unsigned char tmp[2];
 846:MyHardWare/eMPL/inv_mpu_dmp_motion_driver.c **** 
 847:MyHardWare/eMPL/inv_mpu_dmp_motion_driver.c ****     dmp_time = time / (1000 / DMP_SAMPLE_RATE);
 848:MyHardWare/eMPL/inv_mpu_dmp_motion_driver.c ****     tmp[0] = (unsigned char)(dmp_time >> 8);
 849:MyHardWare/eMPL/inv_mpu_dmp_motion_driver.c ****     tmp[1] = (unsigned char)(dmp_time & 0xFF);
 850:MyHardWare/eMPL/inv_mpu_dmp_motion_driver.c ****     return mpu_write_mem(D_1_218, 2, tmp);
 851:MyHardWare/eMPL/inv_mpu_dmp_motion_driver.c **** }
 852:MyHardWare/eMPL/inv_mpu_dmp_motion_driver.c **** 
 853:MyHardWare/eMPL/inv_mpu_dmp_motion_driver.c **** /**
 854:MyHardWare/eMPL/inv_mpu_dmp_motion_driver.c ****  *  @brief      Set shake rejection threshold.
 855:MyHardWare/eMPL/inv_mpu_dmp_motion_driver.c ****  *  If the DMP detects a gyro sample larger than @e thresh, taps are rejected.
 856:MyHardWare/eMPL/inv_mpu_dmp_motion_driver.c ****  *  @param[in]  sf      Gyro scale factor.
 857:MyHardWare/eMPL/inv_mpu_dmp_motion_driver.c ****  *  @param[in]  thresh  Gyro threshold in dps.
 858:MyHardWare/eMPL/inv_mpu_dmp_motion_driver.c ****  *  @return     0 if successful.
 859:MyHardWare/eMPL/inv_mpu_dmp_motion_driver.c ****  */
 860:MyHardWare/eMPL/inv_mpu_dmp_motion_driver.c **** int dmp_set_shake_reject_thresh(long sf, unsigned short thresh)
 861:MyHardWare/eMPL/inv_mpu_dmp_motion_driver.c **** {
 862:MyHardWare/eMPL/inv_mpu_dmp_motion_driver.c ****     unsigned char tmp[4];
 863:MyHardWare/eMPL/inv_mpu_dmp_motion_driver.c ****     long thresh_scaled = sf / 1000 * thresh;
 864:MyHardWare/eMPL/inv_mpu_dmp_motion_driver.c ****     tmp[0] = (unsigned char)(((long)thresh_scaled >> 24) & 0xFF);
 865:MyHardWare/eMPL/inv_mpu_dmp_motion_driver.c ****     tmp[1] = (unsigned char)(((long)thresh_scaled >> 16) & 0xFF);
 866:MyHardWare/eMPL/inv_mpu_dmp_motion_driver.c ****     tmp[2] = (unsigned char)(((long)thresh_scaled >> 8) & 0xFF);
 867:MyHardWare/eMPL/inv_mpu_dmp_motion_driver.c ****     tmp[3] = (unsigned char)((long)thresh_scaled & 0xFF);
 868:MyHardWare/eMPL/inv_mpu_dmp_motion_driver.c ****     return mpu_write_mem(D_1_92, 4, tmp);
 869:MyHardWare/eMPL/inv_mpu_dmp_motion_driver.c **** }
 870:MyHardWare/eMPL/inv_mpu_dmp_motion_driver.c **** 
 871:MyHardWare/eMPL/inv_mpu_dmp_motion_driver.c **** /**
 872:MyHardWare/eMPL/inv_mpu_dmp_motion_driver.c ****  *  @brief      Set shake rejection time.
 873:MyHardWare/eMPL/inv_mpu_dmp_motion_driver.c ****  *  Sets the length of time that the gyro must be outside of the threshold set
 874:MyHardWare/eMPL/inv_mpu_dmp_motion_driver.c ****  *  by @e gyro_set_shake_reject_thresh before taps are rejected. A mandatory
 875:MyHardWare/eMPL/inv_mpu_dmp_motion_driver.c ****  *  60 ms is added to this parameter.
 876:MyHardWare/eMPL/inv_mpu_dmp_motion_driver.c ****  *  @param[in]  time    Time in milliseconds.
 877:MyHardWare/eMPL/inv_mpu_dmp_motion_driver.c ****  *  @return     0 if successful.
 878:MyHardWare/eMPL/inv_mpu_dmp_motion_driver.c ****  */
 879:MyHardWare/eMPL/inv_mpu_dmp_motion_driver.c **** int dmp_set_shake_reject_time(unsigned short time)
 880:MyHardWare/eMPL/inv_mpu_dmp_motion_driver.c **** {
 881:MyHardWare/eMPL/inv_mpu_dmp_motion_driver.c ****     unsigned char tmp[2];
 882:MyHardWare/eMPL/inv_mpu_dmp_motion_driver.c **** 
 883:MyHardWare/eMPL/inv_mpu_dmp_motion_driver.c ****     time /= (1000 / DMP_SAMPLE_RATE);
 884:MyHardWare/eMPL/inv_mpu_dmp_motion_driver.c ****     tmp[0] = time >> 8;
 885:MyHardWare/eMPL/inv_mpu_dmp_motion_driver.c ****     tmp[1] = time & 0xFF;
ARM GAS  /tmp/cckrZnTL.s 			page 17


 886:MyHardWare/eMPL/inv_mpu_dmp_motion_driver.c ****     return mpu_write_mem(D_1_90,2,tmp);
 887:MyHardWare/eMPL/inv_mpu_dmp_motion_driver.c **** }
 888:MyHardWare/eMPL/inv_mpu_dmp_motion_driver.c **** 
 889:MyHardWare/eMPL/inv_mpu_dmp_motion_driver.c **** /**
 890:MyHardWare/eMPL/inv_mpu_dmp_motion_driver.c ****  *  @brief      Set shake rejection timeout.
 891:MyHardWare/eMPL/inv_mpu_dmp_motion_driver.c ****  *  Sets the length of time after a shake rejection that the gyro must stay
 892:MyHardWare/eMPL/inv_mpu_dmp_motion_driver.c ****  *  inside of the threshold before taps can be detected again. A mandatory
 893:MyHardWare/eMPL/inv_mpu_dmp_motion_driver.c ****  *  60 ms is added to this parameter.
 894:MyHardWare/eMPL/inv_mpu_dmp_motion_driver.c ****  *  @param[in]  time    Time in milliseconds.
 895:MyHardWare/eMPL/inv_mpu_dmp_motion_driver.c ****  *  @return     0 if successful.
 896:MyHardWare/eMPL/inv_mpu_dmp_motion_driver.c ****  */
 897:MyHardWare/eMPL/inv_mpu_dmp_motion_driver.c **** int dmp_set_shake_reject_timeout(unsigned short time)
 898:MyHardWare/eMPL/inv_mpu_dmp_motion_driver.c **** {
 899:MyHardWare/eMPL/inv_mpu_dmp_motion_driver.c ****     unsigned char tmp[2];
 900:MyHardWare/eMPL/inv_mpu_dmp_motion_driver.c **** 
 901:MyHardWare/eMPL/inv_mpu_dmp_motion_driver.c ****     time /= (1000 / DMP_SAMPLE_RATE);
 902:MyHardWare/eMPL/inv_mpu_dmp_motion_driver.c ****     tmp[0] = time >> 8;
 903:MyHardWare/eMPL/inv_mpu_dmp_motion_driver.c ****     tmp[1] = time & 0xFF;
 904:MyHardWare/eMPL/inv_mpu_dmp_motion_driver.c ****     return mpu_write_mem(D_1_88,2,tmp);
 905:MyHardWare/eMPL/inv_mpu_dmp_motion_driver.c **** }
 906:MyHardWare/eMPL/inv_mpu_dmp_motion_driver.c **** 
 907:MyHardWare/eMPL/inv_mpu_dmp_motion_driver.c **** /**
 908:MyHardWare/eMPL/inv_mpu_dmp_motion_driver.c ****  *  @brief      Get current step count.
 909:MyHardWare/eMPL/inv_mpu_dmp_motion_driver.c ****  *  @param[out] count   Number of steps detected.
 910:MyHardWare/eMPL/inv_mpu_dmp_motion_driver.c ****  *  @return     0 if successful.
 911:MyHardWare/eMPL/inv_mpu_dmp_motion_driver.c ****  */
 912:MyHardWare/eMPL/inv_mpu_dmp_motion_driver.c **** int dmp_get_pedometer_step_count(unsigned long *count)
 913:MyHardWare/eMPL/inv_mpu_dmp_motion_driver.c **** {
 914:MyHardWare/eMPL/inv_mpu_dmp_motion_driver.c ****     unsigned char tmp[4];
 915:MyHardWare/eMPL/inv_mpu_dmp_motion_driver.c ****     if (!count)
 916:MyHardWare/eMPL/inv_mpu_dmp_motion_driver.c ****         return -1;
 917:MyHardWare/eMPL/inv_mpu_dmp_motion_driver.c **** 
 918:MyHardWare/eMPL/inv_mpu_dmp_motion_driver.c ****     if (mpu_read_mem(D_PEDSTD_STEPCTR, 4, tmp))
 919:MyHardWare/eMPL/inv_mpu_dmp_motion_driver.c ****         return -1;
 920:MyHardWare/eMPL/inv_mpu_dmp_motion_driver.c **** 
 921:MyHardWare/eMPL/inv_mpu_dmp_motion_driver.c ****     count[0] = ((unsigned long)tmp[0] << 24) | ((unsigned long)tmp[1] << 16) |
 922:MyHardWare/eMPL/inv_mpu_dmp_motion_driver.c ****         ((unsigned long)tmp[2] << 8) | tmp[3];
 923:MyHardWare/eMPL/inv_mpu_dmp_motion_driver.c ****     return 0;
 924:MyHardWare/eMPL/inv_mpu_dmp_motion_driver.c **** }
 925:MyHardWare/eMPL/inv_mpu_dmp_motion_driver.c **** 
 926:MyHardWare/eMPL/inv_mpu_dmp_motion_driver.c **** /**
 927:MyHardWare/eMPL/inv_mpu_dmp_motion_driver.c ****  *  @brief      Overwrite current step count.
 928:MyHardWare/eMPL/inv_mpu_dmp_motion_driver.c ****  *  WARNING: This function writes to DMP memory and could potentially encounter
 929:MyHardWare/eMPL/inv_mpu_dmp_motion_driver.c ****  *  a race condition if called while the pedometer is enabled.
 930:MyHardWare/eMPL/inv_mpu_dmp_motion_driver.c ****  *  @param[in]  count   New step count.
 931:MyHardWare/eMPL/inv_mpu_dmp_motion_driver.c ****  *  @return     0 if successful.
 932:MyHardWare/eMPL/inv_mpu_dmp_motion_driver.c ****  */
 933:MyHardWare/eMPL/inv_mpu_dmp_motion_driver.c **** int dmp_set_pedometer_step_count(unsigned long count)
 934:MyHardWare/eMPL/inv_mpu_dmp_motion_driver.c **** {
 935:MyHardWare/eMPL/inv_mpu_dmp_motion_driver.c ****     unsigned char tmp[4];
 936:MyHardWare/eMPL/inv_mpu_dmp_motion_driver.c **** 
 937:MyHardWare/eMPL/inv_mpu_dmp_motion_driver.c ****     tmp[0] = (unsigned char)((count >> 24) & 0xFF);
 938:MyHardWare/eMPL/inv_mpu_dmp_motion_driver.c ****     tmp[1] = (unsigned char)((count >> 16) & 0xFF);
 939:MyHardWare/eMPL/inv_mpu_dmp_motion_driver.c ****     tmp[2] = (unsigned char)((count >> 8) & 0xFF);
 940:MyHardWare/eMPL/inv_mpu_dmp_motion_driver.c ****     tmp[3] = (unsigned char)(count & 0xFF);
 941:MyHardWare/eMPL/inv_mpu_dmp_motion_driver.c ****     return mpu_write_mem(D_PEDSTD_STEPCTR, 4, tmp);
 942:MyHardWare/eMPL/inv_mpu_dmp_motion_driver.c **** }
ARM GAS  /tmp/cckrZnTL.s 			page 18


 943:MyHardWare/eMPL/inv_mpu_dmp_motion_driver.c **** 
 944:MyHardWare/eMPL/inv_mpu_dmp_motion_driver.c **** /**
 945:MyHardWare/eMPL/inv_mpu_dmp_motion_driver.c ****  *  @brief      Get duration of walking time.
 946:MyHardWare/eMPL/inv_mpu_dmp_motion_driver.c ****  *  @param[in]  time    Walk time in milliseconds.
 947:MyHardWare/eMPL/inv_mpu_dmp_motion_driver.c ****  *  @return     0 if successful.
 948:MyHardWare/eMPL/inv_mpu_dmp_motion_driver.c ****  */
 949:MyHardWare/eMPL/inv_mpu_dmp_motion_driver.c **** int dmp_get_pedometer_walk_time(unsigned long *time)
 950:MyHardWare/eMPL/inv_mpu_dmp_motion_driver.c **** {
 951:MyHardWare/eMPL/inv_mpu_dmp_motion_driver.c ****     unsigned char tmp[4];
 952:MyHardWare/eMPL/inv_mpu_dmp_motion_driver.c ****     if (!time)
 953:MyHardWare/eMPL/inv_mpu_dmp_motion_driver.c ****         return -1;
 954:MyHardWare/eMPL/inv_mpu_dmp_motion_driver.c **** 
 955:MyHardWare/eMPL/inv_mpu_dmp_motion_driver.c ****     if (mpu_read_mem(D_PEDSTD_TIMECTR, 4, tmp))
 956:MyHardWare/eMPL/inv_mpu_dmp_motion_driver.c ****         return -1;
 957:MyHardWare/eMPL/inv_mpu_dmp_motion_driver.c **** 
 958:MyHardWare/eMPL/inv_mpu_dmp_motion_driver.c ****     time[0] = (((unsigned long)tmp[0] << 24) | ((unsigned long)tmp[1] << 16) |
 959:MyHardWare/eMPL/inv_mpu_dmp_motion_driver.c ****         ((unsigned long)tmp[2] << 8) | tmp[3]) * 20;
 960:MyHardWare/eMPL/inv_mpu_dmp_motion_driver.c ****     return 0;
 961:MyHardWare/eMPL/inv_mpu_dmp_motion_driver.c **** }
 962:MyHardWare/eMPL/inv_mpu_dmp_motion_driver.c **** 
 963:MyHardWare/eMPL/inv_mpu_dmp_motion_driver.c **** /**
 964:MyHardWare/eMPL/inv_mpu_dmp_motion_driver.c ****  *  @brief      Overwrite current walk time.
 965:MyHardWare/eMPL/inv_mpu_dmp_motion_driver.c ****  *  WARNING: This function writes to DMP memory and could potentially encounter
 966:MyHardWare/eMPL/inv_mpu_dmp_motion_driver.c ****  *  a race condition if called while the pedometer is enabled.
 967:MyHardWare/eMPL/inv_mpu_dmp_motion_driver.c ****  *  @param[in]  time    New walk time in milliseconds.
 968:MyHardWare/eMPL/inv_mpu_dmp_motion_driver.c ****  */
 969:MyHardWare/eMPL/inv_mpu_dmp_motion_driver.c **** int dmp_set_pedometer_walk_time(unsigned long time)
 970:MyHardWare/eMPL/inv_mpu_dmp_motion_driver.c **** {
 971:MyHardWare/eMPL/inv_mpu_dmp_motion_driver.c ****     unsigned char tmp[4];
 972:MyHardWare/eMPL/inv_mpu_dmp_motion_driver.c **** 
 973:MyHardWare/eMPL/inv_mpu_dmp_motion_driver.c ****     time /= 20;
 974:MyHardWare/eMPL/inv_mpu_dmp_motion_driver.c **** 
 975:MyHardWare/eMPL/inv_mpu_dmp_motion_driver.c ****     tmp[0] = (unsigned char)((time >> 24) & 0xFF);
 976:MyHardWare/eMPL/inv_mpu_dmp_motion_driver.c ****     tmp[1] = (unsigned char)((time >> 16) & 0xFF);
 977:MyHardWare/eMPL/inv_mpu_dmp_motion_driver.c ****     tmp[2] = (unsigned char)((time >> 8) & 0xFF);
 978:MyHardWare/eMPL/inv_mpu_dmp_motion_driver.c ****     tmp[3] = (unsigned char)(time & 0xFF);
 979:MyHardWare/eMPL/inv_mpu_dmp_motion_driver.c ****     return mpu_write_mem(D_PEDSTD_TIMECTR, 4, tmp);
 980:MyHardWare/eMPL/inv_mpu_dmp_motion_driver.c **** }
 981:MyHardWare/eMPL/inv_mpu_dmp_motion_driver.c **** 
 982:MyHardWare/eMPL/inv_mpu_dmp_motion_driver.c **** /**
 983:MyHardWare/eMPL/inv_mpu_dmp_motion_driver.c ****  *  @brief      Enable DMP features.
 984:MyHardWare/eMPL/inv_mpu_dmp_motion_driver.c ****  *  The following \#define's are used in the input mask:
 985:MyHardWare/eMPL/inv_mpu_dmp_motion_driver.c ****  *  \n DMP_FEATURE_TAP
 986:MyHardWare/eMPL/inv_mpu_dmp_motion_driver.c ****  *  \n DMP_FEATURE_ANDROID_ORIENT
 987:MyHardWare/eMPL/inv_mpu_dmp_motion_driver.c ****  *  \n DMP_FEATURE_LP_QUAT
 988:MyHardWare/eMPL/inv_mpu_dmp_motion_driver.c ****  *  \n DMP_FEATURE_6X_LP_QUAT
 989:MyHardWare/eMPL/inv_mpu_dmp_motion_driver.c ****  *  \n DMP_FEATURE_GYRO_CAL
 990:MyHardWare/eMPL/inv_mpu_dmp_motion_driver.c ****  *  \n DMP_FEATURE_SEND_RAW_ACCEL
 991:MyHardWare/eMPL/inv_mpu_dmp_motion_driver.c ****  *  \n DMP_FEATURE_SEND_RAW_GYRO
 992:MyHardWare/eMPL/inv_mpu_dmp_motion_driver.c ****  *  \n NOTE: DMP_FEATURE_LP_QUAT and DMP_FEATURE_6X_LP_QUAT are mutually
 993:MyHardWare/eMPL/inv_mpu_dmp_motion_driver.c ****  *  exclusive.
 994:MyHardWare/eMPL/inv_mpu_dmp_motion_driver.c ****  *  \n NOTE: DMP_FEATURE_SEND_RAW_GYRO and DMP_FEATURE_SEND_CAL_GYRO are also
 995:MyHardWare/eMPL/inv_mpu_dmp_motion_driver.c ****  *  mutually exclusive.
 996:MyHardWare/eMPL/inv_mpu_dmp_motion_driver.c ****  *  @param[in]  mask    Mask of features to enable.
 997:MyHardWare/eMPL/inv_mpu_dmp_motion_driver.c ****  *  @return     0 if successful.
 998:MyHardWare/eMPL/inv_mpu_dmp_motion_driver.c ****  */
 999:MyHardWare/eMPL/inv_mpu_dmp_motion_driver.c **** int dmp_enable_feature(unsigned short mask)
ARM GAS  /tmp/cckrZnTL.s 			page 19


1000:MyHardWare/eMPL/inv_mpu_dmp_motion_driver.c **** {
1001:MyHardWare/eMPL/inv_mpu_dmp_motion_driver.c ****     unsigned char tmp[10];
1002:MyHardWare/eMPL/inv_mpu_dmp_motion_driver.c **** 
1003:MyHardWare/eMPL/inv_mpu_dmp_motion_driver.c ****     /* TODO: All of these settings can probably be integrated into the default
1004:MyHardWare/eMPL/inv_mpu_dmp_motion_driver.c ****      * DMP image.
1005:MyHardWare/eMPL/inv_mpu_dmp_motion_driver.c ****      */
1006:MyHardWare/eMPL/inv_mpu_dmp_motion_driver.c ****     /* Set integration scale factor. */
1007:MyHardWare/eMPL/inv_mpu_dmp_motion_driver.c ****     tmp[0] = (unsigned char)((GYRO_SF >> 24) & 0xFF);
1008:MyHardWare/eMPL/inv_mpu_dmp_motion_driver.c ****     tmp[1] = (unsigned char)((GYRO_SF >> 16) & 0xFF);
1009:MyHardWare/eMPL/inv_mpu_dmp_motion_driver.c ****     tmp[2] = (unsigned char)((GYRO_SF >> 8) & 0xFF);
1010:MyHardWare/eMPL/inv_mpu_dmp_motion_driver.c ****     tmp[3] = (unsigned char)(GYRO_SF & 0xFF);
1011:MyHardWare/eMPL/inv_mpu_dmp_motion_driver.c ****     mpu_write_mem(D_0_104, 4, tmp);
1012:MyHardWare/eMPL/inv_mpu_dmp_motion_driver.c **** 
1013:MyHardWare/eMPL/inv_mpu_dmp_motion_driver.c ****     /* Send sensor data to the FIFO. */
1014:MyHardWare/eMPL/inv_mpu_dmp_motion_driver.c ****     tmp[0] = 0xA3;
1015:MyHardWare/eMPL/inv_mpu_dmp_motion_driver.c ****     if (mask & DMP_FEATURE_SEND_RAW_ACCEL) {
1016:MyHardWare/eMPL/inv_mpu_dmp_motion_driver.c ****         tmp[1] = 0xC0;
1017:MyHardWare/eMPL/inv_mpu_dmp_motion_driver.c ****         tmp[2] = 0xC8;
1018:MyHardWare/eMPL/inv_mpu_dmp_motion_driver.c ****         tmp[3] = 0xC2;
1019:MyHardWare/eMPL/inv_mpu_dmp_motion_driver.c ****     } else {
1020:MyHardWare/eMPL/inv_mpu_dmp_motion_driver.c ****         tmp[1] = 0xA3;
1021:MyHardWare/eMPL/inv_mpu_dmp_motion_driver.c ****         tmp[2] = 0xA3;
1022:MyHardWare/eMPL/inv_mpu_dmp_motion_driver.c ****         tmp[3] = 0xA3;
1023:MyHardWare/eMPL/inv_mpu_dmp_motion_driver.c ****     }
1024:MyHardWare/eMPL/inv_mpu_dmp_motion_driver.c ****     if (mask & DMP_FEATURE_SEND_ANY_GYRO) {
1025:MyHardWare/eMPL/inv_mpu_dmp_motion_driver.c ****         tmp[4] = 0xC4;
1026:MyHardWare/eMPL/inv_mpu_dmp_motion_driver.c ****         tmp[5] = 0xCC;
1027:MyHardWare/eMPL/inv_mpu_dmp_motion_driver.c ****         tmp[6] = 0xC6;
1028:MyHardWare/eMPL/inv_mpu_dmp_motion_driver.c ****     } else {
1029:MyHardWare/eMPL/inv_mpu_dmp_motion_driver.c ****         tmp[4] = 0xA3;
1030:MyHardWare/eMPL/inv_mpu_dmp_motion_driver.c ****         tmp[5] = 0xA3;
1031:MyHardWare/eMPL/inv_mpu_dmp_motion_driver.c ****         tmp[6] = 0xA3;
1032:MyHardWare/eMPL/inv_mpu_dmp_motion_driver.c ****     }
1033:MyHardWare/eMPL/inv_mpu_dmp_motion_driver.c ****     tmp[7] = 0xA3;
1034:MyHardWare/eMPL/inv_mpu_dmp_motion_driver.c ****     tmp[8] = 0xA3;
1035:MyHardWare/eMPL/inv_mpu_dmp_motion_driver.c ****     tmp[9] = 0xA3;
1036:MyHardWare/eMPL/inv_mpu_dmp_motion_driver.c ****     mpu_write_mem(CFG_15,10,tmp);
1037:MyHardWare/eMPL/inv_mpu_dmp_motion_driver.c **** 
1038:MyHardWare/eMPL/inv_mpu_dmp_motion_driver.c ****     /* Send gesture data to the FIFO. */
1039:MyHardWare/eMPL/inv_mpu_dmp_motion_driver.c ****     if (mask & (DMP_FEATURE_TAP | DMP_FEATURE_ANDROID_ORIENT))
1040:MyHardWare/eMPL/inv_mpu_dmp_motion_driver.c ****         tmp[0] = DINA20;
1041:MyHardWare/eMPL/inv_mpu_dmp_motion_driver.c ****     else
1042:MyHardWare/eMPL/inv_mpu_dmp_motion_driver.c ****         tmp[0] = 0xD8;
1043:MyHardWare/eMPL/inv_mpu_dmp_motion_driver.c ****     mpu_write_mem(CFG_27,1,tmp);
1044:MyHardWare/eMPL/inv_mpu_dmp_motion_driver.c **** 
1045:MyHardWare/eMPL/inv_mpu_dmp_motion_driver.c ****     if (mask & DMP_FEATURE_GYRO_CAL)
1046:MyHardWare/eMPL/inv_mpu_dmp_motion_driver.c ****         dmp_enable_gyro_cal(1);
1047:MyHardWare/eMPL/inv_mpu_dmp_motion_driver.c ****     else
1048:MyHardWare/eMPL/inv_mpu_dmp_motion_driver.c ****         dmp_enable_gyro_cal(0);
1049:MyHardWare/eMPL/inv_mpu_dmp_motion_driver.c **** 
1050:MyHardWare/eMPL/inv_mpu_dmp_motion_driver.c ****     if (mask & DMP_FEATURE_SEND_ANY_GYRO) {
1051:MyHardWare/eMPL/inv_mpu_dmp_motion_driver.c ****         if (mask & DMP_FEATURE_SEND_CAL_GYRO) {
1052:MyHardWare/eMPL/inv_mpu_dmp_motion_driver.c ****             tmp[0] = 0xB2;
1053:MyHardWare/eMPL/inv_mpu_dmp_motion_driver.c ****             tmp[1] = 0x8B;
1054:MyHardWare/eMPL/inv_mpu_dmp_motion_driver.c ****             tmp[2] = 0xB6;
1055:MyHardWare/eMPL/inv_mpu_dmp_motion_driver.c ****             tmp[3] = 0x9B;
1056:MyHardWare/eMPL/inv_mpu_dmp_motion_driver.c ****         } else {
ARM GAS  /tmp/cckrZnTL.s 			page 20


1057:MyHardWare/eMPL/inv_mpu_dmp_motion_driver.c ****             tmp[0] = DINAC0;
1058:MyHardWare/eMPL/inv_mpu_dmp_motion_driver.c ****             tmp[1] = DINA80;
1059:MyHardWare/eMPL/inv_mpu_dmp_motion_driver.c ****             tmp[2] = DINAC2;
1060:MyHardWare/eMPL/inv_mpu_dmp_motion_driver.c ****             tmp[3] = DINA90;
1061:MyHardWare/eMPL/inv_mpu_dmp_motion_driver.c ****         }
1062:MyHardWare/eMPL/inv_mpu_dmp_motion_driver.c ****         mpu_write_mem(CFG_GYRO_RAW_DATA, 4, tmp);
1063:MyHardWare/eMPL/inv_mpu_dmp_motion_driver.c ****     }
1064:MyHardWare/eMPL/inv_mpu_dmp_motion_driver.c **** 
1065:MyHardWare/eMPL/inv_mpu_dmp_motion_driver.c ****     if (mask & DMP_FEATURE_TAP) {
1066:MyHardWare/eMPL/inv_mpu_dmp_motion_driver.c ****         /* Enable tap. */
1067:MyHardWare/eMPL/inv_mpu_dmp_motion_driver.c ****         tmp[0] = 0xF8;
1068:MyHardWare/eMPL/inv_mpu_dmp_motion_driver.c ****         mpu_write_mem(CFG_20, 1, tmp);
1069:MyHardWare/eMPL/inv_mpu_dmp_motion_driver.c ****         dmp_set_tap_thresh(TAP_XYZ, 250);
1070:MyHardWare/eMPL/inv_mpu_dmp_motion_driver.c ****         dmp_set_tap_axes(TAP_XYZ);
1071:MyHardWare/eMPL/inv_mpu_dmp_motion_driver.c ****         dmp_set_tap_count(1);
1072:MyHardWare/eMPL/inv_mpu_dmp_motion_driver.c ****         dmp_set_tap_time(100);
1073:MyHardWare/eMPL/inv_mpu_dmp_motion_driver.c ****         dmp_set_tap_time_multi(500);
1074:MyHardWare/eMPL/inv_mpu_dmp_motion_driver.c **** 
1075:MyHardWare/eMPL/inv_mpu_dmp_motion_driver.c ****         dmp_set_shake_reject_thresh(GYRO_SF, 200);
1076:MyHardWare/eMPL/inv_mpu_dmp_motion_driver.c ****         dmp_set_shake_reject_time(40);
1077:MyHardWare/eMPL/inv_mpu_dmp_motion_driver.c ****         dmp_set_shake_reject_timeout(10);
1078:MyHardWare/eMPL/inv_mpu_dmp_motion_driver.c ****     } else {
1079:MyHardWare/eMPL/inv_mpu_dmp_motion_driver.c ****         tmp[0] = 0xD8;
1080:MyHardWare/eMPL/inv_mpu_dmp_motion_driver.c ****         mpu_write_mem(CFG_20, 1, tmp);
1081:MyHardWare/eMPL/inv_mpu_dmp_motion_driver.c ****     }
1082:MyHardWare/eMPL/inv_mpu_dmp_motion_driver.c **** 
1083:MyHardWare/eMPL/inv_mpu_dmp_motion_driver.c ****     if (mask & DMP_FEATURE_ANDROID_ORIENT) {
1084:MyHardWare/eMPL/inv_mpu_dmp_motion_driver.c ****         tmp[0] = 0xD9;
1085:MyHardWare/eMPL/inv_mpu_dmp_motion_driver.c ****     } else
1086:MyHardWare/eMPL/inv_mpu_dmp_motion_driver.c ****         tmp[0] = 0xD8;
1087:MyHardWare/eMPL/inv_mpu_dmp_motion_driver.c ****     mpu_write_mem(CFG_ANDROID_ORIENT_INT, 1, tmp);
1088:MyHardWare/eMPL/inv_mpu_dmp_motion_driver.c **** 
1089:MyHardWare/eMPL/inv_mpu_dmp_motion_driver.c ****     if (mask & DMP_FEATURE_LP_QUAT)
1090:MyHardWare/eMPL/inv_mpu_dmp_motion_driver.c ****         dmp_enable_lp_quat(1);
1091:MyHardWare/eMPL/inv_mpu_dmp_motion_driver.c ****     else
1092:MyHardWare/eMPL/inv_mpu_dmp_motion_driver.c ****         dmp_enable_lp_quat(0);
1093:MyHardWare/eMPL/inv_mpu_dmp_motion_driver.c **** 
1094:MyHardWare/eMPL/inv_mpu_dmp_motion_driver.c ****     if (mask & DMP_FEATURE_6X_LP_QUAT)
1095:MyHardWare/eMPL/inv_mpu_dmp_motion_driver.c ****         dmp_enable_6x_lp_quat(1);
1096:MyHardWare/eMPL/inv_mpu_dmp_motion_driver.c ****     else
1097:MyHardWare/eMPL/inv_mpu_dmp_motion_driver.c ****         dmp_enable_6x_lp_quat(0);
1098:MyHardWare/eMPL/inv_mpu_dmp_motion_driver.c **** 
1099:MyHardWare/eMPL/inv_mpu_dmp_motion_driver.c ****     /* Pedometer is always enabled. */
1100:MyHardWare/eMPL/inv_mpu_dmp_motion_driver.c ****     dmp.feature_mask = mask | DMP_FEATURE_PEDOMETER;
1101:MyHardWare/eMPL/inv_mpu_dmp_motion_driver.c ****     mpu_reset_fifo();
1102:MyHardWare/eMPL/inv_mpu_dmp_motion_driver.c **** 
1103:MyHardWare/eMPL/inv_mpu_dmp_motion_driver.c ****     dmp.packet_length = 0;
1104:MyHardWare/eMPL/inv_mpu_dmp_motion_driver.c ****     if (mask & DMP_FEATURE_SEND_RAW_ACCEL)
1105:MyHardWare/eMPL/inv_mpu_dmp_motion_driver.c ****         dmp.packet_length += 6;
1106:MyHardWare/eMPL/inv_mpu_dmp_motion_driver.c ****     if (mask & DMP_FEATURE_SEND_ANY_GYRO)
1107:MyHardWare/eMPL/inv_mpu_dmp_motion_driver.c ****         dmp.packet_length += 6;
1108:MyHardWare/eMPL/inv_mpu_dmp_motion_driver.c ****     if (mask & (DMP_FEATURE_LP_QUAT | DMP_FEATURE_6X_LP_QUAT))
1109:MyHardWare/eMPL/inv_mpu_dmp_motion_driver.c ****         dmp.packet_length += 16;
1110:MyHardWare/eMPL/inv_mpu_dmp_motion_driver.c ****     if (mask & (DMP_FEATURE_TAP | DMP_FEATURE_ANDROID_ORIENT))
1111:MyHardWare/eMPL/inv_mpu_dmp_motion_driver.c ****         dmp.packet_length += 4;
1112:MyHardWare/eMPL/inv_mpu_dmp_motion_driver.c **** 
1113:MyHardWare/eMPL/inv_mpu_dmp_motion_driver.c ****     return 0;
ARM GAS  /tmp/cckrZnTL.s 			page 21


1114:MyHardWare/eMPL/inv_mpu_dmp_motion_driver.c **** }
1115:MyHardWare/eMPL/inv_mpu_dmp_motion_driver.c **** 
1116:MyHardWare/eMPL/inv_mpu_dmp_motion_driver.c **** /**
1117:MyHardWare/eMPL/inv_mpu_dmp_motion_driver.c ****  *  @brief      Get list of currently enabled DMP features.
1118:MyHardWare/eMPL/inv_mpu_dmp_motion_driver.c ****  *  @param[out] Mask of enabled features.
1119:MyHardWare/eMPL/inv_mpu_dmp_motion_driver.c ****  *  @return     0 if successful.
1120:MyHardWare/eMPL/inv_mpu_dmp_motion_driver.c ****  */
1121:MyHardWare/eMPL/inv_mpu_dmp_motion_driver.c **** int dmp_get_enabled_features(unsigned short *mask)
1122:MyHardWare/eMPL/inv_mpu_dmp_motion_driver.c **** {
1123:MyHardWare/eMPL/inv_mpu_dmp_motion_driver.c ****     mask[0] = dmp.feature_mask;
1124:MyHardWare/eMPL/inv_mpu_dmp_motion_driver.c ****     return 0;
1125:MyHardWare/eMPL/inv_mpu_dmp_motion_driver.c **** }
1126:MyHardWare/eMPL/inv_mpu_dmp_motion_driver.c **** 
1127:MyHardWare/eMPL/inv_mpu_dmp_motion_driver.c **** /**
1128:MyHardWare/eMPL/inv_mpu_dmp_motion_driver.c ****  *  @brief      Calibrate the gyro data in the DMP.
1129:MyHardWare/eMPL/inv_mpu_dmp_motion_driver.c ****  *  After eight seconds of no motion, the DMP will compute gyro biases and
1130:MyHardWare/eMPL/inv_mpu_dmp_motion_driver.c ****  *  subtract them from the quaternion output. If @e dmp_enable_feature is
1131:MyHardWare/eMPL/inv_mpu_dmp_motion_driver.c ****  *  called with @e DMP_FEATURE_SEND_CAL_GYRO, the biases will also be
1132:MyHardWare/eMPL/inv_mpu_dmp_motion_driver.c ****  *  subtracted from the gyro output.
1133:MyHardWare/eMPL/inv_mpu_dmp_motion_driver.c ****  *  @param[in]  enable  1 to enable gyro calibration.
1134:MyHardWare/eMPL/inv_mpu_dmp_motion_driver.c ****  *  @return     0 if successful.
1135:MyHardWare/eMPL/inv_mpu_dmp_motion_driver.c ****  */
1136:MyHardWare/eMPL/inv_mpu_dmp_motion_driver.c **** int dmp_enable_gyro_cal(unsigned char enable)
1137:MyHardWare/eMPL/inv_mpu_dmp_motion_driver.c **** {
1138:MyHardWare/eMPL/inv_mpu_dmp_motion_driver.c ****     if (enable) {
1139:MyHardWare/eMPL/inv_mpu_dmp_motion_driver.c ****         unsigned char regs[9] = {0xb8, 0xaa, 0xb3, 0x8d, 0xb4, 0x98, 0x0d, 0x35, 0x5d};
1140:MyHardWare/eMPL/inv_mpu_dmp_motion_driver.c ****         return mpu_write_mem(CFG_MOTION_BIAS, 9, regs);
1141:MyHardWare/eMPL/inv_mpu_dmp_motion_driver.c ****     } else {
1142:MyHardWare/eMPL/inv_mpu_dmp_motion_driver.c ****         unsigned char regs[9] = {0xb8, 0xaa, 0xaa, 0xaa, 0xb0, 0x88, 0xc3, 0xc5, 0xc7};
1143:MyHardWare/eMPL/inv_mpu_dmp_motion_driver.c ****         return mpu_write_mem(CFG_MOTION_BIAS, 9, regs);
1144:MyHardWare/eMPL/inv_mpu_dmp_motion_driver.c ****     }
1145:MyHardWare/eMPL/inv_mpu_dmp_motion_driver.c **** }
1146:MyHardWare/eMPL/inv_mpu_dmp_motion_driver.c **** 
1147:MyHardWare/eMPL/inv_mpu_dmp_motion_driver.c **** /**
1148:MyHardWare/eMPL/inv_mpu_dmp_motion_driver.c ****  *  @brief      Generate 3-axis quaternions from the DMP.
1149:MyHardWare/eMPL/inv_mpu_dmp_motion_driver.c ****  *  In this driver, the 3-axis and 6-axis DMP quaternion features are mutually
1150:MyHardWare/eMPL/inv_mpu_dmp_motion_driver.c ****  *  exclusive.
1151:MyHardWare/eMPL/inv_mpu_dmp_motion_driver.c ****  *  @param[in]  enable  1 to enable 3-axis quaternion.
1152:MyHardWare/eMPL/inv_mpu_dmp_motion_driver.c ****  *  @return     0 if successful.
1153:MyHardWare/eMPL/inv_mpu_dmp_motion_driver.c ****  */
1154:MyHardWare/eMPL/inv_mpu_dmp_motion_driver.c **** int dmp_enable_lp_quat(unsigned char enable)
1155:MyHardWare/eMPL/inv_mpu_dmp_motion_driver.c **** {
1156:MyHardWare/eMPL/inv_mpu_dmp_motion_driver.c ****     unsigned char regs[4];
1157:MyHardWare/eMPL/inv_mpu_dmp_motion_driver.c ****     if (enable) {
1158:MyHardWare/eMPL/inv_mpu_dmp_motion_driver.c ****         regs[0] = DINBC0;
1159:MyHardWare/eMPL/inv_mpu_dmp_motion_driver.c ****         regs[1] = DINBC2;
1160:MyHardWare/eMPL/inv_mpu_dmp_motion_driver.c ****         regs[2] = DINBC4;
1161:MyHardWare/eMPL/inv_mpu_dmp_motion_driver.c ****         regs[3] = DINBC6;
1162:MyHardWare/eMPL/inv_mpu_dmp_motion_driver.c ****     }
1163:MyHardWare/eMPL/inv_mpu_dmp_motion_driver.c ****     else
1164:MyHardWare/eMPL/inv_mpu_dmp_motion_driver.c ****         memset(regs, 0x8B, 4);
1165:MyHardWare/eMPL/inv_mpu_dmp_motion_driver.c **** 
1166:MyHardWare/eMPL/inv_mpu_dmp_motion_driver.c ****     mpu_write_mem(CFG_LP_QUAT, 4, regs);
1167:MyHardWare/eMPL/inv_mpu_dmp_motion_driver.c **** 
1168:MyHardWare/eMPL/inv_mpu_dmp_motion_driver.c ****     return mpu_reset_fifo();
1169:MyHardWare/eMPL/inv_mpu_dmp_motion_driver.c **** }
1170:MyHardWare/eMPL/inv_mpu_dmp_motion_driver.c **** 
ARM GAS  /tmp/cckrZnTL.s 			page 22


1171:MyHardWare/eMPL/inv_mpu_dmp_motion_driver.c **** /**
1172:MyHardWare/eMPL/inv_mpu_dmp_motion_driver.c ****  *  @brief       Generate 6-axis quaternions from the DMP.
1173:MyHardWare/eMPL/inv_mpu_dmp_motion_driver.c ****  *  In this driver, the 3-axis and 6-axis DMP quaternion features are mutually
1174:MyHardWare/eMPL/inv_mpu_dmp_motion_driver.c ****  *  exclusive.
1175:MyHardWare/eMPL/inv_mpu_dmp_motion_driver.c ****  *  @param[in]   enable  1 to enable 6-axis quaternion.
1176:MyHardWare/eMPL/inv_mpu_dmp_motion_driver.c ****  *  @return      0 if successful.
1177:MyHardWare/eMPL/inv_mpu_dmp_motion_driver.c ****  */
1178:MyHardWare/eMPL/inv_mpu_dmp_motion_driver.c **** int dmp_enable_6x_lp_quat(unsigned char enable)
1179:MyHardWare/eMPL/inv_mpu_dmp_motion_driver.c **** {
1180:MyHardWare/eMPL/inv_mpu_dmp_motion_driver.c ****     unsigned char regs[4];
1181:MyHardWare/eMPL/inv_mpu_dmp_motion_driver.c ****     if (enable) {
1182:MyHardWare/eMPL/inv_mpu_dmp_motion_driver.c ****         regs[0] = DINA20;
1183:MyHardWare/eMPL/inv_mpu_dmp_motion_driver.c ****         regs[1] = DINA28;
1184:MyHardWare/eMPL/inv_mpu_dmp_motion_driver.c ****         regs[2] = DINA30;
1185:MyHardWare/eMPL/inv_mpu_dmp_motion_driver.c ****         regs[3] = DINA38;
1186:MyHardWare/eMPL/inv_mpu_dmp_motion_driver.c ****     } else
1187:MyHardWare/eMPL/inv_mpu_dmp_motion_driver.c ****         memset(regs, 0xA3, 4);
1188:MyHardWare/eMPL/inv_mpu_dmp_motion_driver.c **** 
1189:MyHardWare/eMPL/inv_mpu_dmp_motion_driver.c ****     mpu_write_mem(CFG_8, 4, regs);
1190:MyHardWare/eMPL/inv_mpu_dmp_motion_driver.c **** 
1191:MyHardWare/eMPL/inv_mpu_dmp_motion_driver.c ****     return mpu_reset_fifo();
1192:MyHardWare/eMPL/inv_mpu_dmp_motion_driver.c **** }
1193:MyHardWare/eMPL/inv_mpu_dmp_motion_driver.c **** 
1194:MyHardWare/eMPL/inv_mpu_dmp_motion_driver.c **** /**
1195:MyHardWare/eMPL/inv_mpu_dmp_motion_driver.c ****  *  @brief      Decode the four-byte gesture data and execute any callbacks.
1196:MyHardWare/eMPL/inv_mpu_dmp_motion_driver.c ****  *  @param[in]  gesture Gesture data from DMP packet.
1197:MyHardWare/eMPL/inv_mpu_dmp_motion_driver.c ****  *  @return     0 if successful.
1198:MyHardWare/eMPL/inv_mpu_dmp_motion_driver.c ****  */
1199:MyHardWare/eMPL/inv_mpu_dmp_motion_driver.c **** static int decode_gesture(unsigned char *gesture)
1200:MyHardWare/eMPL/inv_mpu_dmp_motion_driver.c **** {
  29              		.loc 1 1200 1 view -0
  30              		.cfi_startproc
  31              		@ args = 0, pretend = 0, frame = 0
  32              		@ frame_needed = 0, uses_anonymous_args = 0
  33              		.loc 1 1200 1 is_stmt 0 view .LVU1
  34 0000 38B5     		push	{r3, r4, r5, lr}
  35              	.LCFI0:
  36              		.cfi_def_cfa_offset 16
  37              		.cfi_offset 3, -16
  38              		.cfi_offset 4, -12
  39              		.cfi_offset 5, -8
  40              		.cfi_offset 14, -4
  41 0002 0446     		mov	r4, r0
1201:MyHardWare/eMPL/inv_mpu_dmp_motion_driver.c ****     unsigned char tap, android_orient;
  42              		.loc 1 1201 5 is_stmt 1 view .LVU2
1202:MyHardWare/eMPL/inv_mpu_dmp_motion_driver.c **** 
1203:MyHardWare/eMPL/inv_mpu_dmp_motion_driver.c ****     android_orient = gesture[3] & 0xC0;
  43              		.loc 1 1203 5 view .LVU3
  44              		.loc 1 1203 29 is_stmt 0 view .LVU4
  45 0004 C578     		ldrb	r5, [r0, #3]	@ zero_extendqisi2
  46              	.LVL1:
1204:MyHardWare/eMPL/inv_mpu_dmp_motion_driver.c ****     tap = 0x3F & gesture[3];
  47              		.loc 1 1204 5 is_stmt 1 view .LVU5
1205:MyHardWare/eMPL/inv_mpu_dmp_motion_driver.c **** 
1206:MyHardWare/eMPL/inv_mpu_dmp_motion_driver.c ****     if (gesture[1] & INT_SRC_TAP) {
  48              		.loc 1 1206 5 view .LVU6
  49              		.loc 1 1206 16 is_stmt 0 view .LVU7
ARM GAS  /tmp/cckrZnTL.s 			page 23


  50 0006 4378     		ldrb	r3, [r0, #1]	@ zero_extendqisi2
  51              		.loc 1 1206 8 view .LVU8
  52 0008 13F0010F 		tst	r3, #1
  53 000c 09D0     		beq	.L2
  54 000e 05F03F00 		and	r0, r5, #63
  55              	.LVL2:
  56              	.LBB2:
1207:MyHardWare/eMPL/inv_mpu_dmp_motion_driver.c ****         unsigned char direction, count;
  57              		.loc 1 1207 9 is_stmt 1 view .LVU9
1208:MyHardWare/eMPL/inv_mpu_dmp_motion_driver.c ****         direction = tap >> 3;
  58              		.loc 1 1208 9 view .LVU10
  59              		.loc 1 1208 19 is_stmt 0 view .LVU11
  60 0012 C008     		lsrs	r0, r0, #3
  61              	.LVL3:
1209:MyHardWare/eMPL/inv_mpu_dmp_motion_driver.c ****         count = (tap % 8) + 1;
  62              		.loc 1 1209 9 is_stmt 1 view .LVU12
  63              		.loc 1 1209 22 is_stmt 0 view .LVU13
  64 0014 05F00701 		and	r1, r5, #7
  65              		.loc 1 1209 15 view .LVU14
  66 0018 0131     		adds	r1, r1, #1
  67              	.LVL4:
1210:MyHardWare/eMPL/inv_mpu_dmp_motion_driver.c ****         if (dmp.tap_cb)
  68              		.loc 1 1210 9 is_stmt 1 view .LVU15
  69              		.loc 1 1210 16 is_stmt 0 view .LVU16
  70 001a 074B     		ldr	r3, .L5
  71 001c 1B68     		ldr	r3, [r3]
  72              		.loc 1 1210 12 view .LVU17
  73 001e 03B1     		cbz	r3, .L2
1211:MyHardWare/eMPL/inv_mpu_dmp_motion_driver.c ****             dmp.tap_cb(direction, count);
  74              		.loc 1 1211 13 is_stmt 1 view .LVU18
  75 0020 9847     		blx	r3
  76              	.LVL5:
  77              	.L2:
  78              		.loc 1 1211 13 is_stmt 0 view .LVU19
  79              	.LBE2:
1212:MyHardWare/eMPL/inv_mpu_dmp_motion_driver.c ****     }
1213:MyHardWare/eMPL/inv_mpu_dmp_motion_driver.c **** 
1214:MyHardWare/eMPL/inv_mpu_dmp_motion_driver.c ****     if (gesture[1] & INT_SRC_ANDROID_ORIENT) {
  80              		.loc 1 1214 5 is_stmt 1 view .LVU20
  81              		.loc 1 1214 16 is_stmt 0 view .LVU21
  82 0022 6378     		ldrb	r3, [r4, #1]	@ zero_extendqisi2
  83              		.loc 1 1214 8 view .LVU22
  84 0024 13F0080F 		tst	r3, #8
  85 0028 04D0     		beq	.L3
1215:MyHardWare/eMPL/inv_mpu_dmp_motion_driver.c ****         if (dmp.android_orient_cb)
  86              		.loc 1 1215 9 is_stmt 1 view .LVU23
  87              		.loc 1 1215 16 is_stmt 0 view .LVU24
  88 002a 034B     		ldr	r3, .L5
  89 002c 5B68     		ldr	r3, [r3, #4]
  90              		.loc 1 1215 12 view .LVU25
  91 002e 0BB1     		cbz	r3, .L3
1216:MyHardWare/eMPL/inv_mpu_dmp_motion_driver.c ****             dmp.android_orient_cb(android_orient >> 6);
  92              		.loc 1 1216 13 is_stmt 1 view .LVU26
  93 0030 A809     		lsrs	r0, r5, #6
  94 0032 9847     		blx	r3
  95              	.LVL6:
  96              	.L3:
ARM GAS  /tmp/cckrZnTL.s 			page 24


1217:MyHardWare/eMPL/inv_mpu_dmp_motion_driver.c ****     }
1218:MyHardWare/eMPL/inv_mpu_dmp_motion_driver.c **** 
1219:MyHardWare/eMPL/inv_mpu_dmp_motion_driver.c ****     return 0;
  97              		.loc 1 1219 5 view .LVU27
1220:MyHardWare/eMPL/inv_mpu_dmp_motion_driver.c **** }
  98              		.loc 1 1220 1 is_stmt 0 view .LVU28
  99 0034 0020     		movs	r0, #0
 100 0036 38BD     		pop	{r3, r4, r5, pc}
 101              	.LVL7:
 102              	.L6:
 103              		.loc 1 1220 1 view .LVU29
 104              		.align	2
 105              	.L5:
 106 0038 00000000 		.word	dmp
 107              		.cfi_endproc
 108              	.LFE149:
 110              		.section	.text.dmp_load_motion_driver_firmware,"ax",%progbits
 111              		.align	1
 112              		.global	dmp_load_motion_driver_firmware
 113              		.syntax unified
 114              		.thumb
 115              		.thumb_func
 117              	dmp_load_motion_driver_firmware:
 118              	.LFB126:
 515:MyHardWare/eMPL/inv_mpu_dmp_motion_driver.c ****     return mpu_load_firmware(DMP_CODE_SIZE, dmp_memory, sStartAddress,
 119              		.loc 1 515 1 is_stmt 1 view -0
 120              		.cfi_startproc
 121              		@ args = 0, pretend = 0, frame = 0
 122              		@ frame_needed = 0, uses_anonymous_args = 0
 123 0000 08B5     		push	{r3, lr}
 124              	.LCFI1:
 125              		.cfi_def_cfa_offset 8
 126              		.cfi_offset 3, -8
 127              		.cfi_offset 14, -4
 516:MyHardWare/eMPL/inv_mpu_dmp_motion_driver.c ****         DMP_SAMPLE_RATE);
 128              		.loc 1 516 5 view .LVU31
 516:MyHardWare/eMPL/inv_mpu_dmp_motion_driver.c ****         DMP_SAMPLE_RATE);
 129              		.loc 1 516 12 is_stmt 0 view .LVU32
 130 0002 C823     		movs	r3, #200
 131 0004 4FF48062 		mov	r2, #1024
 132 0008 0249     		ldr	r1, .L9
 133 000a 40F6F630 		movw	r0, #3062
 134 000e FFF7FEFF 		bl	mpu_load_firmware
 135              	.LVL8:
 518:MyHardWare/eMPL/inv_mpu_dmp_motion_driver.c **** 
 136              		.loc 1 518 1 view .LVU33
 137 0012 08BD     		pop	{r3, pc}
 138              	.L10:
 139              		.align	2
 140              	.L9:
 141 0014 00000000 		.word	dmp_memory
 142              		.cfi_endproc
 143              	.LFE126:
 145              		.section	.rodata.dmp_set_orientation.str1.4,"aMS",%progbits,1
 146              		.align	2
 147              	.LC0:
 148 0000 4CCD6C00 		.ascii	"L\315l\000"
ARM GAS  /tmp/cckrZnTL.s 			page 25


 149              		.align	2
 150              	.LC1:
 151 0004 0CC92C00 		.ascii	"\014\311,\000"
 152              		.align	2
 153              	.LC2:
 154 0008 36567600 		.ascii	"6Vv\000"
 155              		.align	2
 156              	.LC3:
 157 000c 26466600 		.ascii	"&Ff\000"
 158              		.section	.text.dmp_set_orientation,"ax",%progbits
 159              		.align	1
 160              		.global	dmp_set_orientation
 161              		.syntax unified
 162              		.thumb
 163              		.thumb_func
 165              	dmp_set_orientation:
 166              	.LVL9:
 167              	.LFB127:
 528:MyHardWare/eMPL/inv_mpu_dmp_motion_driver.c ****     unsigned char gyro_regs[3], accel_regs[3];
 168              		.loc 1 528 1 is_stmt 1 view -0
 169              		.cfi_startproc
 170              		@ args = 0, pretend = 0, frame = 24
 171              		@ frame_needed = 0, uses_anonymous_args = 0
 528:MyHardWare/eMPL/inv_mpu_dmp_motion_driver.c ****     unsigned char gyro_regs[3], accel_regs[3];
 172              		.loc 1 528 1 is_stmt 0 view .LVU35
 173 0000 10B5     		push	{r4, lr}
 174              	.LCFI2:
 175              		.cfi_def_cfa_offset 8
 176              		.cfi_offset 4, -8
 177              		.cfi_offset 14, -4
 178 0002 86B0     		sub	sp, sp, #24
 179              	.LCFI3:
 180              		.cfi_def_cfa_offset 32
 181 0004 0446     		mov	r4, r0
 529:MyHardWare/eMPL/inv_mpu_dmp_motion_driver.c ****     const unsigned char gyro_axes[3] = {DINA4C, DINACD, DINA6C};
 182              		.loc 1 529 5 is_stmt 1 view .LVU36
 530:MyHardWare/eMPL/inv_mpu_dmp_motion_driver.c ****     const unsigned char accel_axes[3] = {DINA0C, DINAC9, DINA2C};
 183              		.loc 1 530 5 view .LVU37
 530:MyHardWare/eMPL/inv_mpu_dmp_motion_driver.c ****     const unsigned char accel_axes[3] = {DINA0C, DINAC9, DINA2C};
 184              		.loc 1 530 25 is_stmt 0 view .LVU38
 185 0006 4C4B     		ldr	r3, .L21
 186 0008 1B68     		ldr	r3, [r3]
 187 000a ADF80C30 		strh	r3, [sp, #12]	@ movhi
 188 000e 1B0C     		lsrs	r3, r3, #16
 189 0010 8DF80E30 		strb	r3, [sp, #14]
 531:MyHardWare/eMPL/inv_mpu_dmp_motion_driver.c ****     const unsigned char gyro_sign[3] = {DINA36, DINA56, DINA76};
 190              		.loc 1 531 5 is_stmt 1 view .LVU39
 531:MyHardWare/eMPL/inv_mpu_dmp_motion_driver.c ****     const unsigned char gyro_sign[3] = {DINA36, DINA56, DINA76};
 191              		.loc 1 531 25 is_stmt 0 view .LVU40
 192 0014 494B     		ldr	r3, .L21+4
 193 0016 1B68     		ldr	r3, [r3]
 194 0018 ADF80830 		strh	r3, [sp, #8]	@ movhi
 195 001c 1B0C     		lsrs	r3, r3, #16
 196 001e 8DF80A30 		strb	r3, [sp, #10]
 532:MyHardWare/eMPL/inv_mpu_dmp_motion_driver.c ****     const unsigned char accel_sign[3] = {DINA26, DINA46, DINA66};
 197              		.loc 1 532 5 is_stmt 1 view .LVU41
 532:MyHardWare/eMPL/inv_mpu_dmp_motion_driver.c ****     const unsigned char accel_sign[3] = {DINA26, DINA46, DINA66};
ARM GAS  /tmp/cckrZnTL.s 			page 26


 198              		.loc 1 532 25 is_stmt 0 view .LVU42
 199 0022 474B     		ldr	r3, .L21+8
 200 0024 1B68     		ldr	r3, [r3]
 201 0026 ADF80430 		strh	r3, [sp, #4]	@ movhi
 202 002a 1B0C     		lsrs	r3, r3, #16
 203 002c 8DF80630 		strb	r3, [sp, #6]
 533:MyHardWare/eMPL/inv_mpu_dmp_motion_driver.c **** 
 204              		.loc 1 533 5 is_stmt 1 view .LVU43
 533:MyHardWare/eMPL/inv_mpu_dmp_motion_driver.c **** 
 205              		.loc 1 533 25 is_stmt 0 view .LVU44
 206 0030 444B     		ldr	r3, .L21+12
 207 0032 1B68     		ldr	r3, [r3]
 208 0034 ADF80030 		strh	r3, [sp]	@ movhi
 209 0038 1B0C     		lsrs	r3, r3, #16
 210 003a 8DF80230 		strb	r3, [sp, #2]
 535:MyHardWare/eMPL/inv_mpu_dmp_motion_driver.c ****     gyro_regs[1] = gyro_axes[(orient >> 3) & 3];
 211              		.loc 1 535 5 is_stmt 1 view .LVU45
 535:MyHardWare/eMPL/inv_mpu_dmp_motion_driver.c ****     gyro_regs[1] = gyro_axes[(orient >> 3) & 3];
 212              		.loc 1 535 37 is_stmt 0 view .LVU46
 213 003e 00F00301 		and	r1, r0, #3
 535:MyHardWare/eMPL/inv_mpu_dmp_motion_driver.c ****     gyro_regs[1] = gyro_axes[(orient >> 3) & 3];
 214              		.loc 1 535 29 view .LVU47
 215 0042 01F11803 		add	r3, r1, #24
 216 0046 0DEB0301 		add	r1, sp, r3
 217 004a 11F80C3C 		ldrb	r3, [r1, #-12]	@ zero_extendqisi2
 535:MyHardWare/eMPL/inv_mpu_dmp_motion_driver.c ****     gyro_regs[1] = gyro_axes[(orient >> 3) & 3];
 218              		.loc 1 535 18 view .LVU48
 219 004e 8DF81430 		strb	r3, [sp, #20]
 536:MyHardWare/eMPL/inv_mpu_dmp_motion_driver.c ****     gyro_regs[2] = gyro_axes[(orient >> 6) & 3];
 220              		.loc 1 536 5 is_stmt 1 view .LVU49
 536:MyHardWare/eMPL/inv_mpu_dmp_motion_driver.c ****     gyro_regs[2] = gyro_axes[(orient >> 6) & 3];
 221              		.loc 1 536 44 is_stmt 0 view .LVU50
 222 0052 C0F3C102 		ubfx	r2, r0, #3, #2
 536:MyHardWare/eMPL/inv_mpu_dmp_motion_driver.c ****     gyro_regs[2] = gyro_axes[(orient >> 6) & 3];
 223              		.loc 1 536 29 view .LVU51
 224 0056 02F11803 		add	r3, r2, #24
 225 005a 0DEB0302 		add	r2, sp, r3
 226 005e 12F80C3C 		ldrb	r3, [r2, #-12]	@ zero_extendqisi2
 536:MyHardWare/eMPL/inv_mpu_dmp_motion_driver.c ****     gyro_regs[2] = gyro_axes[(orient >> 6) & 3];
 227              		.loc 1 536 18 view .LVU52
 228 0062 8DF81530 		strb	r3, [sp, #21]
 537:MyHardWare/eMPL/inv_mpu_dmp_motion_driver.c ****     accel_regs[0] = accel_axes[orient & 3];
 229              		.loc 1 537 5 is_stmt 1 view .LVU53
 537:MyHardWare/eMPL/inv_mpu_dmp_motion_driver.c ****     accel_regs[0] = accel_axes[orient & 3];
 230              		.loc 1 537 44 is_stmt 0 view .LVU54
 231 0066 C0F38113 		ubfx	r3, r0, #6, #2
 537:MyHardWare/eMPL/inv_mpu_dmp_motion_driver.c ****     accel_regs[0] = accel_axes[orient & 3];
 232              		.loc 1 537 29 view .LVU55
 233 006a 1833     		adds	r3, r3, #24
 234 006c 6B44     		add	r3, sp, r3
 235 006e 13F80C0C 		ldrb	r0, [r3, #-12]	@ zero_extendqisi2
 236              	.LVL10:
 537:MyHardWare/eMPL/inv_mpu_dmp_motion_driver.c ****     accel_regs[0] = accel_axes[orient & 3];
 237              		.loc 1 537 18 view .LVU56
 238 0072 8DF81600 		strb	r0, [sp, #22]
 538:MyHardWare/eMPL/inv_mpu_dmp_motion_driver.c ****     accel_regs[1] = accel_axes[(orient >> 3) & 3];
 239              		.loc 1 538 5 is_stmt 1 view .LVU57
ARM GAS  /tmp/cckrZnTL.s 			page 27


 538:MyHardWare/eMPL/inv_mpu_dmp_motion_driver.c ****     accel_regs[1] = accel_axes[(orient >> 3) & 3];
 240              		.loc 1 538 31 is_stmt 0 view .LVU58
 241 0076 11F8101C 		ldrb	r1, [r1, #-16]	@ zero_extendqisi2
 538:MyHardWare/eMPL/inv_mpu_dmp_motion_driver.c ****     accel_regs[1] = accel_axes[(orient >> 3) & 3];
 242              		.loc 1 538 19 view .LVU59
 243 007a 8DF81010 		strb	r1, [sp, #16]
 539:MyHardWare/eMPL/inv_mpu_dmp_motion_driver.c ****     accel_regs[2] = accel_axes[(orient >> 6) & 3];
 244              		.loc 1 539 5 is_stmt 1 view .LVU60
 539:MyHardWare/eMPL/inv_mpu_dmp_motion_driver.c ****     accel_regs[2] = accel_axes[(orient >> 6) & 3];
 245              		.loc 1 539 31 is_stmt 0 view .LVU61
 246 007e 12F8102C 		ldrb	r2, [r2, #-16]	@ zero_extendqisi2
 539:MyHardWare/eMPL/inv_mpu_dmp_motion_driver.c ****     accel_regs[2] = accel_axes[(orient >> 6) & 3];
 247              		.loc 1 539 19 view .LVU62
 248 0082 8DF81120 		strb	r2, [sp, #17]
 540:MyHardWare/eMPL/inv_mpu_dmp_motion_driver.c **** 
 249              		.loc 1 540 5 is_stmt 1 view .LVU63
 540:MyHardWare/eMPL/inv_mpu_dmp_motion_driver.c **** 
 250              		.loc 1 540 31 is_stmt 0 view .LVU64
 251 0086 13F8103C 		ldrb	r3, [r3, #-16]	@ zero_extendqisi2
 540:MyHardWare/eMPL/inv_mpu_dmp_motion_driver.c **** 
 252              		.loc 1 540 19 view .LVU65
 253 008a 8DF81230 		strb	r3, [sp, #18]
 543:MyHardWare/eMPL/inv_mpu_dmp_motion_driver.c ****         return -1;
 254              		.loc 1 543 5 is_stmt 1 view .LVU66
 543:MyHardWare/eMPL/inv_mpu_dmp_motion_driver.c ****         return -1;
 255              		.loc 1 543 9 is_stmt 0 view .LVU67
 256 008e 05AA     		add	r2, sp, #20
 257 0090 0321     		movs	r1, #3
 258 0092 40F22640 		movw	r0, #1062
 259 0096 FFF7FEFF 		bl	mpu_write_mem
 260              	.LVL11:
 543:MyHardWare/eMPL/inv_mpu_dmp_motion_driver.c ****         return -1;
 261              		.loc 1 543 8 discriminator 1 view .LVU68
 262 009a 0028     		cmp	r0, #0
 263 009c 40D1     		bne	.L16
 545:MyHardWare/eMPL/inv_mpu_dmp_motion_driver.c ****         return -1;
 264              		.loc 1 545 5 is_stmt 1 view .LVU69
 545:MyHardWare/eMPL/inv_mpu_dmp_motion_driver.c ****         return -1;
 265              		.loc 1 545 9 is_stmt 0 view .LVU70
 266 009e 04AA     		add	r2, sp, #16
 267 00a0 0321     		movs	r1, #3
 268 00a2 40F22A40 		movw	r0, #1066
 269 00a6 FFF7FEFF 		bl	mpu_write_mem
 270              	.LVL12:
 545:MyHardWare/eMPL/inv_mpu_dmp_motion_driver.c ****         return -1;
 271              		.loc 1 545 8 discriminator 1 view .LVU71
 272 00aa 0028     		cmp	r0, #0
 273 00ac 3BD1     		bne	.L17
 548:MyHardWare/eMPL/inv_mpu_dmp_motion_driver.c ****     memcpy(accel_regs, accel_sign, 3);
 274              		.loc 1 548 5 is_stmt 1 view .LVU72
 275 00ae 019B     		ldr	r3, [sp, #4]
 276 00b0 ADF81430 		strh	r3, [sp, #20]	@ movhi
 277 00b4 1B0C     		lsrs	r3, r3, #16
 278 00b6 8DF81630 		strb	r3, [sp, #22]
 549:MyHardWare/eMPL/inv_mpu_dmp_motion_driver.c ****     if (orient & 4) {
 279              		.loc 1 549 5 view .LVU73
 280 00ba 009B     		ldr	r3, [sp]
ARM GAS  /tmp/cckrZnTL.s 			page 28


 281 00bc ADF81030 		strh	r3, [sp, #16]	@ movhi
 282 00c0 1B0C     		lsrs	r3, r3, #16
 283 00c2 8DF81230 		strb	r3, [sp, #18]
 550:MyHardWare/eMPL/inv_mpu_dmp_motion_driver.c ****         gyro_regs[0] |= 1;
 284              		.loc 1 550 5 view .LVU74
 550:MyHardWare/eMPL/inv_mpu_dmp_motion_driver.c ****         gyro_regs[0] |= 1;
 285              		.loc 1 550 8 is_stmt 0 view .LVU75
 286 00c6 14F0040F 		tst	r4, #4
 287 00ca 05D0     		beq	.L13
 551:MyHardWare/eMPL/inv_mpu_dmp_motion_driver.c ****         accel_regs[0] |= 1;
 288              		.loc 1 551 9 is_stmt 1 view .LVU76
 551:MyHardWare/eMPL/inv_mpu_dmp_motion_driver.c ****         accel_regs[0] |= 1;
 289              		.loc 1 551 22 is_stmt 0 view .LVU77
 290 00cc 3723     		movs	r3, #55
 291 00ce 8DF81430 		strb	r3, [sp, #20]
 552:MyHardWare/eMPL/inv_mpu_dmp_motion_driver.c ****     }
 292              		.loc 1 552 9 is_stmt 1 view .LVU78
 552:MyHardWare/eMPL/inv_mpu_dmp_motion_driver.c ****     }
 293              		.loc 1 552 23 is_stmt 0 view .LVU79
 294 00d2 2723     		movs	r3, #39
 295 00d4 8DF81030 		strb	r3, [sp, #16]
 296              	.L13:
 554:MyHardWare/eMPL/inv_mpu_dmp_motion_driver.c ****         gyro_regs[1] |= 1;
 297              		.loc 1 554 5 is_stmt 1 view .LVU80
 554:MyHardWare/eMPL/inv_mpu_dmp_motion_driver.c ****         gyro_regs[1] |= 1;
 298              		.loc 1 554 8 is_stmt 0 view .LVU81
 299 00d8 14F0200F 		tst	r4, #32
 300 00dc 05D0     		beq	.L14
 555:MyHardWare/eMPL/inv_mpu_dmp_motion_driver.c ****         accel_regs[1] |= 1;
 301              		.loc 1 555 9 is_stmt 1 view .LVU82
 555:MyHardWare/eMPL/inv_mpu_dmp_motion_driver.c ****         accel_regs[1] |= 1;
 302              		.loc 1 555 22 is_stmt 0 view .LVU83
 303 00de 5723     		movs	r3, #87
 304 00e0 8DF81530 		strb	r3, [sp, #21]
 556:MyHardWare/eMPL/inv_mpu_dmp_motion_driver.c ****     }
 305              		.loc 1 556 9 is_stmt 1 view .LVU84
 556:MyHardWare/eMPL/inv_mpu_dmp_motion_driver.c ****     }
 306              		.loc 1 556 23 is_stmt 0 view .LVU85
 307 00e4 4723     		movs	r3, #71
 308 00e6 8DF81130 		strb	r3, [sp, #17]
 309              	.L14:
 558:MyHardWare/eMPL/inv_mpu_dmp_motion_driver.c ****         gyro_regs[2] |= 1;
 310              		.loc 1 558 5 is_stmt 1 view .LVU86
 558:MyHardWare/eMPL/inv_mpu_dmp_motion_driver.c ****         gyro_regs[2] |= 1;
 311              		.loc 1 558 8 is_stmt 0 view .LVU87
 312 00ea 14F4807F 		tst	r4, #256
 313 00ee 05D0     		beq	.L15
 559:MyHardWare/eMPL/inv_mpu_dmp_motion_driver.c ****         accel_regs[2] |= 1;
 314              		.loc 1 559 9 is_stmt 1 view .LVU88
 559:MyHardWare/eMPL/inv_mpu_dmp_motion_driver.c ****         accel_regs[2] |= 1;
 315              		.loc 1 559 22 is_stmt 0 view .LVU89
 316 00f0 7723     		movs	r3, #119
 317 00f2 8DF81630 		strb	r3, [sp, #22]
 560:MyHardWare/eMPL/inv_mpu_dmp_motion_driver.c ****     }
 318              		.loc 1 560 9 is_stmt 1 view .LVU90
 560:MyHardWare/eMPL/inv_mpu_dmp_motion_driver.c ****     }
 319              		.loc 1 560 23 is_stmt 0 view .LVU91
ARM GAS  /tmp/cckrZnTL.s 			page 29


 320 00f6 6723     		movs	r3, #103
 321 00f8 8DF81230 		strb	r3, [sp, #18]
 322              	.L15:
 564:MyHardWare/eMPL/inv_mpu_dmp_motion_driver.c ****         return -1;
 323              		.loc 1 564 5 is_stmt 1 view .LVU92
 564:MyHardWare/eMPL/inv_mpu_dmp_motion_driver.c ****         return -1;
 324              		.loc 1 564 9 is_stmt 0 view .LVU93
 325 00fc 05AA     		add	r2, sp, #20
 326 00fe 0321     		movs	r1, #3
 327 0100 4FF48860 		mov	r0, #1088
 328 0104 FFF7FEFF 		bl	mpu_write_mem
 329              	.LVL13:
 564:MyHardWare/eMPL/inv_mpu_dmp_motion_driver.c ****         return -1;
 330              		.loc 1 564 8 discriminator 1 view .LVU94
 331 0108 80B9     		cbnz	r0, .L18
 566:MyHardWare/eMPL/inv_mpu_dmp_motion_driver.c ****         return -1;
 332              		.loc 1 566 5 is_stmt 1 view .LVU95
 566:MyHardWare/eMPL/inv_mpu_dmp_motion_driver.c ****         return -1;
 333              		.loc 1 566 9 is_stmt 0 view .LVU96
 334 010a 04AA     		add	r2, sp, #16
 335 010c 0321     		movs	r1, #3
 336 010e 40F23140 		movw	r0, #1073
 337 0112 FFF7FEFF 		bl	mpu_write_mem
 338              	.LVL14:
 566:MyHardWare/eMPL/inv_mpu_dmp_motion_driver.c ****         return -1;
 339              		.loc 1 566 8 discriminator 1 view .LVU97
 340 0116 60B9     		cbnz	r0, .L19
 568:MyHardWare/eMPL/inv_mpu_dmp_motion_driver.c ****     return 0;
 341              		.loc 1 568 5 is_stmt 1 view .LVU98
 568:MyHardWare/eMPL/inv_mpu_dmp_motion_driver.c ****     return 0;
 342              		.loc 1 568 16 is_stmt 0 view .LVU99
 343 0118 0B4B     		ldr	r3, .L21+16
 344 011a 1C81     		strh	r4, [r3, #8]	@ movhi
 569:MyHardWare/eMPL/inv_mpu_dmp_motion_driver.c **** }
 345              		.loc 1 569 5 is_stmt 1 view .LVU100
 346              	.L11:
 570:MyHardWare/eMPL/inv_mpu_dmp_motion_driver.c **** 
 347              		.loc 1 570 1 is_stmt 0 view .LVU101
 348 011c 06B0     		add	sp, sp, #24
 349              	.LCFI4:
 350              		.cfi_remember_state
 351              		.cfi_def_cfa_offset 8
 352              		@ sp needed
 353 011e 10BD     		pop	{r4, pc}
 354              	.LVL15:
 355              	.L16:
 356              	.LCFI5:
 357              		.cfi_restore_state
 544:MyHardWare/eMPL/inv_mpu_dmp_motion_driver.c ****     if (mpu_write_mem(FCFG_2, 3, accel_regs))
 358              		.loc 1 544 16 view .LVU102
 359 0120 4FF0FF30 		mov	r0, #-1
 360 0124 FAE7     		b	.L11
 361              	.L17:
 546:MyHardWare/eMPL/inv_mpu_dmp_motion_driver.c **** 
 362              		.loc 1 546 16 view .LVU103
 363 0126 4FF0FF30 		mov	r0, #-1
 364 012a F7E7     		b	.L11
ARM GAS  /tmp/cckrZnTL.s 			page 30


 365              	.L18:
 565:MyHardWare/eMPL/inv_mpu_dmp_motion_driver.c ****     if (mpu_write_mem(FCFG_7, 3, accel_regs))
 366              		.loc 1 565 16 view .LVU104
 367 012c 4FF0FF30 		mov	r0, #-1
 368 0130 F4E7     		b	.L11
 369              	.L19:
 567:MyHardWare/eMPL/inv_mpu_dmp_motion_driver.c ****     dmp.orient = orient;
 370              		.loc 1 567 16 view .LVU105
 371 0132 4FF0FF30 		mov	r0, #-1
 372 0136 F1E7     		b	.L11
 373              	.L22:
 374              		.align	2
 375              	.L21:
 376 0138 00000000 		.word	.LC0
 377 013c 04000000 		.word	.LC1
 378 0140 08000000 		.word	.LC2
 379 0144 0C000000 		.word	.LC3
 380 0148 00000000 		.word	dmp
 381              		.cfi_endproc
 382              	.LFE127:
 384              		.section	.text.dmp_set_gyro_bias,"ax",%progbits
 385              		.align	1
 386              		.global	dmp_set_gyro_bias
 387              		.syntax unified
 388              		.thumb
 389              		.thumb_func
 391              	dmp_set_gyro_bias:
 392              	.LVL16:
 393              	.LFB128:
 583:MyHardWare/eMPL/inv_mpu_dmp_motion_driver.c ****     long gyro_bias_body[3];
 394              		.loc 1 583 1 is_stmt 1 view -0
 395              		.cfi_startproc
 396              		@ args = 0, pretend = 0, frame = 16
 397              		@ frame_needed = 0, uses_anonymous_args = 0
 583:MyHardWare/eMPL/inv_mpu_dmp_motion_driver.c ****     long gyro_bias_body[3];
 398              		.loc 1 583 1 is_stmt 0 view .LVU107
 399 0000 70B5     		push	{r4, r5, r6, lr}
 400              	.LCFI6:
 401              		.cfi_def_cfa_offset 16
 402              		.cfi_offset 4, -16
 403              		.cfi_offset 5, -12
 404              		.cfi_offset 6, -8
 405              		.cfi_offset 14, -4
 406 0002 84B0     		sub	sp, sp, #16
 407              	.LCFI7:
 408              		.cfi_def_cfa_offset 32
 584:MyHardWare/eMPL/inv_mpu_dmp_motion_driver.c ****     unsigned char regs[4];
 409              		.loc 1 584 5 is_stmt 1 view .LVU108
 585:MyHardWare/eMPL/inv_mpu_dmp_motion_driver.c **** 
 410              		.loc 1 585 5 view .LVU109
 587:MyHardWare/eMPL/inv_mpu_dmp_motion_driver.c ****     if (dmp.orient & 4)
 411              		.loc 1 587 5 view .LVU110
 587:MyHardWare/eMPL/inv_mpu_dmp_motion_driver.c ****     if (dmp.orient & 4)
 412              		.loc 1 587 33 is_stmt 0 view .LVU111
 413 0004 404B     		ldr	r3, .L31
 414 0006 1B89     		ldrh	r3, [r3, #8]
 587:MyHardWare/eMPL/inv_mpu_dmp_motion_driver.c ****     if (dmp.orient & 4)
ARM GAS  /tmp/cckrZnTL.s 			page 31


 415              		.loc 1 587 41 view .LVU112
 416 0008 03F00302 		and	r2, r3, #3
 587:MyHardWare/eMPL/inv_mpu_dmp_motion_driver.c ****     if (dmp.orient & 4)
 417              		.loc 1 587 29 view .LVU113
 418 000c 50F82220 		ldr	r2, [r0, r2, lsl #2]
 587:MyHardWare/eMPL/inv_mpu_dmp_motion_driver.c ****     if (dmp.orient & 4)
 419              		.loc 1 587 23 view .LVU114
 420 0010 0192     		str	r2, [sp, #4]
 588:MyHardWare/eMPL/inv_mpu_dmp_motion_driver.c ****         gyro_bias_body[0] *= -1;
 421              		.loc 1 588 5 is_stmt 1 view .LVU115
 588:MyHardWare/eMPL/inv_mpu_dmp_motion_driver.c ****         gyro_bias_body[0] *= -1;
 422              		.loc 1 588 8 is_stmt 0 view .LVU116
 423 0012 13F0040F 		tst	r3, #4
 424 0016 01D0     		beq	.L24
 589:MyHardWare/eMPL/inv_mpu_dmp_motion_driver.c ****     gyro_bias_body[1] = bias[(dmp.orient >> 3) & 3];
 425              		.loc 1 589 9 is_stmt 1 view .LVU117
 589:MyHardWare/eMPL/inv_mpu_dmp_motion_driver.c ****     gyro_bias_body[1] = bias[(dmp.orient >> 3) & 3];
 426              		.loc 1 589 27 is_stmt 0 view .LVU118
 427 0018 5242     		rsbs	r2, r2, #0
 428 001a 0192     		str	r2, [sp, #4]
 429              	.L24:
 590:MyHardWare/eMPL/inv_mpu_dmp_motion_driver.c ****     if (dmp.orient & 0x20)
 430              		.loc 1 590 5 is_stmt 1 view .LVU119
 590:MyHardWare/eMPL/inv_mpu_dmp_motion_driver.c ****     if (dmp.orient & 0x20)
 431              		.loc 1 590 48 is_stmt 0 view .LVU120
 432 001c C3F3C102 		ubfx	r2, r3, #3, #2
 590:MyHardWare/eMPL/inv_mpu_dmp_motion_driver.c ****     if (dmp.orient & 0x20)
 433              		.loc 1 590 29 view .LVU121
 434 0020 50F82220 		ldr	r2, [r0, r2, lsl #2]
 590:MyHardWare/eMPL/inv_mpu_dmp_motion_driver.c ****     if (dmp.orient & 0x20)
 435              		.loc 1 590 23 view .LVU122
 436 0024 0292     		str	r2, [sp, #8]
 591:MyHardWare/eMPL/inv_mpu_dmp_motion_driver.c ****         gyro_bias_body[1] *= -1;
 437              		.loc 1 591 5 is_stmt 1 view .LVU123
 591:MyHardWare/eMPL/inv_mpu_dmp_motion_driver.c ****         gyro_bias_body[1] *= -1;
 438              		.loc 1 591 8 is_stmt 0 view .LVU124
 439 0026 13F0200F 		tst	r3, #32
 440 002a 01D0     		beq	.L25
 592:MyHardWare/eMPL/inv_mpu_dmp_motion_driver.c ****     gyro_bias_body[2] = bias[(dmp.orient >> 6) & 3];
 441              		.loc 1 592 9 is_stmt 1 view .LVU125
 592:MyHardWare/eMPL/inv_mpu_dmp_motion_driver.c ****     gyro_bias_body[2] = bias[(dmp.orient >> 6) & 3];
 442              		.loc 1 592 27 is_stmt 0 view .LVU126
 443 002c 5242     		rsbs	r2, r2, #0
 444 002e 0292     		str	r2, [sp, #8]
 445              	.L25:
 593:MyHardWare/eMPL/inv_mpu_dmp_motion_driver.c ****     if (dmp.orient & 0x100)
 446              		.loc 1 593 5 is_stmt 1 view .LVU127
 593:MyHardWare/eMPL/inv_mpu_dmp_motion_driver.c ****     if (dmp.orient & 0x100)
 447              		.loc 1 593 48 is_stmt 0 view .LVU128
 448 0030 C3F38112 		ubfx	r2, r3, #6, #2
 593:MyHardWare/eMPL/inv_mpu_dmp_motion_driver.c ****     if (dmp.orient & 0x100)
 449              		.loc 1 593 29 view .LVU129
 450 0034 50F82220 		ldr	r2, [r0, r2, lsl #2]
 593:MyHardWare/eMPL/inv_mpu_dmp_motion_driver.c ****     if (dmp.orient & 0x100)
 451              		.loc 1 593 23 view .LVU130
 452 0038 0392     		str	r2, [sp, #12]
 594:MyHardWare/eMPL/inv_mpu_dmp_motion_driver.c ****         gyro_bias_body[2] *= -1;
ARM GAS  /tmp/cckrZnTL.s 			page 32


 453              		.loc 1 594 5 is_stmt 1 view .LVU131
 594:MyHardWare/eMPL/inv_mpu_dmp_motion_driver.c ****         gyro_bias_body[2] *= -1;
 454              		.loc 1 594 8 is_stmt 0 view .LVU132
 455 003a 13F4807F 		tst	r3, #256
 456 003e 01D0     		beq	.L26
 595:MyHardWare/eMPL/inv_mpu_dmp_motion_driver.c **** 
 457              		.loc 1 595 9 is_stmt 1 view .LVU133
 595:MyHardWare/eMPL/inv_mpu_dmp_motion_driver.c **** 
 458              		.loc 1 595 27 is_stmt 0 view .LVU134
 459 0040 5242     		rsbs	r2, r2, #0
 460 0042 0392     		str	r2, [sp, #12]
 461              	.L26:
 602:MyHardWare/eMPL/inv_mpu_dmp_motion_driver.c ****     gyro_bias_body[1] = (long)(((long long)gyro_bias_body[1] * GYRO_SF) >> 30);
 462              		.loc 1 602 5 is_stmt 1 view .LVU135
 602:MyHardWare/eMPL/inv_mpu_dmp_motion_driver.c ****     gyro_bias_body[1] = (long)(((long long)gyro_bias_body[1] * GYRO_SF) >> 30);
 463              		.loc 1 602 58 is_stmt 0 view .LVU136
 464 0044 019B     		ldr	r3, [sp, #4]
 602:MyHardWare/eMPL/inv_mpu_dmp_motion_driver.c ****     gyro_bias_body[1] = (long)(((long long)gyro_bias_body[1] * GYRO_SF) >> 30);
 465              		.loc 1 602 33 view .LVU137
 466 0046 D817     		asrs	r0, r3, #31
 467              	.LVL17:
 602:MyHardWare/eMPL/inv_mpu_dmp_motion_driver.c ****     gyro_bias_body[1] = (long)(((long long)gyro_bias_body[1] * GYRO_SF) >> 30);
 468              		.loc 1 602 62 view .LVU138
 469 0048 304A     		ldr	r2, .L31+4
 470 004a A3FB0231 		umull	r3, r1, r3, r2
 471 004e 02FB0011 		mla	r1, r2, r0, r1
 602:MyHardWare/eMPL/inv_mpu_dmp_motion_driver.c ****     gyro_bias_body[1] = (long)(((long long)gyro_bias_body[1] * GYRO_SF) >> 30);
 472              		.loc 1 602 73 view .LVU139
 473 0052 9B0F     		lsrs	r3, r3, #30
 474 0054 43EA8103 		orr	r3, r3, r1, lsl #2
 602:MyHardWare/eMPL/inv_mpu_dmp_motion_driver.c ****     gyro_bias_body[1] = (long)(((long long)gyro_bias_body[1] * GYRO_SF) >> 30);
 475              		.loc 1 602 23 view .LVU140
 476 0058 0193     		str	r3, [sp, #4]
 603:MyHardWare/eMPL/inv_mpu_dmp_motion_driver.c ****     gyro_bias_body[2] = (long)(((long long)gyro_bias_body[2] * GYRO_SF) >> 30);
 477              		.loc 1 603 5 is_stmt 1 view .LVU141
 603:MyHardWare/eMPL/inv_mpu_dmp_motion_driver.c ****     gyro_bias_body[2] = (long)(((long long)gyro_bias_body[2] * GYRO_SF) >> 30);
 478              		.loc 1 603 58 is_stmt 0 view .LVU142
 479 005a 0299     		ldr	r1, [sp, #8]
 603:MyHardWare/eMPL/inv_mpu_dmp_motion_driver.c ****     gyro_bias_body[2] = (long)(((long long)gyro_bias_body[2] * GYRO_SF) >> 30);
 480              		.loc 1 603 33 view .LVU143
 481 005c CC17     		asrs	r4, r1, #31
 603:MyHardWare/eMPL/inv_mpu_dmp_motion_driver.c ****     gyro_bias_body[2] = (long)(((long long)gyro_bias_body[2] * GYRO_SF) >> 30);
 482              		.loc 1 603 62 view .LVU144
 483 005e A1FB0210 		umull	r1, r0, r1, r2
 484 0062 02FB0400 		mla	r0, r2, r4, r0
 603:MyHardWare/eMPL/inv_mpu_dmp_motion_driver.c ****     gyro_bias_body[2] = (long)(((long long)gyro_bias_body[2] * GYRO_SF) >> 30);
 485              		.loc 1 603 73 view .LVU145
 486 0066 8D0F     		lsrs	r5, r1, #30
 487 0068 45EA8005 		orr	r5, r5, r0, lsl #2
 603:MyHardWare/eMPL/inv_mpu_dmp_motion_driver.c ****     gyro_bias_body[2] = (long)(((long long)gyro_bias_body[2] * GYRO_SF) >> 30);
 488              		.loc 1 603 23 view .LVU146
 489 006c 0295     		str	r5, [sp, #8]
 604:MyHardWare/eMPL/inv_mpu_dmp_motion_driver.c **** #endif
 490              		.loc 1 604 5 is_stmt 1 view .LVU147
 604:MyHardWare/eMPL/inv_mpu_dmp_motion_driver.c **** #endif
 491              		.loc 1 604 58 is_stmt 0 view .LVU148
 492 006e 039C     		ldr	r4, [sp, #12]
ARM GAS  /tmp/cckrZnTL.s 			page 33


 604:MyHardWare/eMPL/inv_mpu_dmp_motion_driver.c **** #endif
 493              		.loc 1 604 33 view .LVU149
 494 0070 E017     		asrs	r0, r4, #31
 604:MyHardWare/eMPL/inv_mpu_dmp_motion_driver.c **** #endif
 495              		.loc 1 604 62 view .LVU150
 496 0072 A4FB0241 		umull	r4, r1, r4, r2
 497 0076 02FB0012 		mla	r2, r2, r0, r1
 604:MyHardWare/eMPL/inv_mpu_dmp_motion_driver.c **** #endif
 498              		.loc 1 604 73 view .LVU151
 499 007a A40F     		lsrs	r4, r4, #30
 500 007c 44EA8204 		orr	r4, r4, r2, lsl #2
 604:MyHardWare/eMPL/inv_mpu_dmp_motion_driver.c **** #endif
 501              		.loc 1 604 23 view .LVU152
 502 0080 0394     		str	r4, [sp, #12]
 607:MyHardWare/eMPL/inv_mpu_dmp_motion_driver.c ****     regs[1] = (unsigned char)((gyro_bias_body[0] >> 16) & 0xFF);
 503              		.loc 1 607 5 is_stmt 1 view .LVU153
 607:MyHardWare/eMPL/inv_mpu_dmp_motion_driver.c ****     regs[1] = (unsigned char)((gyro_bias_body[0] >> 16) & 0xFF);
 504              		.loc 1 607 15 is_stmt 0 view .LVU154
 505 0082 1A0E     		lsrs	r2, r3, #24
 607:MyHardWare/eMPL/inv_mpu_dmp_motion_driver.c ****     regs[1] = (unsigned char)((gyro_bias_body[0] >> 16) & 0xFF);
 506              		.loc 1 607 13 view .LVU155
 507 0084 8DF80020 		strb	r2, [sp]
 608:MyHardWare/eMPL/inv_mpu_dmp_motion_driver.c ****     regs[2] = (unsigned char)((gyro_bias_body[0] >> 8) & 0xFF);
 508              		.loc 1 608 5 is_stmt 1 view .LVU156
 608:MyHardWare/eMPL/inv_mpu_dmp_motion_driver.c ****     regs[2] = (unsigned char)((gyro_bias_body[0] >> 8) & 0xFF);
 509              		.loc 1 608 15 is_stmt 0 view .LVU157
 510 0088 C3F30742 		ubfx	r2, r3, #16, #8
 608:MyHardWare/eMPL/inv_mpu_dmp_motion_driver.c ****     regs[2] = (unsigned char)((gyro_bias_body[0] >> 8) & 0xFF);
 511              		.loc 1 608 13 view .LVU158
 512 008c 8DF80120 		strb	r2, [sp, #1]
 609:MyHardWare/eMPL/inv_mpu_dmp_motion_driver.c ****     regs[3] = (unsigned char)(gyro_bias_body[0] & 0xFF);
 513              		.loc 1 609 5 is_stmt 1 view .LVU159
 609:MyHardWare/eMPL/inv_mpu_dmp_motion_driver.c ****     regs[3] = (unsigned char)(gyro_bias_body[0] & 0xFF);
 514              		.loc 1 609 15 is_stmt 0 view .LVU160
 515 0090 C3F30722 		ubfx	r2, r3, #8, #8
 609:MyHardWare/eMPL/inv_mpu_dmp_motion_driver.c ****     regs[3] = (unsigned char)(gyro_bias_body[0] & 0xFF);
 516              		.loc 1 609 13 view .LVU161
 517 0094 8DF80220 		strb	r2, [sp, #2]
 610:MyHardWare/eMPL/inv_mpu_dmp_motion_driver.c ****     if (mpu_write_mem(D_EXT_GYRO_BIAS_X, 4, regs))
 518              		.loc 1 610 5 is_stmt 1 view .LVU162
 610:MyHardWare/eMPL/inv_mpu_dmp_motion_driver.c ****     if (mpu_write_mem(D_EXT_GYRO_BIAS_X, 4, regs))
 519              		.loc 1 610 13 is_stmt 0 view .LVU163
 520 0098 8DF80330 		strb	r3, [sp, #3]
 611:MyHardWare/eMPL/inv_mpu_dmp_motion_driver.c ****         return -1;
 521              		.loc 1 611 5 is_stmt 1 view .LVU164
 611:MyHardWare/eMPL/inv_mpu_dmp_motion_driver.c ****         return -1;
 522              		.loc 1 611 9 is_stmt 0 view .LVU165
 523 009c 6A46     		mov	r2, sp
 524 009e 0421     		movs	r1, #4
 525 00a0 4FF47470 		mov	r0, #976
 526 00a4 FFF7FEFF 		bl	mpu_write_mem
 527              	.LVL18:
 611:MyHardWare/eMPL/inv_mpu_dmp_motion_driver.c ****         return -1;
 528              		.loc 1 611 8 discriminator 1 view .LVU166
 529 00a8 40BB     		cbnz	r0, .L28
 614:MyHardWare/eMPL/inv_mpu_dmp_motion_driver.c ****     regs[1] = (unsigned char)((gyro_bias_body[1] >> 16) & 0xFF);
 530              		.loc 1 614 5 is_stmt 1 view .LVU167
ARM GAS  /tmp/cckrZnTL.s 			page 34


 614:MyHardWare/eMPL/inv_mpu_dmp_motion_driver.c ****     regs[1] = (unsigned char)((gyro_bias_body[1] >> 16) & 0xFF);
 531              		.loc 1 614 15 is_stmt 0 view .LVU168
 532 00aa 2B0E     		lsrs	r3, r5, #24
 614:MyHardWare/eMPL/inv_mpu_dmp_motion_driver.c ****     regs[1] = (unsigned char)((gyro_bias_body[1] >> 16) & 0xFF);
 533              		.loc 1 614 13 view .LVU169
 534 00ac 8DF80030 		strb	r3, [sp]
 615:MyHardWare/eMPL/inv_mpu_dmp_motion_driver.c ****     regs[2] = (unsigned char)((gyro_bias_body[1] >> 8) & 0xFF);
 535              		.loc 1 615 5 is_stmt 1 view .LVU170
 615:MyHardWare/eMPL/inv_mpu_dmp_motion_driver.c ****     regs[2] = (unsigned char)((gyro_bias_body[1] >> 8) & 0xFF);
 536              		.loc 1 615 15 is_stmt 0 view .LVU171
 537 00b0 C5F30743 		ubfx	r3, r5, #16, #8
 615:MyHardWare/eMPL/inv_mpu_dmp_motion_driver.c ****     regs[2] = (unsigned char)((gyro_bias_body[1] >> 8) & 0xFF);
 538              		.loc 1 615 13 view .LVU172
 539 00b4 8DF80130 		strb	r3, [sp, #1]
 616:MyHardWare/eMPL/inv_mpu_dmp_motion_driver.c ****     regs[3] = (unsigned char)(gyro_bias_body[1] & 0xFF);
 540              		.loc 1 616 5 is_stmt 1 view .LVU173
 616:MyHardWare/eMPL/inv_mpu_dmp_motion_driver.c ****     regs[3] = (unsigned char)(gyro_bias_body[1] & 0xFF);
 541              		.loc 1 616 15 is_stmt 0 view .LVU174
 542 00b8 C5F30723 		ubfx	r3, r5, #8, #8
 616:MyHardWare/eMPL/inv_mpu_dmp_motion_driver.c ****     regs[3] = (unsigned char)(gyro_bias_body[1] & 0xFF);
 543              		.loc 1 616 13 view .LVU175
 544 00bc 8DF80230 		strb	r3, [sp, #2]
 617:MyHardWare/eMPL/inv_mpu_dmp_motion_driver.c ****     if (mpu_write_mem(D_EXT_GYRO_BIAS_Y, 4, regs))
 545              		.loc 1 617 5 is_stmt 1 view .LVU176
 617:MyHardWare/eMPL/inv_mpu_dmp_motion_driver.c ****     if (mpu_write_mem(D_EXT_GYRO_BIAS_Y, 4, regs))
 546              		.loc 1 617 13 is_stmt 0 view .LVU177
 547 00c0 8DF80350 		strb	r5, [sp, #3]
 618:MyHardWare/eMPL/inv_mpu_dmp_motion_driver.c ****         return -1;
 548              		.loc 1 618 5 is_stmt 1 view .LVU178
 618:MyHardWare/eMPL/inv_mpu_dmp_motion_driver.c ****         return -1;
 549              		.loc 1 618 9 is_stmt 0 view .LVU179
 550 00c4 6A46     		mov	r2, sp
 551 00c6 0421     		movs	r1, #4
 552 00c8 4FF47570 		mov	r0, #980
 553 00cc FFF7FEFF 		bl	mpu_write_mem
 554              	.LVL19:
 618:MyHardWare/eMPL/inv_mpu_dmp_motion_driver.c ****         return -1;
 555              		.loc 1 618 8 discriminator 1 view .LVU180
 556 00d0 B8B9     		cbnz	r0, .L29
 621:MyHardWare/eMPL/inv_mpu_dmp_motion_driver.c ****     regs[1] = (unsigned char)((gyro_bias_body[2] >> 16) & 0xFF);
 557              		.loc 1 621 5 is_stmt 1 view .LVU181
 621:MyHardWare/eMPL/inv_mpu_dmp_motion_driver.c ****     regs[1] = (unsigned char)((gyro_bias_body[2] >> 16) & 0xFF);
 558              		.loc 1 621 15 is_stmt 0 view .LVU182
 559 00d2 230E     		lsrs	r3, r4, #24
 621:MyHardWare/eMPL/inv_mpu_dmp_motion_driver.c ****     regs[1] = (unsigned char)((gyro_bias_body[2] >> 16) & 0xFF);
 560              		.loc 1 621 13 view .LVU183
 561 00d4 8DF80030 		strb	r3, [sp]
 622:MyHardWare/eMPL/inv_mpu_dmp_motion_driver.c ****     regs[2] = (unsigned char)((gyro_bias_body[2] >> 8) & 0xFF);
 562              		.loc 1 622 5 is_stmt 1 view .LVU184
 622:MyHardWare/eMPL/inv_mpu_dmp_motion_driver.c ****     regs[2] = (unsigned char)((gyro_bias_body[2] >> 8) & 0xFF);
 563              		.loc 1 622 15 is_stmt 0 view .LVU185
 564 00d8 C4F30743 		ubfx	r3, r4, #16, #8
 622:MyHardWare/eMPL/inv_mpu_dmp_motion_driver.c ****     regs[2] = (unsigned char)((gyro_bias_body[2] >> 8) & 0xFF);
 565              		.loc 1 622 13 view .LVU186
 566 00dc 8DF80130 		strb	r3, [sp, #1]
 623:MyHardWare/eMPL/inv_mpu_dmp_motion_driver.c ****     regs[3] = (unsigned char)(gyro_bias_body[2] & 0xFF);
 567              		.loc 1 623 5 is_stmt 1 view .LVU187
ARM GAS  /tmp/cckrZnTL.s 			page 35


 623:MyHardWare/eMPL/inv_mpu_dmp_motion_driver.c ****     regs[3] = (unsigned char)(gyro_bias_body[2] & 0xFF);
 568              		.loc 1 623 15 is_stmt 0 view .LVU188
 569 00e0 C4F30726 		ubfx	r6, r4, #8, #8
 623:MyHardWare/eMPL/inv_mpu_dmp_motion_driver.c ****     regs[3] = (unsigned char)(gyro_bias_body[2] & 0xFF);
 570              		.loc 1 623 13 view .LVU189
 571 00e4 8DF80260 		strb	r6, [sp, #2]
 624:MyHardWare/eMPL/inv_mpu_dmp_motion_driver.c ****     return mpu_write_mem(D_EXT_GYRO_BIAS_Z, 4, regs);
 572              		.loc 1 624 5 is_stmt 1 view .LVU190
 624:MyHardWare/eMPL/inv_mpu_dmp_motion_driver.c ****     return mpu_write_mem(D_EXT_GYRO_BIAS_Z, 4, regs);
 573              		.loc 1 624 13 is_stmt 0 view .LVU191
 574 00e8 8DF80340 		strb	r4, [sp, #3]
 625:MyHardWare/eMPL/inv_mpu_dmp_motion_driver.c **** }
 575              		.loc 1 625 5 is_stmt 1 view .LVU192
 625:MyHardWare/eMPL/inv_mpu_dmp_motion_driver.c **** }
 576              		.loc 1 625 12 is_stmt 0 view .LVU193
 577 00ec 6A46     		mov	r2, sp
 578 00ee 0421     		movs	r1, #4
 579 00f0 4FF47670 		mov	r0, #984
 580 00f4 FFF7FEFF 		bl	mpu_write_mem
 581              	.LVL20:
 582              	.L23:
 626:MyHardWare/eMPL/inv_mpu_dmp_motion_driver.c **** 
 583              		.loc 1 626 1 view .LVU194
 584 00f8 04B0     		add	sp, sp, #16
 585              	.LCFI8:
 586              		.cfi_remember_state
 587              		.cfi_def_cfa_offset 16
 588              		@ sp needed
 589 00fa 70BD     		pop	{r4, r5, r6, pc}
 590              	.L28:
 591              	.LCFI9:
 592              		.cfi_restore_state
 612:MyHardWare/eMPL/inv_mpu_dmp_motion_driver.c **** 
 593              		.loc 1 612 16 view .LVU195
 594 00fc 4FF0FF30 		mov	r0, #-1
 595 0100 FAE7     		b	.L23
 596              	.L29:
 619:MyHardWare/eMPL/inv_mpu_dmp_motion_driver.c **** 
 597              		.loc 1 619 16 view .LVU196
 598 0102 4FF0FF30 		mov	r0, #-1
 599 0106 F7E7     		b	.L23
 600              	.L32:
 601              		.align	2
 602              	.L31:
 603 0108 00000000 		.word	dmp
 604 010c 09E3CA02 		.word	46850825
 605              		.cfi_endproc
 606              	.LFE128:
 608              		.section	.text.dmp_set_accel_bias,"ax",%progbits
 609              		.align	1
 610              		.global	dmp_set_accel_bias
 611              		.syntax unified
 612              		.thumb
 613              		.thumb_func
 615              	dmp_set_accel_bias:
 616              	.LVL21:
 617              	.LFB129:
ARM GAS  /tmp/cckrZnTL.s 			page 36


 635:MyHardWare/eMPL/inv_mpu_dmp_motion_driver.c ****     long accel_bias_body[3];
 618              		.loc 1 635 1 is_stmt 1 view -0
 619              		.cfi_startproc
 620              		@ args = 0, pretend = 0, frame = 32
 621              		@ frame_needed = 0, uses_anonymous_args = 0
 635:MyHardWare/eMPL/inv_mpu_dmp_motion_driver.c ****     long accel_bias_body[3];
 622              		.loc 1 635 1 is_stmt 0 view .LVU198
 623 0000 10B5     		push	{r4, lr}
 624              	.LCFI10:
 625              		.cfi_def_cfa_offset 8
 626              		.cfi_offset 4, -8
 627              		.cfi_offset 14, -4
 628 0002 88B0     		sub	sp, sp, #32
 629              	.LCFI11:
 630              		.cfi_def_cfa_offset 40
 631 0004 0446     		mov	r4, r0
 636:MyHardWare/eMPL/inv_mpu_dmp_motion_driver.c ****     unsigned char regs[12];
 632              		.loc 1 636 5 is_stmt 1 view .LVU199
 637:MyHardWare/eMPL/inv_mpu_dmp_motion_driver.c ****     long long accel_sf;
 633              		.loc 1 637 5 view .LVU200
 638:MyHardWare/eMPL/inv_mpu_dmp_motion_driver.c ****     unsigned short accel_sens;
 634              		.loc 1 638 5 view .LVU201
 639:MyHardWare/eMPL/inv_mpu_dmp_motion_driver.c **** 
 635              		.loc 1 639 5 view .LVU202
 641:MyHardWare/eMPL/inv_mpu_dmp_motion_driver.c ****     accel_sf = (long long)accel_sens << 15;
 636              		.loc 1 641 5 view .LVU203
 637 0006 0DF10600 		add	r0, sp, #6
 638              	.LVL22:
 641:MyHardWare/eMPL/inv_mpu_dmp_motion_driver.c ****     accel_sf = (long long)accel_sens << 15;
 639              		.loc 1 641 5 is_stmt 0 view .LVU204
 640 000a FFF7FEFF 		bl	mpu_get_accel_sens
 641              	.LVL23:
 642:MyHardWare/eMPL/inv_mpu_dmp_motion_driver.c ****     //__no_operation();
 642              		.loc 1 642 5 is_stmt 1 view .LVU205
 642:MyHardWare/eMPL/inv_mpu_dmp_motion_driver.c ****     //__no_operation();
 643              		.loc 1 642 16 is_stmt 0 view .LVU206
 644 000e BDF806C0 		ldrh	ip, [sp, #6]
 642:MyHardWare/eMPL/inv_mpu_dmp_motion_driver.c ****     //__no_operation();
 645              		.loc 1 642 14 view .LVU207
 646 0012 4FEACC3C 		lsl	ip, ip, #15
 647              	.LVL24:
 645:MyHardWare/eMPL/inv_mpu_dmp_motion_driver.c ****     if (dmp.orient & 4)
 648              		.loc 1 645 5 is_stmt 1 view .LVU208
 645:MyHardWare/eMPL/inv_mpu_dmp_motion_driver.c ****     if (dmp.orient & 4)
 649              		.loc 1 645 34 is_stmt 0 view .LVU209
 650 0016 364B     		ldr	r3, .L38
 651 0018 1B89     		ldrh	r3, [r3, #8]
 645:MyHardWare/eMPL/inv_mpu_dmp_motion_driver.c ****     if (dmp.orient & 4)
 652              		.loc 1 645 42 view .LVU210
 653 001a 03F00302 		and	r2, r3, #3
 645:MyHardWare/eMPL/inv_mpu_dmp_motion_driver.c ****     if (dmp.orient & 4)
 654              		.loc 1 645 30 view .LVU211
 655 001e 54F82220 		ldr	r2, [r4, r2, lsl #2]
 645:MyHardWare/eMPL/inv_mpu_dmp_motion_driver.c ****     if (dmp.orient & 4)
 656              		.loc 1 645 24 view .LVU212
 657 0022 0592     		str	r2, [sp, #20]
 646:MyHardWare/eMPL/inv_mpu_dmp_motion_driver.c ****         accel_bias_body[0] *= -1;
ARM GAS  /tmp/cckrZnTL.s 			page 37


 658              		.loc 1 646 5 is_stmt 1 view .LVU213
 646:MyHardWare/eMPL/inv_mpu_dmp_motion_driver.c ****         accel_bias_body[0] *= -1;
 659              		.loc 1 646 8 is_stmt 0 view .LVU214
 660 0024 13F0040F 		tst	r3, #4
 661 0028 01D0     		beq	.L34
 647:MyHardWare/eMPL/inv_mpu_dmp_motion_driver.c ****     accel_bias_body[1] = bias[(dmp.orient >> 3) & 3];
 662              		.loc 1 647 9 is_stmt 1 view .LVU215
 647:MyHardWare/eMPL/inv_mpu_dmp_motion_driver.c ****     accel_bias_body[1] = bias[(dmp.orient >> 3) & 3];
 663              		.loc 1 647 28 is_stmt 0 view .LVU216
 664 002a 5242     		rsbs	r2, r2, #0
 665 002c 0592     		str	r2, [sp, #20]
 666              	.L34:
 648:MyHardWare/eMPL/inv_mpu_dmp_motion_driver.c ****     if (dmp.orient & 0x20)
 667              		.loc 1 648 5 is_stmt 1 view .LVU217
 648:MyHardWare/eMPL/inv_mpu_dmp_motion_driver.c ****     if (dmp.orient & 0x20)
 668              		.loc 1 648 49 is_stmt 0 view .LVU218
 669 002e C3F3C102 		ubfx	r2, r3, #3, #2
 648:MyHardWare/eMPL/inv_mpu_dmp_motion_driver.c ****     if (dmp.orient & 0x20)
 670              		.loc 1 648 30 view .LVU219
 671 0032 54F82220 		ldr	r2, [r4, r2, lsl #2]
 648:MyHardWare/eMPL/inv_mpu_dmp_motion_driver.c ****     if (dmp.orient & 0x20)
 672              		.loc 1 648 24 view .LVU220
 673 0036 0692     		str	r2, [sp, #24]
 649:MyHardWare/eMPL/inv_mpu_dmp_motion_driver.c ****         accel_bias_body[1] *= -1;
 674              		.loc 1 649 5 is_stmt 1 view .LVU221
 649:MyHardWare/eMPL/inv_mpu_dmp_motion_driver.c ****         accel_bias_body[1] *= -1;
 675              		.loc 1 649 8 is_stmt 0 view .LVU222
 676 0038 13F0200F 		tst	r3, #32
 677 003c 01D0     		beq	.L35
 650:MyHardWare/eMPL/inv_mpu_dmp_motion_driver.c ****     accel_bias_body[2] = bias[(dmp.orient >> 6) & 3];
 678              		.loc 1 650 9 is_stmt 1 view .LVU223
 650:MyHardWare/eMPL/inv_mpu_dmp_motion_driver.c ****     accel_bias_body[2] = bias[(dmp.orient >> 6) & 3];
 679              		.loc 1 650 28 is_stmt 0 view .LVU224
 680 003e 5242     		rsbs	r2, r2, #0
 681 0040 0692     		str	r2, [sp, #24]
 682              	.L35:
 651:MyHardWare/eMPL/inv_mpu_dmp_motion_driver.c ****     if (dmp.orient & 0x100)
 683              		.loc 1 651 5 is_stmt 1 view .LVU225
 651:MyHardWare/eMPL/inv_mpu_dmp_motion_driver.c ****     if (dmp.orient & 0x100)
 684              		.loc 1 651 49 is_stmt 0 view .LVU226
 685 0042 C3F38112 		ubfx	r2, r3, #6, #2
 651:MyHardWare/eMPL/inv_mpu_dmp_motion_driver.c ****     if (dmp.orient & 0x100)
 686              		.loc 1 651 30 view .LVU227
 687 0046 54F82220 		ldr	r2, [r4, r2, lsl #2]
 651:MyHardWare/eMPL/inv_mpu_dmp_motion_driver.c ****     if (dmp.orient & 0x100)
 688              		.loc 1 651 24 view .LVU228
 689 004a 0792     		str	r2, [sp, #28]
 652:MyHardWare/eMPL/inv_mpu_dmp_motion_driver.c ****         accel_bias_body[2] *= -1;
 690              		.loc 1 652 5 is_stmt 1 view .LVU229
 652:MyHardWare/eMPL/inv_mpu_dmp_motion_driver.c ****         accel_bias_body[2] *= -1;
 691              		.loc 1 652 8 is_stmt 0 view .LVU230
 692 004c 13F4807F 		tst	r3, #256
 693 0050 01D0     		beq	.L36
 653:MyHardWare/eMPL/inv_mpu_dmp_motion_driver.c **** 
 694              		.loc 1 653 9 is_stmt 1 view .LVU231
 653:MyHardWare/eMPL/inv_mpu_dmp_motion_driver.c **** 
 695              		.loc 1 653 28 is_stmt 0 view .LVU232
ARM GAS  /tmp/cckrZnTL.s 			page 38


 696 0052 5242     		rsbs	r2, r2, #0
 697 0054 0792     		str	r2, [sp, #28]
 698              	.L36:
 660:MyHardWare/eMPL/inv_mpu_dmp_motion_driver.c ****     accel_bias_body[1] = (long)(((long long)accel_bias_body[1] * accel_sf) >> 30);
 699              		.loc 1 660 5 is_stmt 1 view .LVU233
 660:MyHardWare/eMPL/inv_mpu_dmp_motion_driver.c ****     accel_bias_body[1] = (long)(((long long)accel_bias_body[1] * accel_sf) >> 30);
 700              		.loc 1 660 60 is_stmt 0 view .LVU234
 701 0056 0599     		ldr	r1, [sp, #20]
 660:MyHardWare/eMPL/inv_mpu_dmp_motion_driver.c ****     accel_bias_body[1] = (long)(((long long)accel_bias_body[1] * accel_sf) >> 30);
 702              		.loc 1 660 34 view .LVU235
 703 0058 CA17     		asrs	r2, r1, #31
 660:MyHardWare/eMPL/inv_mpu_dmp_motion_driver.c ****     accel_bias_body[1] = (long)(((long long)accel_bias_body[1] * accel_sf) >> 30);
 704              		.loc 1 660 64 view .LVU236
 705 005a A1FB0C13 		umull	r1, r3, r1, ip
 706 005e 0CFB0233 		mla	r3, ip, r2, r3
 660:MyHardWare/eMPL/inv_mpu_dmp_motion_driver.c ****     accel_bias_body[1] = (long)(((long long)accel_bias_body[1] * accel_sf) >> 30);
 707              		.loc 1 660 76 view .LVU237
 708 0062 890F     		lsrs	r1, r1, #30
 709 0064 41EA8301 		orr	r1, r1, r3, lsl #2
 660:MyHardWare/eMPL/inv_mpu_dmp_motion_driver.c ****     accel_bias_body[1] = (long)(((long long)accel_bias_body[1] * accel_sf) >> 30);
 710              		.loc 1 660 24 view .LVU238
 711 0068 0591     		str	r1, [sp, #20]
 661:MyHardWare/eMPL/inv_mpu_dmp_motion_driver.c ****     accel_bias_body[2] = (long)(((long long)accel_bias_body[2] * accel_sf) >> 30);
 712              		.loc 1 661 5 is_stmt 1 view .LVU239
 661:MyHardWare/eMPL/inv_mpu_dmp_motion_driver.c ****     accel_bias_body[2] = (long)(((long long)accel_bias_body[2] * accel_sf) >> 30);
 713              		.loc 1 661 60 is_stmt 0 view .LVU240
 714 006a 069A     		ldr	r2, [sp, #24]
 661:MyHardWare/eMPL/inv_mpu_dmp_motion_driver.c ****     accel_bias_body[2] = (long)(((long long)accel_bias_body[2] * accel_sf) >> 30);
 715              		.loc 1 661 34 view .LVU241
 716 006c D017     		asrs	r0, r2, #31
 661:MyHardWare/eMPL/inv_mpu_dmp_motion_driver.c ****     accel_bias_body[2] = (long)(((long long)accel_bias_body[2] * accel_sf) >> 30);
 717              		.loc 1 661 64 view .LVU242
 718 006e A2FB0C23 		umull	r2, r3, r2, ip
 719 0072 0CFB0033 		mla	r3, ip, r0, r3
 661:MyHardWare/eMPL/inv_mpu_dmp_motion_driver.c ****     accel_bias_body[2] = (long)(((long long)accel_bias_body[2] * accel_sf) >> 30);
 720              		.loc 1 661 76 view .LVU243
 721 0076 920F     		lsrs	r2, r2, #30
 722 0078 42EA8302 		orr	r2, r2, r3, lsl #2
 661:MyHardWare/eMPL/inv_mpu_dmp_motion_driver.c ****     accel_bias_body[2] = (long)(((long long)accel_bias_body[2] * accel_sf) >> 30);
 723              		.loc 1 661 24 view .LVU244
 724 007c 0692     		str	r2, [sp, #24]
 662:MyHardWare/eMPL/inv_mpu_dmp_motion_driver.c **** #endif
 725              		.loc 1 662 5 is_stmt 1 view .LVU245
 662:MyHardWare/eMPL/inv_mpu_dmp_motion_driver.c **** #endif
 726              		.loc 1 662 60 is_stmt 0 view .LVU246
 727 007e 079B     		ldr	r3, [sp, #28]
 662:MyHardWare/eMPL/inv_mpu_dmp_motion_driver.c **** #endif
 728              		.loc 1 662 34 view .LVU247
 729 0080 DC17     		asrs	r4, r3, #31
 730              	.LVL25:
 662:MyHardWare/eMPL/inv_mpu_dmp_motion_driver.c **** #endif
 731              		.loc 1 662 64 view .LVU248
 732 0082 A3FB0C30 		umull	r3, r0, r3, ip
 733 0086 0CFB0400 		mla	r0, ip, r4, r0
 662:MyHardWare/eMPL/inv_mpu_dmp_motion_driver.c **** #endif
 734              		.loc 1 662 76 view .LVU249
 735 008a 9B0F     		lsrs	r3, r3, #30
ARM GAS  /tmp/cckrZnTL.s 			page 39


 736 008c 43EA8003 		orr	r3, r3, r0, lsl #2
 662:MyHardWare/eMPL/inv_mpu_dmp_motion_driver.c **** #endif
 737              		.loc 1 662 24 view .LVU250
 738 0090 0793     		str	r3, [sp, #28]
 665:MyHardWare/eMPL/inv_mpu_dmp_motion_driver.c ****     regs[1] = (unsigned char)((accel_bias_body[0] >> 16) & 0xFF);
 739              		.loc 1 665 5 is_stmt 1 view .LVU251
 665:MyHardWare/eMPL/inv_mpu_dmp_motion_driver.c ****     regs[1] = (unsigned char)((accel_bias_body[0] >> 16) & 0xFF);
 740              		.loc 1 665 15 is_stmt 0 view .LVU252
 741 0092 080E     		lsrs	r0, r1, #24
 665:MyHardWare/eMPL/inv_mpu_dmp_motion_driver.c ****     regs[1] = (unsigned char)((accel_bias_body[0] >> 16) & 0xFF);
 742              		.loc 1 665 13 view .LVU253
 743 0094 8DF80800 		strb	r0, [sp, #8]
 666:MyHardWare/eMPL/inv_mpu_dmp_motion_driver.c ****     regs[2] = (unsigned char)((accel_bias_body[0] >> 8) & 0xFF);
 744              		.loc 1 666 5 is_stmt 1 view .LVU254
 666:MyHardWare/eMPL/inv_mpu_dmp_motion_driver.c ****     regs[2] = (unsigned char)((accel_bias_body[0] >> 8) & 0xFF);
 745              		.loc 1 666 15 is_stmt 0 view .LVU255
 746 0098 C1F30740 		ubfx	r0, r1, #16, #8
 666:MyHardWare/eMPL/inv_mpu_dmp_motion_driver.c ****     regs[2] = (unsigned char)((accel_bias_body[0] >> 8) & 0xFF);
 747              		.loc 1 666 13 view .LVU256
 748 009c 8DF80900 		strb	r0, [sp, #9]
 667:MyHardWare/eMPL/inv_mpu_dmp_motion_driver.c ****     regs[3] = (unsigned char)(accel_bias_body[0] & 0xFF);
 749              		.loc 1 667 5 is_stmt 1 view .LVU257
 667:MyHardWare/eMPL/inv_mpu_dmp_motion_driver.c ****     regs[3] = (unsigned char)(accel_bias_body[0] & 0xFF);
 750              		.loc 1 667 15 is_stmt 0 view .LVU258
 751 00a0 C1F30720 		ubfx	r0, r1, #8, #8
 667:MyHardWare/eMPL/inv_mpu_dmp_motion_driver.c ****     regs[3] = (unsigned char)(accel_bias_body[0] & 0xFF);
 752              		.loc 1 667 13 view .LVU259
 753 00a4 8DF80A00 		strb	r0, [sp, #10]
 668:MyHardWare/eMPL/inv_mpu_dmp_motion_driver.c ****     regs[4] = (unsigned char)((accel_bias_body[1] >> 24) & 0xFF);
 754              		.loc 1 668 5 is_stmt 1 view .LVU260
 668:MyHardWare/eMPL/inv_mpu_dmp_motion_driver.c ****     regs[4] = (unsigned char)((accel_bias_body[1] >> 24) & 0xFF);
 755              		.loc 1 668 13 is_stmt 0 view .LVU261
 756 00a8 8DF80B10 		strb	r1, [sp, #11]
 669:MyHardWare/eMPL/inv_mpu_dmp_motion_driver.c ****     regs[5] = (unsigned char)((accel_bias_body[1] >> 16) & 0xFF);
 757              		.loc 1 669 5 is_stmt 1 view .LVU262
 669:MyHardWare/eMPL/inv_mpu_dmp_motion_driver.c ****     regs[5] = (unsigned char)((accel_bias_body[1] >> 16) & 0xFF);
 758              		.loc 1 669 15 is_stmt 0 view .LVU263
 759 00ac 110E     		lsrs	r1, r2, #24
 669:MyHardWare/eMPL/inv_mpu_dmp_motion_driver.c ****     regs[5] = (unsigned char)((accel_bias_body[1] >> 16) & 0xFF);
 760              		.loc 1 669 13 view .LVU264
 761 00ae 8DF80C10 		strb	r1, [sp, #12]
 670:MyHardWare/eMPL/inv_mpu_dmp_motion_driver.c ****     regs[6] = (unsigned char)((accel_bias_body[1] >> 8) & 0xFF);
 762              		.loc 1 670 5 is_stmt 1 view .LVU265
 670:MyHardWare/eMPL/inv_mpu_dmp_motion_driver.c ****     regs[6] = (unsigned char)((accel_bias_body[1] >> 8) & 0xFF);
 763              		.loc 1 670 15 is_stmt 0 view .LVU266
 764 00b2 C2F30741 		ubfx	r1, r2, #16, #8
 670:MyHardWare/eMPL/inv_mpu_dmp_motion_driver.c ****     regs[6] = (unsigned char)((accel_bias_body[1] >> 8) & 0xFF);
 765              		.loc 1 670 13 view .LVU267
 766 00b6 8DF80D10 		strb	r1, [sp, #13]
 671:MyHardWare/eMPL/inv_mpu_dmp_motion_driver.c ****     regs[7] = (unsigned char)(accel_bias_body[1] & 0xFF);
 767              		.loc 1 671 5 is_stmt 1 view .LVU268
 671:MyHardWare/eMPL/inv_mpu_dmp_motion_driver.c ****     regs[7] = (unsigned char)(accel_bias_body[1] & 0xFF);
 768              		.loc 1 671 15 is_stmt 0 view .LVU269
 769 00ba C2F30721 		ubfx	r1, r2, #8, #8
 671:MyHardWare/eMPL/inv_mpu_dmp_motion_driver.c ****     regs[7] = (unsigned char)(accel_bias_body[1] & 0xFF);
 770              		.loc 1 671 13 view .LVU270
 771 00be 8DF80E10 		strb	r1, [sp, #14]
ARM GAS  /tmp/cckrZnTL.s 			page 40


 672:MyHardWare/eMPL/inv_mpu_dmp_motion_driver.c ****     regs[8] = (unsigned char)((accel_bias_body[2] >> 24) & 0xFF);
 772              		.loc 1 672 5 is_stmt 1 view .LVU271
 672:MyHardWare/eMPL/inv_mpu_dmp_motion_driver.c ****     regs[8] = (unsigned char)((accel_bias_body[2] >> 24) & 0xFF);
 773              		.loc 1 672 13 is_stmt 0 view .LVU272
 774 00c2 8DF80F20 		strb	r2, [sp, #15]
 673:MyHardWare/eMPL/inv_mpu_dmp_motion_driver.c ****     regs[9] = (unsigned char)((accel_bias_body[2] >> 16) & 0xFF);
 775              		.loc 1 673 5 is_stmt 1 view .LVU273
 673:MyHardWare/eMPL/inv_mpu_dmp_motion_driver.c ****     regs[9] = (unsigned char)((accel_bias_body[2] >> 16) & 0xFF);
 776              		.loc 1 673 15 is_stmt 0 view .LVU274
 777 00c6 1A0E     		lsrs	r2, r3, #24
 673:MyHardWare/eMPL/inv_mpu_dmp_motion_driver.c ****     regs[9] = (unsigned char)((accel_bias_body[2] >> 16) & 0xFF);
 778              		.loc 1 673 13 view .LVU275
 779 00c8 8DF81020 		strb	r2, [sp, #16]
 674:MyHardWare/eMPL/inv_mpu_dmp_motion_driver.c ****     regs[10] = (unsigned char)((accel_bias_body[2] >> 8) & 0xFF);
 780              		.loc 1 674 5 is_stmt 1 view .LVU276
 674:MyHardWare/eMPL/inv_mpu_dmp_motion_driver.c ****     regs[10] = (unsigned char)((accel_bias_body[2] >> 8) & 0xFF);
 781              		.loc 1 674 15 is_stmt 0 view .LVU277
 782 00cc C3F30742 		ubfx	r2, r3, #16, #8
 674:MyHardWare/eMPL/inv_mpu_dmp_motion_driver.c ****     regs[10] = (unsigned char)((accel_bias_body[2] >> 8) & 0xFF);
 783              		.loc 1 674 13 view .LVU278
 784 00d0 8DF81120 		strb	r2, [sp, #17]
 675:MyHardWare/eMPL/inv_mpu_dmp_motion_driver.c ****     regs[11] = (unsigned char)(accel_bias_body[2] & 0xFF);
 785              		.loc 1 675 5 is_stmt 1 view .LVU279
 675:MyHardWare/eMPL/inv_mpu_dmp_motion_driver.c ****     regs[11] = (unsigned char)(accel_bias_body[2] & 0xFF);
 786              		.loc 1 675 16 is_stmt 0 view .LVU280
 787 00d4 C3F30722 		ubfx	r2, r3, #8, #8
 675:MyHardWare/eMPL/inv_mpu_dmp_motion_driver.c ****     regs[11] = (unsigned char)(accel_bias_body[2] & 0xFF);
 788              		.loc 1 675 14 view .LVU281
 789 00d8 8DF81220 		strb	r2, [sp, #18]
 676:MyHardWare/eMPL/inv_mpu_dmp_motion_driver.c ****     return mpu_write_mem(D_ACCEL_BIAS, 12, regs);
 790              		.loc 1 676 5 is_stmt 1 view .LVU282
 676:MyHardWare/eMPL/inv_mpu_dmp_motion_driver.c ****     return mpu_write_mem(D_ACCEL_BIAS, 12, regs);
 791              		.loc 1 676 14 is_stmt 0 view .LVU283
 792 00dc 8DF81330 		strb	r3, [sp, #19]
 677:MyHardWare/eMPL/inv_mpu_dmp_motion_driver.c **** }
 793              		.loc 1 677 5 is_stmt 1 view .LVU284
 677:MyHardWare/eMPL/inv_mpu_dmp_motion_driver.c **** }
 794              		.loc 1 677 12 is_stmt 0 view .LVU285
 795 00e0 02AA     		add	r2, sp, #8
 796 00e2 0C21     		movs	r1, #12
 797 00e4 4FF42570 		mov	r0, #660
 798 00e8 FFF7FEFF 		bl	mpu_write_mem
 799              	.LVL26:
 678:MyHardWare/eMPL/inv_mpu_dmp_motion_driver.c **** 
 800              		.loc 1 678 1 view .LVU286
 801 00ec 08B0     		add	sp, sp, #32
 802              	.LCFI12:
 803              		.cfi_def_cfa_offset 8
 804              		@ sp needed
 805 00ee 10BD     		pop	{r4, pc}
 806              	.L39:
 807              		.align	2
 808              	.L38:
 809 00f0 00000000 		.word	dmp
 810              		.cfi_endproc
 811              	.LFE129:
 813              		.section	.rodata.dmp_set_fifo_rate.str1.4,"aMS",%progbits,1
ARM GAS  /tmp/cckrZnTL.s 			page 41


 814              		.align	2
 815              	.LC4:
 816 0000 FEF2ABC4 		.ascii	"\376\362\253\304\252\361\337\337\273\257\337\337\000"
 816      AAF1DFDF 
 816      BBAFDFDF 
 816      00
 817              		.section	.text.dmp_set_fifo_rate,"ax",%progbits
 818              		.align	1
 819              		.global	dmp_set_fifo_rate
 820              		.syntax unified
 821              		.thumb
 822              		.thumb_func
 824              	dmp_set_fifo_rate:
 825              	.LVL27:
 826              	.LFB130:
 687:MyHardWare/eMPL/inv_mpu_dmp_motion_driver.c ****     const unsigned char regs_end[12] = {DINAFE, DINAF2, DINAAB,
 827              		.loc 1 687 1 is_stmt 1 view -0
 828              		.cfi_startproc
 829              		@ args = 0, pretend = 0, frame = 24
 830              		@ frame_needed = 0, uses_anonymous_args = 0
 687:MyHardWare/eMPL/inv_mpu_dmp_motion_driver.c ****     const unsigned char regs_end[12] = {DINAFE, DINAF2, DINAAB,
 831              		.loc 1 687 1 is_stmt 0 view .LVU288
 832 0000 10B5     		push	{r4, lr}
 833              	.LCFI13:
 834              		.cfi_def_cfa_offset 8
 835              		.cfi_offset 4, -8
 836              		.cfi_offset 14, -4
 837 0002 86B0     		sub	sp, sp, #24
 838              	.LCFI14:
 839              		.cfi_def_cfa_offset 32
 840 0004 0446     		mov	r4, r0
 688:MyHardWare/eMPL/inv_mpu_dmp_motion_driver.c ****         0xc4, DINAAA, DINAF1, DINADF, DINADF, 0xBB, 0xAF, DINADF, DINADF};
 841              		.loc 1 688 5 is_stmt 1 view .LVU289
 688:MyHardWare/eMPL/inv_mpu_dmp_motion_driver.c ****         0xc4, DINAAA, DINAF1, DINADF, DINADF, 0xBB, 0xAF, DINADF, DINADF};
 842              		.loc 1 688 25 is_stmt 0 view .LVU290
 843 0006 164B     		ldr	r3, .L46
 844 0008 93E80700 		ldm	r3, {r0, r1, r2}
 845              	.LVL28:
 688:MyHardWare/eMPL/inv_mpu_dmp_motion_driver.c ****         0xc4, DINAAA, DINAF1, DINADF, DINADF, 0xBB, 0xAF, DINADF, DINADF};
 846              		.loc 1 688 25 view .LVU291
 847 000c 06AB     		add	r3, sp, #24
 848 000e 03E90700 		stmdb	r3, {r0, r1, r2}
 690:MyHardWare/eMPL/inv_mpu_dmp_motion_driver.c ****     unsigned char tmp[8];
 849              		.loc 1 690 5 is_stmt 1 view .LVU292
 691:MyHardWare/eMPL/inv_mpu_dmp_motion_driver.c **** 
 850              		.loc 1 691 5 view .LVU293
 693:MyHardWare/eMPL/inv_mpu_dmp_motion_driver.c ****         return -1;
 851              		.loc 1 693 5 view .LVU294
 693:MyHardWare/eMPL/inv_mpu_dmp_motion_driver.c ****         return -1;
 852              		.loc 1 693 8 is_stmt 0 view .LVU295
 853 0012 C82C     		cmp	r4, #200
 854 0014 1AD8     		bhi	.L42
 695:MyHardWare/eMPL/inv_mpu_dmp_motion_driver.c ****     tmp[0] = (unsigned char)((div >> 8) & 0xFF);
 855              		.loc 1 695 5 is_stmt 1 view .LVU296
 695:MyHardWare/eMPL/inv_mpu_dmp_motion_driver.c ****     tmp[0] = (unsigned char)((div >> 8) & 0xFF);
 856              		.loc 1 695 34 is_stmt 0 view .LVU297
 857 0016 C823     		movs	r3, #200
ARM GAS  /tmp/cckrZnTL.s 			page 42


 858 0018 93FBF4F3 		sdiv	r3, r3, r4
 695:MyHardWare/eMPL/inv_mpu_dmp_motion_driver.c ****     tmp[0] = (unsigned char)((div >> 8) & 0xFF);
 859              		.loc 1 695 9 view .LVU298
 860 001c 013B     		subs	r3, r3, #1
 861              	.LVL29:
 696:MyHardWare/eMPL/inv_mpu_dmp_motion_driver.c ****     tmp[1] = (unsigned char)(div & 0xFF);
 862              		.loc 1 696 5 is_stmt 1 view .LVU299
 696:MyHardWare/eMPL/inv_mpu_dmp_motion_driver.c ****     tmp[1] = (unsigned char)(div & 0xFF);
 863              		.loc 1 696 14 is_stmt 0 view .LVU300
 864 001e 1A0E     		lsrs	r2, r3, #24
 696:MyHardWare/eMPL/inv_mpu_dmp_motion_driver.c ****     tmp[1] = (unsigned char)(div & 0xFF);
 865              		.loc 1 696 12 view .LVU301
 866 0020 8DF80420 		strb	r2, [sp, #4]
 697:MyHardWare/eMPL/inv_mpu_dmp_motion_driver.c ****     if (mpu_write_mem(D_0_22, 2, tmp))
 867              		.loc 1 697 5 is_stmt 1 view .LVU302
 697:MyHardWare/eMPL/inv_mpu_dmp_motion_driver.c ****     if (mpu_write_mem(D_0_22, 2, tmp))
 868              		.loc 1 697 12 is_stmt 0 view .LVU303
 869 0024 8DF80530 		strb	r3, [sp, #5]
 698:MyHardWare/eMPL/inv_mpu_dmp_motion_driver.c ****         return -1;
 870              		.loc 1 698 5 is_stmt 1 view .LVU304
 698:MyHardWare/eMPL/inv_mpu_dmp_motion_driver.c ****         return -1;
 871              		.loc 1 698 9 is_stmt 0 view .LVU305
 872 0028 01AA     		add	r2, sp, #4
 873 002a 0221     		movs	r1, #2
 874 002c 40F21620 		movw	r0, #534
 875 0030 FFF7FEFF 		bl	mpu_write_mem
 876              	.LVL30:
 698:MyHardWare/eMPL/inv_mpu_dmp_motion_driver.c ****         return -1;
 877              		.loc 1 698 8 discriminator 1 view .LVU306
 878 0034 68B9     		cbnz	r0, .L43
 700:MyHardWare/eMPL/inv_mpu_dmp_motion_driver.c ****         return -1;
 879              		.loc 1 700 5 is_stmt 1 view .LVU307
 700:MyHardWare/eMPL/inv_mpu_dmp_motion_driver.c ****         return -1;
 880              		.loc 1 700 9 is_stmt 0 view .LVU308
 881 0036 03AA     		add	r2, sp, #12
 882 0038 0C21     		movs	r1, #12
 883 003a 40F6C120 		movw	r0, #2753
 884 003e FFF7FEFF 		bl	mpu_write_mem
 885              	.LVL31:
 700:MyHardWare/eMPL/inv_mpu_dmp_motion_driver.c ****         return -1;
 886              		.loc 1 700 8 discriminator 1 view .LVU309
 887 0042 48B9     		cbnz	r0, .L44
 703:MyHardWare/eMPL/inv_mpu_dmp_motion_driver.c ****     return 0;
 888              		.loc 1 703 5 is_stmt 1 view .LVU310
 703:MyHardWare/eMPL/inv_mpu_dmp_motion_driver.c ****     return 0;
 889              		.loc 1 703 19 is_stmt 0 view .LVU311
 890 0044 074B     		ldr	r3, .L46+4
 891 0046 9C81     		strh	r4, [r3, #12]	@ movhi
 704:MyHardWare/eMPL/inv_mpu_dmp_motion_driver.c **** }
 892              		.loc 1 704 5 is_stmt 1 view .LVU312
 893              	.LVL32:
 894              	.L40:
 705:MyHardWare/eMPL/inv_mpu_dmp_motion_driver.c **** 
 895              		.loc 1 705 1 is_stmt 0 view .LVU313
 896 0048 06B0     		add	sp, sp, #24
 897              	.LCFI15:
 898              		.cfi_remember_state
ARM GAS  /tmp/cckrZnTL.s 			page 43


 899              		.cfi_def_cfa_offset 8
 900              		@ sp needed
 901 004a 10BD     		pop	{r4, pc}
 902              	.LVL33:
 903              	.L42:
 904              	.LCFI16:
 905              		.cfi_restore_state
 694:MyHardWare/eMPL/inv_mpu_dmp_motion_driver.c ****     div = DMP_SAMPLE_RATE / rate - 1;
 906              		.loc 1 694 16 view .LVU314
 907 004c 4FF0FF30 		mov	r0, #-1
 908 0050 FAE7     		b	.L40
 909              	.LVL34:
 910              	.L43:
 699:MyHardWare/eMPL/inv_mpu_dmp_motion_driver.c ****     if (mpu_write_mem(CFG_6, 12, (unsigned char*)regs_end))
 911              		.loc 1 699 16 view .LVU315
 912 0052 4FF0FF30 		mov	r0, #-1
 913 0056 F7E7     		b	.L40
 914              	.L44:
 701:MyHardWare/eMPL/inv_mpu_dmp_motion_driver.c **** 
 915              		.loc 1 701 16 view .LVU316
 916 0058 4FF0FF30 		mov	r0, #-1
 917 005c F4E7     		b	.L40
 918              	.L47:
 919 005e 00BF     		.align	2
 920              	.L46:
 921 0060 00000000 		.word	.LC4
 922 0064 00000000 		.word	dmp
 923              		.cfi_endproc
 924              	.LFE130:
 926              		.section	.text.dmp_get_fifo_rate,"ax",%progbits
 927              		.align	1
 928              		.global	dmp_get_fifo_rate
 929              		.syntax unified
 930              		.thumb
 931              		.thumb_func
 933              	dmp_get_fifo_rate:
 934              	.LVL35:
 935              	.LFB131:
 713:MyHardWare/eMPL/inv_mpu_dmp_motion_driver.c ****     rate[0] = dmp.fifo_rate;
 936              		.loc 1 713 1 is_stmt 1 view -0
 937              		.cfi_startproc
 938              		@ args = 0, pretend = 0, frame = 0
 939              		@ frame_needed = 0, uses_anonymous_args = 0
 940              		@ link register save eliminated.
 714:MyHardWare/eMPL/inv_mpu_dmp_motion_driver.c ****     return 0;
 941              		.loc 1 714 5 view .LVU318
 714:MyHardWare/eMPL/inv_mpu_dmp_motion_driver.c ****     return 0;
 942              		.loc 1 714 18 is_stmt 0 view .LVU319
 943 0000 024B     		ldr	r3, .L49
 944 0002 9B89     		ldrh	r3, [r3, #12]
 714:MyHardWare/eMPL/inv_mpu_dmp_motion_driver.c ****     return 0;
 945              		.loc 1 714 13 view .LVU320
 946 0004 0380     		strh	r3, [r0]	@ movhi
 715:MyHardWare/eMPL/inv_mpu_dmp_motion_driver.c **** }
 947              		.loc 1 715 5 is_stmt 1 view .LVU321
 716:MyHardWare/eMPL/inv_mpu_dmp_motion_driver.c **** 
 948              		.loc 1 716 1 is_stmt 0 view .LVU322
ARM GAS  /tmp/cckrZnTL.s 			page 44


 949 0006 0020     		movs	r0, #0
 950              	.LVL36:
 716:MyHardWare/eMPL/inv_mpu_dmp_motion_driver.c **** 
 951              		.loc 1 716 1 view .LVU323
 952 0008 7047     		bx	lr
 953              	.L50:
 954 000a 00BF     		.align	2
 955              	.L49:
 956 000c 00000000 		.word	dmp
 957              		.cfi_endproc
 958              	.LFE131:
 960              		.section	.text.dmp_set_tap_thresh,"ax",%progbits
 961              		.align	1
 962              		.global	dmp_set_tap_thresh
 963              		.syntax unified
 964              		.thumb
 965              		.thumb_func
 967              	dmp_set_tap_thresh:
 968              	.LVL37:
 969              	.LFB132:
 725:MyHardWare/eMPL/inv_mpu_dmp_motion_driver.c ****     unsigned char tmp[4], accel_fsr;
 970              		.loc 1 725 1 is_stmt 1 view -0
 971              		.cfi_startproc
 972              		@ args = 0, pretend = 0, frame = 8
 973              		@ frame_needed = 0, uses_anonymous_args = 0
 726:MyHardWare/eMPL/inv_mpu_dmp_motion_driver.c ****     float scaled_thresh;
 974              		.loc 1 726 5 view .LVU325
 727:MyHardWare/eMPL/inv_mpu_dmp_motion_driver.c ****     unsigned short dmp_thresh, dmp_thresh_2;
 975              		.loc 1 727 5 view .LVU326
 728:MyHardWare/eMPL/inv_mpu_dmp_motion_driver.c ****     if (!(axis & TAP_XYZ) || thresh > 1600)
 976              		.loc 1 728 5 view .LVU327
 729:MyHardWare/eMPL/inv_mpu_dmp_motion_driver.c ****         return -1;
 977              		.loc 1 729 5 view .LVU328
 729:MyHardWare/eMPL/inv_mpu_dmp_motion_driver.c ****         return -1;
 978              		.loc 1 729 8 is_stmt 0 view .LVU329
 979 0000 10F0070F 		tst	r0, #7
 980 0004 00F0BE80 		beq	.L61
 725:MyHardWare/eMPL/inv_mpu_dmp_motion_driver.c ****     unsigned char tmp[4], accel_fsr;
 981              		.loc 1 725 1 view .LVU330
 982 0008 10B5     		push	{r4, lr}
 983              	.LCFI17:
 984              		.cfi_def_cfa_offset 8
 985              		.cfi_offset 4, -8
 986              		.cfi_offset 14, -4
 987 000a 2DED028B 		vpush.64	{d8}
 988              	.LCFI18:
 989              		.cfi_def_cfa_offset 16
 990              		.cfi_offset 80, -16
 991              		.cfi_offset 81, -12
 992 000e 82B0     		sub	sp, sp, #8
 993              	.LCFI19:
 994              		.cfi_def_cfa_offset 24
 995 0010 0446     		mov	r4, r0
 729:MyHardWare/eMPL/inv_mpu_dmp_motion_driver.c ****         return -1;
 996              		.loc 1 729 27 discriminator 1 view .LVU331
 997 0012 B1F5C86F 		cmp	r1, #1600
 998 0016 00F2B880 		bhi	.L62
ARM GAS  /tmp/cckrZnTL.s 			page 45


 732:MyHardWare/eMPL/inv_mpu_dmp_motion_driver.c **** 
 999              		.loc 1 732 5 is_stmt 1 view .LVU332
 732:MyHardWare/eMPL/inv_mpu_dmp_motion_driver.c **** 
 1000              		.loc 1 732 21 is_stmt 0 view .LVU333
 1001 001a 07EE901A 		vmov	s15, r1	@ int
 1002 001e F8EE677A 		vcvt.f32.u32	s15, s15
 732:MyHardWare/eMPL/inv_mpu_dmp_motion_driver.c **** 
 1003              		.loc 1 732 19 view .LVU334
 1004 0022 9FED637A 		vldr.32	s14, .L78
 1005 0026 87EE878A 		vdiv.f32	s16, s15, s14
 1006              	.LVL38:
 734:MyHardWare/eMPL/inv_mpu_dmp_motion_driver.c ****     switch (accel_fsr) {
 1007              		.loc 1 734 5 is_stmt 1 view .LVU335
 1008 002a 0DF10300 		add	r0, sp, #3
 1009              	.LVL39:
 734:MyHardWare/eMPL/inv_mpu_dmp_motion_driver.c ****     switch (accel_fsr) {
 1010              		.loc 1 734 5 is_stmt 0 view .LVU336
 1011 002e FFF7FEFF 		bl	mpu_get_accel_fsr
 1012              	.LVL40:
 735:MyHardWare/eMPL/inv_mpu_dmp_motion_driver.c ****     case 2:
 1013              		.loc 1 735 5 is_stmt 1 view .LVU337
 1014 0032 9DF80330 		ldrb	r3, [sp, #3]	@ zero_extendqisi2
 1015 0036 023B     		subs	r3, r3, #2
 1016 0038 0E2B     		cmp	r3, #14
 1017 003a 00F2A980 		bhi	.L63
 1018 003e DFE803F0 		tbb	[pc, r3]
 1019              	.L54:
 1020 0042 08       		.byte	(.L57-.L54)/2
 1021 0043 A7       		.byte	(.L63-.L54)/2
 1022 0044 2F       		.byte	(.L56-.L54)/2
 1023 0045 A7       		.byte	(.L63-.L54)/2
 1024 0046 A7       		.byte	(.L63-.L54)/2
 1025 0047 A7       		.byte	(.L63-.L54)/2
 1026 0048 42       		.byte	(.L55-.L54)/2
 1027 0049 A7       		.byte	(.L63-.L54)/2
 1028 004a A7       		.byte	(.L63-.L54)/2
 1029 004b A7       		.byte	(.L63-.L54)/2
 1030 004c A7       		.byte	(.L63-.L54)/2
 1031 004d A7       		.byte	(.L63-.L54)/2
 1032 004e A7       		.byte	(.L63-.L54)/2
 1033 004f A7       		.byte	(.L63-.L54)/2
 1034 0050 55       		.byte	(.L53-.L54)/2
 1035 0051 00       		.p2align 1
 1036              	.L57:
 737:MyHardWare/eMPL/inv_mpu_dmp_motion_driver.c ****         /* dmp_thresh * 0.75 */
 1037              		.loc 1 737 9 view .LVU338
 737:MyHardWare/eMPL/inv_mpu_dmp_motion_driver.c ****         /* dmp_thresh * 0.75 */
 1038              		.loc 1 737 53 is_stmt 0 view .LVU339
 1039 0052 DFED587A 		vldr.32	s15, .L78+4
 1040 0056 68EE277A 		vmul.f32	s15, s16, s15
 737:MyHardWare/eMPL/inv_mpu_dmp_motion_driver.c ****         /* dmp_thresh * 0.75 */
 1041              		.loc 1 737 20 view .LVU340
 1042 005a FCEEE77A 		vcvt.u32.f32	s15, s15
 1043 005e 17EE903A 		vmov	r3, s15	@ int
 1044 0062 9BB2     		uxth	r3, r3
 1045              	.LVL41:
 739:MyHardWare/eMPL/inv_mpu_dmp_motion_driver.c ****         break;
ARM GAS  /tmp/cckrZnTL.s 			page 46


 1046              		.loc 1 739 9 is_stmt 1 view .LVU341
 739:MyHardWare/eMPL/inv_mpu_dmp_motion_driver.c ****         break;
 1047              		.loc 1 739 55 is_stmt 0 view .LVU342
 1048 0064 DFED547A 		vldr.32	s15, .L78+8
 1049 0068 68EE277A 		vmul.f32	s15, s16, s15
 739:MyHardWare/eMPL/inv_mpu_dmp_motion_driver.c ****         break;
 1050              		.loc 1 739 22 view .LVU343
 1051 006c FCEEE77A 		vcvt.u32.f32	s15, s15
 1052 0070 17EE902A 		vmov	r2, s15	@ int
 1053 0074 92B2     		uxth	r2, r2
 1054              	.LVL42:
 740:MyHardWare/eMPL/inv_mpu_dmp_motion_driver.c ****     case 4:
 1055              		.loc 1 740 9 is_stmt 1 view .LVU344
 1056              	.L58:
 759:MyHardWare/eMPL/inv_mpu_dmp_motion_driver.c ****     tmp[1] = (unsigned char)(dmp_thresh & 0xFF);
 1057              		.loc 1 759 5 view .LVU345
 759:MyHardWare/eMPL/inv_mpu_dmp_motion_driver.c ****     tmp[1] = (unsigned char)(dmp_thresh & 0xFF);
 1058              		.loc 1 759 14 is_stmt 0 view .LVU346
 1059 0076 190A     		lsrs	r1, r3, #8
 759:MyHardWare/eMPL/inv_mpu_dmp_motion_driver.c ****     tmp[1] = (unsigned char)(dmp_thresh & 0xFF);
 1060              		.loc 1 759 12 view .LVU347
 1061 0078 8DF80410 		strb	r1, [sp, #4]
 760:MyHardWare/eMPL/inv_mpu_dmp_motion_driver.c ****     tmp[2] = (unsigned char)(dmp_thresh_2 >> 8);
 1062              		.loc 1 760 5 is_stmt 1 view .LVU348
 760:MyHardWare/eMPL/inv_mpu_dmp_motion_driver.c ****     tmp[2] = (unsigned char)(dmp_thresh_2 >> 8);
 1063              		.loc 1 760 12 is_stmt 0 view .LVU349
 1064 007c 8DF80530 		strb	r3, [sp, #5]
 761:MyHardWare/eMPL/inv_mpu_dmp_motion_driver.c ****     tmp[3] = (unsigned char)(dmp_thresh_2 & 0xFF);
 1065              		.loc 1 761 5 is_stmt 1 view .LVU350
 761:MyHardWare/eMPL/inv_mpu_dmp_motion_driver.c ****     tmp[3] = (unsigned char)(dmp_thresh_2 & 0xFF);
 1066              		.loc 1 761 14 is_stmt 0 view .LVU351
 1067 0080 130A     		lsrs	r3, r2, #8
 1068              	.LVL43:
 761:MyHardWare/eMPL/inv_mpu_dmp_motion_driver.c ****     tmp[3] = (unsigned char)(dmp_thresh_2 & 0xFF);
 1069              		.loc 1 761 12 view .LVU352
 1070 0082 8DF80630 		strb	r3, [sp, #6]
 762:MyHardWare/eMPL/inv_mpu_dmp_motion_driver.c **** 
 1071              		.loc 1 762 5 is_stmt 1 view .LVU353
 762:MyHardWare/eMPL/inv_mpu_dmp_motion_driver.c **** 
 1072              		.loc 1 762 12 is_stmt 0 view .LVU354
 1073 0086 8DF80720 		strb	r2, [sp, #7]
 764:MyHardWare/eMPL/inv_mpu_dmp_motion_driver.c ****         if (mpu_write_mem(DMP_TAP_THX, 2, tmp))
 1074              		.loc 1 764 5 is_stmt 1 view .LVU355
 764:MyHardWare/eMPL/inv_mpu_dmp_motion_driver.c ****         if (mpu_write_mem(DMP_TAP_THX, 2, tmp))
 1075              		.loc 1 764 8 is_stmt 0 view .LVU356
 1076 008a 14F0010F 		tst	r4, #1
 1077 008e 40D1     		bne	.L75
 1078              	.LVL44:
 1079              	.L59:
 770:MyHardWare/eMPL/inv_mpu_dmp_motion_driver.c ****         if (mpu_write_mem(DMP_TAP_THY, 2, tmp))
 1080              		.loc 1 770 5 is_stmt 1 view .LVU357
 770:MyHardWare/eMPL/inv_mpu_dmp_motion_driver.c ****         if (mpu_write_mem(DMP_TAP_THY, 2, tmp))
 1081              		.loc 1 770 8 is_stmt 0 view .LVU358
 1082 0090 14F0020F 		tst	r4, #2
 1083 0094 51D1     		bne	.L76
 1084              	.L60:
 776:MyHardWare/eMPL/inv_mpu_dmp_motion_driver.c ****         if (mpu_write_mem(DMP_TAP_THZ, 2, tmp))
ARM GAS  /tmp/cckrZnTL.s 			page 47


 1085              		.loc 1 776 5 is_stmt 1 view .LVU359
 776:MyHardWare/eMPL/inv_mpu_dmp_motion_driver.c ****         if (mpu_write_mem(DMP_TAP_THZ, 2, tmp))
 1086              		.loc 1 776 8 is_stmt 0 view .LVU360
 1087 0096 14F0040F 		tst	r4, #4
 1088 009a 61D1     		bne	.L77
 782:MyHardWare/eMPL/inv_mpu_dmp_motion_driver.c **** }
 1089              		.loc 1 782 12 view .LVU361
 1090 009c 0020     		movs	r0, #0
 1091 009e 79E0     		b	.L51
 1092              	.LVL45:
 1093              	.L56:
 742:MyHardWare/eMPL/inv_mpu_dmp_motion_driver.c ****         /* dmp_thresh * 0.75 */
 1094              		.loc 1 742 9 is_stmt 1 view .LVU362
 742:MyHardWare/eMPL/inv_mpu_dmp_motion_driver.c ****         /* dmp_thresh * 0.75 */
 1095              		.loc 1 742 53 is_stmt 0 view .LVU363
 1096 00a0 DFED467A 		vldr.32	s15, .L78+12
 1097 00a4 68EE277A 		vmul.f32	s15, s16, s15
 742:MyHardWare/eMPL/inv_mpu_dmp_motion_driver.c ****         /* dmp_thresh * 0.75 */
 1098              		.loc 1 742 20 view .LVU364
 1099 00a8 FCEEE77A 		vcvt.u32.f32	s15, s15
 1100 00ac 17EE903A 		vmov	r3, s15	@ int
 1101 00b0 9BB2     		uxth	r3, r3
 1102              	.LVL46:
 744:MyHardWare/eMPL/inv_mpu_dmp_motion_driver.c ****         break;
 1103              		.loc 1 744 9 is_stmt 1 view .LVU365
 744:MyHardWare/eMPL/inv_mpu_dmp_motion_driver.c ****         break;
 1104              		.loc 1 744 55 is_stmt 0 view .LVU366
 1105 00b2 DFED437A 		vldr.32	s15, .L78+16
 1106 00b6 68EE277A 		vmul.f32	s15, s16, s15
 744:MyHardWare/eMPL/inv_mpu_dmp_motion_driver.c ****         break;
 1107              		.loc 1 744 22 view .LVU367
 1108 00ba FCEEE77A 		vcvt.u32.f32	s15, s15
 1109 00be 17EE902A 		vmov	r2, s15	@ int
 1110 00c2 92B2     		uxth	r2, r2
 1111              	.LVL47:
 745:MyHardWare/eMPL/inv_mpu_dmp_motion_driver.c ****     case 8:
 1112              		.loc 1 745 9 is_stmt 1 view .LVU368
 1113 00c4 D7E7     		b	.L58
 1114              	.LVL48:
 1115              	.L55:
 747:MyHardWare/eMPL/inv_mpu_dmp_motion_driver.c ****         /* dmp_thresh * 0.75 */
 1116              		.loc 1 747 9 view .LVU369
 747:MyHardWare/eMPL/inv_mpu_dmp_motion_driver.c ****         /* dmp_thresh * 0.75 */
 1117              		.loc 1 747 53 is_stmt 0 view .LVU370
 1118 00c6 DFED3F7A 		vldr.32	s15, .L78+20
 1119 00ca 68EE277A 		vmul.f32	s15, s16, s15
 747:MyHardWare/eMPL/inv_mpu_dmp_motion_driver.c ****         /* dmp_thresh * 0.75 */
 1120              		.loc 1 747 20 view .LVU371
 1121 00ce FCEEE77A 		vcvt.u32.f32	s15, s15
 1122 00d2 17EE903A 		vmov	r3, s15	@ int
 1123 00d6 9BB2     		uxth	r3, r3
 1124              	.LVL49:
 749:MyHardWare/eMPL/inv_mpu_dmp_motion_driver.c ****         break;
 1125              		.loc 1 749 9 is_stmt 1 view .LVU372
 749:MyHardWare/eMPL/inv_mpu_dmp_motion_driver.c ****         break;
 1126              		.loc 1 749 55 is_stmt 0 view .LVU373
 1127 00d8 DFED3B7A 		vldr.32	s15, .L78+24
ARM GAS  /tmp/cckrZnTL.s 			page 48


 1128 00dc 68EE277A 		vmul.f32	s15, s16, s15
 749:MyHardWare/eMPL/inv_mpu_dmp_motion_driver.c ****         break;
 1129              		.loc 1 749 22 view .LVU374
 1130 00e0 FCEEE77A 		vcvt.u32.f32	s15, s15
 1131 00e4 17EE902A 		vmov	r2, s15	@ int
 1132 00e8 92B2     		uxth	r2, r2
 1133              	.LVL50:
 750:MyHardWare/eMPL/inv_mpu_dmp_motion_driver.c ****     case 16:
 1134              		.loc 1 750 9 is_stmt 1 view .LVU375
 1135 00ea C4E7     		b	.L58
 1136              	.LVL51:
 1137              	.L53:
 752:MyHardWare/eMPL/inv_mpu_dmp_motion_driver.c ****         /* dmp_thresh * 0.75 */
 1138              		.loc 1 752 9 view .LVU376
 752:MyHardWare/eMPL/inv_mpu_dmp_motion_driver.c ****         /* dmp_thresh * 0.75 */
 1139              		.loc 1 752 53 is_stmt 0 view .LVU377
 1140 00ec DFED377A 		vldr.32	s15, .L78+28
 1141 00f0 68EE277A 		vmul.f32	s15, s16, s15
 752:MyHardWare/eMPL/inv_mpu_dmp_motion_driver.c ****         /* dmp_thresh * 0.75 */
 1142              		.loc 1 752 20 view .LVU378
 1143 00f4 FCEEE77A 		vcvt.u32.f32	s15, s15
 1144 00f8 17EE903A 		vmov	r3, s15	@ int
 1145 00fc 9BB2     		uxth	r3, r3
 1146              	.LVL52:
 754:MyHardWare/eMPL/inv_mpu_dmp_motion_driver.c ****         break;
 1147              		.loc 1 754 9 is_stmt 1 view .LVU379
 754:MyHardWare/eMPL/inv_mpu_dmp_motion_driver.c ****         break;
 1148              		.loc 1 754 55 is_stmt 0 view .LVU380
 1149 00fe DFED347A 		vldr.32	s15, .L78+32
 1150 0102 28EE278A 		vmul.f32	s16, s16, s15
 1151              	.LVL53:
 754:MyHardWare/eMPL/inv_mpu_dmp_motion_driver.c ****         break;
 1152              		.loc 1 754 22 view .LVU381
 1153 0106 BCEEC88A 		vcvt.u32.f32	s16, s16
 1154 010a 18EE102A 		vmov	r2, s16	@ int
 1155 010e 92B2     		uxth	r2, r2
 1156              	.LVL54:
 755:MyHardWare/eMPL/inv_mpu_dmp_motion_driver.c ****     default:
 1157              		.loc 1 755 9 is_stmt 1 view .LVU382
 1158 0110 B1E7     		b	.L58
 1159              	.LVL55:
 1160              	.L75:
 765:MyHardWare/eMPL/inv_mpu_dmp_motion_driver.c ****             return -1;
 1161              		.loc 1 765 9 view .LVU383
 765:MyHardWare/eMPL/inv_mpu_dmp_motion_driver.c ****             return -1;
 1162              		.loc 1 765 13 is_stmt 0 view .LVU384
 1163 0112 01AA     		add	r2, sp, #4
 1164              	.LVL56:
 765:MyHardWare/eMPL/inv_mpu_dmp_motion_driver.c ****             return -1;
 1165              		.loc 1 765 13 view .LVU385
 1166 0114 0221     		movs	r1, #2
 1167 0116 4FF4EA70 		mov	r0, #468
 1168 011a FFF7FEFF 		bl	mpu_write_mem
 1169              	.LVL57:
 765:MyHardWare/eMPL/inv_mpu_dmp_motion_driver.c ****             return -1;
 1170              		.loc 1 765 12 discriminator 1 view .LVU386
 1171 011e 0028     		cmp	r0, #0
ARM GAS  /tmp/cckrZnTL.s 			page 49


 1172 0120 3CD1     		bne	.L64
 767:MyHardWare/eMPL/inv_mpu_dmp_motion_driver.c ****             return -1;
 1173              		.loc 1 767 9 is_stmt 1 view .LVU387
 767:MyHardWare/eMPL/inv_mpu_dmp_motion_driver.c ****             return -1;
 1174              		.loc 1 767 13 is_stmt 0 view .LVU388
 1175 0122 0DF10602 		add	r2, sp, #6
 1176 0126 0221     		movs	r1, #2
 1177 0128 4FF49270 		mov	r0, #292
 1178 012c FFF7FEFF 		bl	mpu_write_mem
 1179              	.LVL58:
 767:MyHardWare/eMPL/inv_mpu_dmp_motion_driver.c ****             return -1;
 1180              		.loc 1 767 12 discriminator 1 view .LVU389
 1181 0130 0028     		cmp	r0, #0
 1182 0132 ADD0     		beq	.L59
 768:MyHardWare/eMPL/inv_mpu_dmp_motion_driver.c ****     }
 1183              		.loc 1 768 20 view .LVU390
 1184 0134 4FF0FF30 		mov	r0, #-1
 1185 0138 2CE0     		b	.L51
 1186              	.L76:
 771:MyHardWare/eMPL/inv_mpu_dmp_motion_driver.c ****             return -1;
 1187              		.loc 1 771 9 is_stmt 1 view .LVU391
 771:MyHardWare/eMPL/inv_mpu_dmp_motion_driver.c ****             return -1;
 1188              		.loc 1 771 13 is_stmt 0 view .LVU392
 1189 013a 01AA     		add	r2, sp, #4
 1190 013c 0221     		movs	r1, #2
 1191 013e 4FF4EC70 		mov	r0, #472
 1192 0142 FFF7FEFF 		bl	mpu_write_mem
 1193              	.LVL59:
 771:MyHardWare/eMPL/inv_mpu_dmp_motion_driver.c ****             return -1;
 1194              		.loc 1 771 12 discriminator 1 view .LVU393
 1195 0146 60BB     		cbnz	r0, .L66
 773:MyHardWare/eMPL/inv_mpu_dmp_motion_driver.c ****             return -1;
 1196              		.loc 1 773 9 is_stmt 1 view .LVU394
 773:MyHardWare/eMPL/inv_mpu_dmp_motion_driver.c ****             return -1;
 1197              		.loc 1 773 13 is_stmt 0 view .LVU395
 1198 0148 0DF10602 		add	r2, sp, #6
 1199 014c 0221     		movs	r1, #2
 1200 014e 4FF49470 		mov	r0, #296
 1201 0152 FFF7FEFF 		bl	mpu_write_mem
 1202              	.LVL60:
 773:MyHardWare/eMPL/inv_mpu_dmp_motion_driver.c ****             return -1;
 1203              		.loc 1 773 12 discriminator 1 view .LVU396
 1204 0156 0028     		cmp	r0, #0
 1205 0158 9DD0     		beq	.L60
 774:MyHardWare/eMPL/inv_mpu_dmp_motion_driver.c ****     }
 1206              		.loc 1 774 20 view .LVU397
 1207 015a 4FF0FF30 		mov	r0, #-1
 1208 015e 19E0     		b	.L51
 1209              	.L77:
 777:MyHardWare/eMPL/inv_mpu_dmp_motion_driver.c ****             return -1;
 1210              		.loc 1 777 9 is_stmt 1 view .LVU398
 777:MyHardWare/eMPL/inv_mpu_dmp_motion_driver.c ****             return -1;
 1211              		.loc 1 777 13 is_stmt 0 view .LVU399
 1212 0160 01AA     		add	r2, sp, #4
 1213 0162 0221     		movs	r1, #2
 1214 0164 4FF4EE70 		mov	r0, #476
 1215 0168 FFF7FEFF 		bl	mpu_write_mem
ARM GAS  /tmp/cckrZnTL.s 			page 50


 1216              	.LVL61:
 777:MyHardWare/eMPL/inv_mpu_dmp_motion_driver.c ****             return -1;
 1217              		.loc 1 777 12 discriminator 1 view .LVU400
 1218 016c E0B9     		cbnz	r0, .L69
 779:MyHardWare/eMPL/inv_mpu_dmp_motion_driver.c ****             return -1;
 1219              		.loc 1 779 9 is_stmt 1 view .LVU401
 779:MyHardWare/eMPL/inv_mpu_dmp_motion_driver.c ****             return -1;
 1220              		.loc 1 779 13 is_stmt 0 view .LVU402
 1221 016e 0DF10602 		add	r2, sp, #6
 1222 0172 0221     		movs	r1, #2
 1223 0174 4FF49670 		mov	r0, #300
 1224 0178 FFF7FEFF 		bl	mpu_write_mem
 1225              	.LVL62:
 779:MyHardWare/eMPL/inv_mpu_dmp_motion_driver.c ****             return -1;
 1226              		.loc 1 779 12 discriminator 1 view .LVU403
 1227 017c 50B1     		cbz	r0, .L51
 780:MyHardWare/eMPL/inv_mpu_dmp_motion_driver.c ****     }
 1228              		.loc 1 780 20 view .LVU404
 1229 017e 4FF0FF30 		mov	r0, #-1
 1230 0182 07E0     		b	.L51
 1231              	.LVL63:
 1232              	.L61:
 1233              	.LCFI20:
 1234              		.cfi_def_cfa_offset 0
 1235              		.cfi_restore 4
 1236              		.cfi_restore 14
 1237              		.cfi_restore 80
 1238              		.cfi_restore 81
 730:MyHardWare/eMPL/inv_mpu_dmp_motion_driver.c **** 
 1239              		.loc 1 730 16 view .LVU405
 1240 0184 4FF0FF30 		mov	r0, #-1
 1241              	.LVL64:
 783:MyHardWare/eMPL/inv_mpu_dmp_motion_driver.c **** 
 1242              		.loc 1 783 1 view .LVU406
 1243 0188 7047     		bx	lr
 1244              	.LVL65:
 1245              	.L62:
 1246              	.LCFI21:
 1247              		.cfi_def_cfa_offset 24
 1248              		.cfi_offset 4, -8
 1249              		.cfi_offset 14, -4
 1250              		.cfi_offset 80, -16
 1251              		.cfi_offset 81, -12
 730:MyHardWare/eMPL/inv_mpu_dmp_motion_driver.c **** 
 1252              		.loc 1 730 16 view .LVU407
 1253 018a 4FF0FF30 		mov	r0, #-1
 1254              	.LVL66:
 730:MyHardWare/eMPL/inv_mpu_dmp_motion_driver.c **** 
 1255              		.loc 1 730 16 view .LVU408
 1256 018e 01E0     		b	.L51
 1257              	.LVL67:
 1258              	.L63:
 735:MyHardWare/eMPL/inv_mpu_dmp_motion_driver.c ****     case 2:
 1259              		.loc 1 735 5 view .LVU409
 1260 0190 4FF0FF30 		mov	r0, #-1
 1261              	.LVL68:
 1262              	.L51:
ARM GAS  /tmp/cckrZnTL.s 			page 51


 783:MyHardWare/eMPL/inv_mpu_dmp_motion_driver.c **** 
 1263              		.loc 1 783 1 view .LVU410
 1264 0194 02B0     		add	sp, sp, #8
 1265              	.LCFI22:
 1266              		.cfi_remember_state
 1267              		.cfi_def_cfa_offset 16
 1268              		@ sp needed
 1269 0196 BDEC028B 		vldm	sp!, {d8}
 1270              	.LCFI23:
 1271              		.cfi_restore 80
 1272              		.cfi_restore 81
 1273              		.cfi_def_cfa_offset 8
 1274 019a 10BD     		pop	{r4, pc}
 1275              	.LVL69:
 1276              	.L64:
 1277              	.LCFI24:
 1278              		.cfi_restore_state
 766:MyHardWare/eMPL/inv_mpu_dmp_motion_driver.c ****         if (mpu_write_mem(D_1_36, 2, tmp+2))
 1279              		.loc 1 766 20 view .LVU411
 1280 019c 4FF0FF30 		mov	r0, #-1
 1281 01a0 F8E7     		b	.L51
 1282              	.L66:
 772:MyHardWare/eMPL/inv_mpu_dmp_motion_driver.c ****         if (mpu_write_mem(D_1_40, 2, tmp+2))
 1283              		.loc 1 772 20 view .LVU412
 1284 01a2 4FF0FF30 		mov	r0, #-1
 1285 01a6 F5E7     		b	.L51
 1286              	.L69:
 778:MyHardWare/eMPL/inv_mpu_dmp_motion_driver.c ****         if (mpu_write_mem(D_1_44, 2, tmp+2))
 1287              		.loc 1 778 20 view .LVU413
 1288 01a8 4FF0FF30 		mov	r0, #-1
 1289 01ac F2E7     		b	.L51
 1290              	.L79:
 1291 01ae 00BF     		.align	2
 1292              	.L78:
 1293 01b0 00004843 		.word	1128792064
 1294 01b4 00008046 		.word	1182793728
 1295 01b8 00004046 		.word	1178599424
 1296 01bc 00000046 		.word	1174405120
 1297 01c0 0000C045 		.word	1170210816
 1298 01c4 00008045 		.word	1166016512
 1299 01c8 00004045 		.word	1161822208
 1300 01cc 00000045 		.word	1157627904
 1301 01d0 0000C044 		.word	1153433600
 1302              		.cfi_endproc
 1303              	.LFE132:
 1305              		.section	.text.dmp_set_tap_axes,"ax",%progbits
 1306              		.align	1
 1307              		.global	dmp_set_tap_axes
 1308              		.syntax unified
 1309              		.thumb
 1310              		.thumb_func
 1312              	dmp_set_tap_axes:
 1313              	.LVL70:
 1314              	.LFB133:
 791:MyHardWare/eMPL/inv_mpu_dmp_motion_driver.c ****     unsigned char tmp = 0;
 1315              		.loc 1 791 1 is_stmt 1 view -0
 1316              		.cfi_startproc
ARM GAS  /tmp/cckrZnTL.s 			page 52


 1317              		@ args = 0, pretend = 0, frame = 8
 1318              		@ frame_needed = 0, uses_anonymous_args = 0
 791:MyHardWare/eMPL/inv_mpu_dmp_motion_driver.c ****     unsigned char tmp = 0;
 1319              		.loc 1 791 1 is_stmt 0 view .LVU415
 1320 0000 00B5     		push	{lr}
 1321              	.LCFI25:
 1322              		.cfi_def_cfa_offset 4
 1323              		.cfi_offset 14, -4
 1324 0002 83B0     		sub	sp, sp, #12
 1325              	.LCFI26:
 1326              		.cfi_def_cfa_offset 16
 792:MyHardWare/eMPL/inv_mpu_dmp_motion_driver.c **** 
 1327              		.loc 1 792 5 is_stmt 1 view .LVU416
 792:MyHardWare/eMPL/inv_mpu_dmp_motion_driver.c **** 
 1328              		.loc 1 792 19 is_stmt 0 view .LVU417
 1329 0004 0023     		movs	r3, #0
 1330 0006 8DF80730 		strb	r3, [sp, #7]
 794:MyHardWare/eMPL/inv_mpu_dmp_motion_driver.c ****         tmp |= 0x30;
 1331              		.loc 1 794 5 is_stmt 1 view .LVU418
 794:MyHardWare/eMPL/inv_mpu_dmp_motion_driver.c ****         tmp |= 0x30;
 1332              		.loc 1 794 8 is_stmt 0 view .LVU419
 1333 000a 10F0010F 		tst	r0, #1
 1334 000e 02D0     		beq	.L81
 795:MyHardWare/eMPL/inv_mpu_dmp_motion_driver.c ****     if (axis & TAP_Y)
 1335              		.loc 1 795 9 is_stmt 1 view .LVU420
 795:MyHardWare/eMPL/inv_mpu_dmp_motion_driver.c ****     if (axis & TAP_Y)
 1336              		.loc 1 795 13 is_stmt 0 view .LVU421
 1337 0010 3023     		movs	r3, #48
 1338 0012 8DF80730 		strb	r3, [sp, #7]
 1339              	.L81:
 796:MyHardWare/eMPL/inv_mpu_dmp_motion_driver.c ****         tmp |= 0x0C;
 1340              		.loc 1 796 5 is_stmt 1 view .LVU422
 796:MyHardWare/eMPL/inv_mpu_dmp_motion_driver.c ****         tmp |= 0x0C;
 1341              		.loc 1 796 8 is_stmt 0 view .LVU423
 1342 0016 10F0020F 		tst	r0, #2
 1343 001a 05D0     		beq	.L82
 797:MyHardWare/eMPL/inv_mpu_dmp_motion_driver.c ****     if (axis & TAP_Z)
 1344              		.loc 1 797 9 is_stmt 1 view .LVU424
 797:MyHardWare/eMPL/inv_mpu_dmp_motion_driver.c ****     if (axis & TAP_Z)
 1345              		.loc 1 797 13 is_stmt 0 view .LVU425
 1346 001c 9DF80730 		ldrb	r3, [sp, #7]	@ zero_extendqisi2
 1347 0020 43F00C03 		orr	r3, r3, #12
 1348 0024 8DF80730 		strb	r3, [sp, #7]
 1349              	.L82:
 798:MyHardWare/eMPL/inv_mpu_dmp_motion_driver.c ****         tmp |= 0x03;
 1350              		.loc 1 798 5 is_stmt 1 view .LVU426
 798:MyHardWare/eMPL/inv_mpu_dmp_motion_driver.c ****         tmp |= 0x03;
 1351              		.loc 1 798 8 is_stmt 0 view .LVU427
 1352 0028 10F0040F 		tst	r0, #4
 1353 002c 05D0     		beq	.L83
 799:MyHardWare/eMPL/inv_mpu_dmp_motion_driver.c ****     return mpu_write_mem(D_1_72, 1, &tmp);
 1354              		.loc 1 799 9 is_stmt 1 view .LVU428
 799:MyHardWare/eMPL/inv_mpu_dmp_motion_driver.c ****     return mpu_write_mem(D_1_72, 1, &tmp);
 1355              		.loc 1 799 13 is_stmt 0 view .LVU429
 1356 002e 9DF80730 		ldrb	r3, [sp, #7]	@ zero_extendqisi2
 1357 0032 43F00303 		orr	r3, r3, #3
 1358 0036 8DF80730 		strb	r3, [sp, #7]
ARM GAS  /tmp/cckrZnTL.s 			page 53


 1359              	.L83:
 800:MyHardWare/eMPL/inv_mpu_dmp_motion_driver.c **** }
 1360              		.loc 1 800 5 is_stmt 1 view .LVU430
 800:MyHardWare/eMPL/inv_mpu_dmp_motion_driver.c **** }
 1361              		.loc 1 800 12 is_stmt 0 view .LVU431
 1362 003a 0DF10702 		add	r2, sp, #7
 1363 003e 0121     		movs	r1, #1
 1364 0040 4FF4A470 		mov	r0, #328
 1365              	.LVL71:
 800:MyHardWare/eMPL/inv_mpu_dmp_motion_driver.c **** }
 1366              		.loc 1 800 12 view .LVU432
 1367 0044 FFF7FEFF 		bl	mpu_write_mem
 1368              	.LVL72:
 801:MyHardWare/eMPL/inv_mpu_dmp_motion_driver.c **** 
 1369              		.loc 1 801 1 view .LVU433
 1370 0048 03B0     		add	sp, sp, #12
 1371              	.LCFI27:
 1372              		.cfi_def_cfa_offset 4
 1373              		@ sp needed
 1374 004a 5DF804FB 		ldr	pc, [sp], #4
 1375              		.cfi_endproc
 1376              	.LFE133:
 1378              		.section	.text.dmp_set_tap_count,"ax",%progbits
 1379              		.align	1
 1380              		.global	dmp_set_tap_count
 1381              		.syntax unified
 1382              		.thumb
 1383              		.thumb_func
 1385              	dmp_set_tap_count:
 1386              	.LVL73:
 1387              	.LFB134:
 809:MyHardWare/eMPL/inv_mpu_dmp_motion_driver.c ****     unsigned char tmp;
 1388              		.loc 1 809 1 is_stmt 1 view -0
 1389              		.cfi_startproc
 1390              		@ args = 0, pretend = 0, frame = 8
 1391              		@ frame_needed = 0, uses_anonymous_args = 0
 809:MyHardWare/eMPL/inv_mpu_dmp_motion_driver.c ****     unsigned char tmp;
 1392              		.loc 1 809 1 is_stmt 0 view .LVU435
 1393 0000 00B5     		push	{lr}
 1394              	.LCFI28:
 1395              		.cfi_def_cfa_offset 4
 1396              		.cfi_offset 14, -4
 1397 0002 83B0     		sub	sp, sp, #12
 1398              	.LCFI29:
 1399              		.cfi_def_cfa_offset 16
 810:MyHardWare/eMPL/inv_mpu_dmp_motion_driver.c **** 
 1400              		.loc 1 810 5 is_stmt 1 view .LVU436
 812:MyHardWare/eMPL/inv_mpu_dmp_motion_driver.c ****         min_taps = 1;
 1401              		.loc 1 812 5 view .LVU437
 812:MyHardWare/eMPL/inv_mpu_dmp_motion_driver.c ****         min_taps = 1;
 1402              		.loc 1 812 8 is_stmt 0 view .LVU438
 1403 0004 20B1     		cbz	r0, .L87
 1404 0006 0346     		mov	r3, r0
 814:MyHardWare/eMPL/inv_mpu_dmp_motion_driver.c ****         min_taps = 4;
 1405              		.loc 1 814 10 is_stmt 1 view .LVU439
 814:MyHardWare/eMPL/inv_mpu_dmp_motion_driver.c ****         min_taps = 4;
 1406              		.loc 1 814 13 is_stmt 0 view .LVU440
ARM GAS  /tmp/cckrZnTL.s 			page 54


 1407 0008 0428     		cmp	r0, #4
 1408 000a 02D9     		bls	.L86
 815:MyHardWare/eMPL/inv_mpu_dmp_motion_driver.c **** 
 1409              		.loc 1 815 18 view .LVU441
 1410 000c 0423     		movs	r3, #4
 1411 000e 00E0     		b	.L86
 1412              	.L87:
 813:MyHardWare/eMPL/inv_mpu_dmp_motion_driver.c ****     else if (min_taps > 4)
 1413              		.loc 1 813 18 view .LVU442
 1414 0010 0123     		movs	r3, #1
 1415              	.L86:
 1416              	.LVL74:
 817:MyHardWare/eMPL/inv_mpu_dmp_motion_driver.c ****     return mpu_write_mem(D_1_79, 1, &tmp);
 1417              		.loc 1 817 5 is_stmt 1 view .LVU443
 817:MyHardWare/eMPL/inv_mpu_dmp_motion_driver.c ****     return mpu_write_mem(D_1_79, 1, &tmp);
 1418              		.loc 1 817 20 is_stmt 0 view .LVU444
 1419 0012 013B     		subs	r3, r3, #1
 1420              	.LVL75:
 817:MyHardWare/eMPL/inv_mpu_dmp_motion_driver.c ****     return mpu_write_mem(D_1_79, 1, &tmp);
 1421              		.loc 1 817 9 view .LVU445
 1422 0014 8DF80730 		strb	r3, [sp, #7]
 818:MyHardWare/eMPL/inv_mpu_dmp_motion_driver.c **** }
 1423              		.loc 1 818 5 is_stmt 1 view .LVU446
 818:MyHardWare/eMPL/inv_mpu_dmp_motion_driver.c **** }
 1424              		.loc 1 818 12 is_stmt 0 view .LVU447
 1425 0018 0DF10702 		add	r2, sp, #7
 1426 001c 0121     		movs	r1, #1
 1427 001e 40F24F10 		movw	r0, #335
 1428 0022 FFF7FEFF 		bl	mpu_write_mem
 1429              	.LVL76:
 819:MyHardWare/eMPL/inv_mpu_dmp_motion_driver.c **** 
 1430              		.loc 1 819 1 view .LVU448
 1431 0026 03B0     		add	sp, sp, #12
 1432              	.LCFI30:
 1433              		.cfi_def_cfa_offset 4
 1434              		@ sp needed
 1435 0028 5DF804FB 		ldr	pc, [sp], #4
 1436              		.cfi_endproc
 1437              	.LFE134:
 1439              		.section	.text.dmp_set_tap_time,"ax",%progbits
 1440              		.align	1
 1441              		.global	dmp_set_tap_time
 1442              		.syntax unified
 1443              		.thumb
 1444              		.thumb_func
 1446              	dmp_set_tap_time:
 1447              	.LVL77:
 1448              	.LFB135:
 827:MyHardWare/eMPL/inv_mpu_dmp_motion_driver.c ****     unsigned short dmp_time;
 1449              		.loc 1 827 1 is_stmt 1 view -0
 1450              		.cfi_startproc
 1451              		@ args = 0, pretend = 0, frame = 8
 1452              		@ frame_needed = 0, uses_anonymous_args = 0
 827:MyHardWare/eMPL/inv_mpu_dmp_motion_driver.c ****     unsigned short dmp_time;
 1453              		.loc 1 827 1 is_stmt 0 view .LVU450
 1454 0000 00B5     		push	{lr}
 1455              	.LCFI31:
ARM GAS  /tmp/cckrZnTL.s 			page 55


 1456              		.cfi_def_cfa_offset 4
 1457              		.cfi_offset 14, -4
 1458 0002 83B0     		sub	sp, sp, #12
 1459              	.LCFI32:
 1460              		.cfi_def_cfa_offset 16
 828:MyHardWare/eMPL/inv_mpu_dmp_motion_driver.c ****     unsigned char tmp[2];
 1461              		.loc 1 828 5 is_stmt 1 view .LVU451
 829:MyHardWare/eMPL/inv_mpu_dmp_motion_driver.c **** 
 1462              		.loc 1 829 5 view .LVU452
 831:MyHardWare/eMPL/inv_mpu_dmp_motion_driver.c ****     tmp[0] = (unsigned char)(dmp_time >> 8);
 1463              		.loc 1 831 5 view .LVU453
 831:MyHardWare/eMPL/inv_mpu_dmp_motion_driver.c ****     tmp[0] = (unsigned char)(dmp_time >> 8);
 1464              		.loc 1 831 14 is_stmt 0 view .LVU454
 1465 0004 094B     		ldr	r3, .L92
 1466 0006 A3FB0030 		umull	r3, r0, r3, r0
 1467              	.LVL78:
 832:MyHardWare/eMPL/inv_mpu_dmp_motion_driver.c ****     tmp[1] = (unsigned char)(dmp_time & 0xFF);
 1468              		.loc 1 832 5 is_stmt 1 view .LVU455
 832:MyHardWare/eMPL/inv_mpu_dmp_motion_driver.c ****     tmp[1] = (unsigned char)(dmp_time & 0xFF);
 1469              		.loc 1 832 14 is_stmt 0 view .LVU456
 1470 000a 830A     		lsrs	r3, r0, #10
 832:MyHardWare/eMPL/inv_mpu_dmp_motion_driver.c ****     tmp[1] = (unsigned char)(dmp_time & 0xFF);
 1471              		.loc 1 832 12 view .LVU457
 1472 000c 8DF80430 		strb	r3, [sp, #4]
 833:MyHardWare/eMPL/inv_mpu_dmp_motion_driver.c ****     return mpu_write_mem(DMP_TAPW_MIN, 2, tmp);
 1473              		.loc 1 833 5 is_stmt 1 view .LVU458
 833:MyHardWare/eMPL/inv_mpu_dmp_motion_driver.c ****     return mpu_write_mem(DMP_TAPW_MIN, 2, tmp);
 1474              		.loc 1 833 14 is_stmt 0 view .LVU459
 1475 0010 C0F38700 		ubfx	r0, r0, #2, #8
 1476              	.LVL79:
 833:MyHardWare/eMPL/inv_mpu_dmp_motion_driver.c ****     return mpu_write_mem(DMP_TAPW_MIN, 2, tmp);
 1477              		.loc 1 833 12 view .LVU460
 1478 0014 8DF80500 		strb	r0, [sp, #5]
 834:MyHardWare/eMPL/inv_mpu_dmp_motion_driver.c **** }
 1479              		.loc 1 834 5 is_stmt 1 view .LVU461
 834:MyHardWare/eMPL/inv_mpu_dmp_motion_driver.c **** }
 1480              		.loc 1 834 12 is_stmt 0 view .LVU462
 1481 0018 01AA     		add	r2, sp, #4
 1482 001a 0221     		movs	r1, #2
 1483 001c 4FF4EF70 		mov	r0, #478
 1484 0020 FFF7FEFF 		bl	mpu_write_mem
 1485              	.LVL80:
 835:MyHardWare/eMPL/inv_mpu_dmp_motion_driver.c **** 
 1486              		.loc 1 835 1 view .LVU463
 1487 0024 03B0     		add	sp, sp, #12
 1488              	.LCFI33:
 1489              		.cfi_def_cfa_offset 4
 1490              		@ sp needed
 1491 0026 5DF804FB 		ldr	pc, [sp], #4
 1492              	.L93:
 1493 002a 00BF     		.align	2
 1494              	.L92:
 1495 002c CDCCCCCC 		.word	-858993459
 1496              		.cfi_endproc
 1497              	.LFE135:
 1499              		.section	.text.dmp_set_tap_time_multi,"ax",%progbits
 1500              		.align	1
ARM GAS  /tmp/cckrZnTL.s 			page 56


 1501              		.global	dmp_set_tap_time_multi
 1502              		.syntax unified
 1503              		.thumb
 1504              		.thumb_func
 1506              	dmp_set_tap_time_multi:
 1507              	.LVL81:
 1508              	.LFB136:
 843:MyHardWare/eMPL/inv_mpu_dmp_motion_driver.c ****     unsigned short dmp_time;
 1509              		.loc 1 843 1 is_stmt 1 view -0
 1510              		.cfi_startproc
 1511              		@ args = 0, pretend = 0, frame = 8
 1512              		@ frame_needed = 0, uses_anonymous_args = 0
 843:MyHardWare/eMPL/inv_mpu_dmp_motion_driver.c ****     unsigned short dmp_time;
 1513              		.loc 1 843 1 is_stmt 0 view .LVU465
 1514 0000 00B5     		push	{lr}
 1515              	.LCFI34:
 1516              		.cfi_def_cfa_offset 4
 1517              		.cfi_offset 14, -4
 1518 0002 83B0     		sub	sp, sp, #12
 1519              	.LCFI35:
 1520              		.cfi_def_cfa_offset 16
 844:MyHardWare/eMPL/inv_mpu_dmp_motion_driver.c ****     unsigned char tmp[2];
 1521              		.loc 1 844 5 is_stmt 1 view .LVU466
 845:MyHardWare/eMPL/inv_mpu_dmp_motion_driver.c **** 
 1522              		.loc 1 845 5 view .LVU467
 847:MyHardWare/eMPL/inv_mpu_dmp_motion_driver.c ****     tmp[0] = (unsigned char)(dmp_time >> 8);
 1523              		.loc 1 847 5 view .LVU468
 847:MyHardWare/eMPL/inv_mpu_dmp_motion_driver.c ****     tmp[0] = (unsigned char)(dmp_time >> 8);
 1524              		.loc 1 847 14 is_stmt 0 view .LVU469
 1525 0004 094B     		ldr	r3, .L96
 1526 0006 A3FB0030 		umull	r3, r0, r3, r0
 1527              	.LVL82:
 848:MyHardWare/eMPL/inv_mpu_dmp_motion_driver.c ****     tmp[1] = (unsigned char)(dmp_time & 0xFF);
 1528              		.loc 1 848 5 is_stmt 1 view .LVU470
 848:MyHardWare/eMPL/inv_mpu_dmp_motion_driver.c ****     tmp[1] = (unsigned char)(dmp_time & 0xFF);
 1529              		.loc 1 848 14 is_stmt 0 view .LVU471
 1530 000a 830A     		lsrs	r3, r0, #10
 848:MyHardWare/eMPL/inv_mpu_dmp_motion_driver.c ****     tmp[1] = (unsigned char)(dmp_time & 0xFF);
 1531              		.loc 1 848 12 view .LVU472
 1532 000c 8DF80430 		strb	r3, [sp, #4]
 849:MyHardWare/eMPL/inv_mpu_dmp_motion_driver.c ****     return mpu_write_mem(D_1_218, 2, tmp);
 1533              		.loc 1 849 5 is_stmt 1 view .LVU473
 849:MyHardWare/eMPL/inv_mpu_dmp_motion_driver.c ****     return mpu_write_mem(D_1_218, 2, tmp);
 1534              		.loc 1 849 14 is_stmt 0 view .LVU474
 1535 0010 C0F38700 		ubfx	r0, r0, #2, #8
 1536              	.LVL83:
 849:MyHardWare/eMPL/inv_mpu_dmp_motion_driver.c ****     return mpu_write_mem(D_1_218, 2, tmp);
 1537              		.loc 1 849 12 view .LVU475
 1538 0014 8DF80500 		strb	r0, [sp, #5]
 850:MyHardWare/eMPL/inv_mpu_dmp_motion_driver.c **** }
 1539              		.loc 1 850 5 is_stmt 1 view .LVU476
 850:MyHardWare/eMPL/inv_mpu_dmp_motion_driver.c **** }
 1540              		.loc 1 850 12 is_stmt 0 view .LVU477
 1541 0018 01AA     		add	r2, sp, #4
 1542 001a 0221     		movs	r1, #2
 1543 001c 4FF4ED70 		mov	r0, #474
 1544 0020 FFF7FEFF 		bl	mpu_write_mem
ARM GAS  /tmp/cckrZnTL.s 			page 57


 1545              	.LVL84:
 851:MyHardWare/eMPL/inv_mpu_dmp_motion_driver.c **** 
 1546              		.loc 1 851 1 view .LVU478
 1547 0024 03B0     		add	sp, sp, #12
 1548              	.LCFI36:
 1549              		.cfi_def_cfa_offset 4
 1550              		@ sp needed
 1551 0026 5DF804FB 		ldr	pc, [sp], #4
 1552              	.L97:
 1553 002a 00BF     		.align	2
 1554              	.L96:
 1555 002c CDCCCCCC 		.word	-858993459
 1556              		.cfi_endproc
 1557              	.LFE136:
 1559              		.section	.text.dmp_set_shake_reject_thresh,"ax",%progbits
 1560              		.align	1
 1561              		.global	dmp_set_shake_reject_thresh
 1562              		.syntax unified
 1563              		.thumb
 1564              		.thumb_func
 1566              	dmp_set_shake_reject_thresh:
 1567              	.LVL85:
 1568              	.LFB137:
 861:MyHardWare/eMPL/inv_mpu_dmp_motion_driver.c ****     unsigned char tmp[4];
 1569              		.loc 1 861 1 is_stmt 1 view -0
 1570              		.cfi_startproc
 1571              		@ args = 0, pretend = 0, frame = 8
 1572              		@ frame_needed = 0, uses_anonymous_args = 0
 861:MyHardWare/eMPL/inv_mpu_dmp_motion_driver.c ****     unsigned char tmp[4];
 1573              		.loc 1 861 1 is_stmt 0 view .LVU480
 1574 0000 00B5     		push	{lr}
 1575              	.LCFI37:
 1576              		.cfi_def_cfa_offset 4
 1577              		.cfi_offset 14, -4
 1578 0002 83B0     		sub	sp, sp, #12
 1579              	.LCFI38:
 1580              		.cfi_def_cfa_offset 16
 862:MyHardWare/eMPL/inv_mpu_dmp_motion_driver.c ****     long thresh_scaled = sf / 1000 * thresh;
 1581              		.loc 1 862 5 is_stmt 1 view .LVU481
 863:MyHardWare/eMPL/inv_mpu_dmp_motion_driver.c ****     tmp[0] = (unsigned char)(((long)thresh_scaled >> 24) & 0xFF);
 1582              		.loc 1 863 5 view .LVU482
 863:MyHardWare/eMPL/inv_mpu_dmp_motion_driver.c ****     tmp[0] = (unsigned char)(((long)thresh_scaled >> 24) & 0xFF);
 1583              		.loc 1 863 29 is_stmt 0 view .LVU483
 1584 0004 0E4B     		ldr	r3, .L100
 1585 0006 83FB0023 		smull	r2, r3, r3, r0
 1586 000a C017     		asrs	r0, r0, #31
 1587              	.LVL86:
 863:MyHardWare/eMPL/inv_mpu_dmp_motion_driver.c ****     tmp[0] = (unsigned char)(((long)thresh_scaled >> 24) & 0xFF);
 1588              		.loc 1 863 29 view .LVU484
 1589 000c C0EBA310 		rsb	r0, r0, r3, asr #6
 863:MyHardWare/eMPL/inv_mpu_dmp_motion_driver.c ****     tmp[0] = (unsigned char)(((long)thresh_scaled >> 24) & 0xFF);
 1590              		.loc 1 863 10 view .LVU485
 1591 0010 00FB01F1 		mul	r1, r0, r1
 1592              	.LVL87:
 864:MyHardWare/eMPL/inv_mpu_dmp_motion_driver.c ****     tmp[1] = (unsigned char)(((long)thresh_scaled >> 16) & 0xFF);
 1593              		.loc 1 864 5 is_stmt 1 view .LVU486
 864:MyHardWare/eMPL/inv_mpu_dmp_motion_driver.c ****     tmp[1] = (unsigned char)(((long)thresh_scaled >> 16) & 0xFF);
ARM GAS  /tmp/cckrZnTL.s 			page 58


 1594              		.loc 1 864 14 is_stmt 0 view .LVU487
 1595 0014 0B0E     		lsrs	r3, r1, #24
 864:MyHardWare/eMPL/inv_mpu_dmp_motion_driver.c ****     tmp[1] = (unsigned char)(((long)thresh_scaled >> 16) & 0xFF);
 1596              		.loc 1 864 12 view .LVU488
 1597 0016 8DF80430 		strb	r3, [sp, #4]
 865:MyHardWare/eMPL/inv_mpu_dmp_motion_driver.c ****     tmp[2] = (unsigned char)(((long)thresh_scaled >> 8) & 0xFF);
 1598              		.loc 1 865 5 is_stmt 1 view .LVU489
 865:MyHardWare/eMPL/inv_mpu_dmp_motion_driver.c ****     tmp[2] = (unsigned char)(((long)thresh_scaled >> 8) & 0xFF);
 1599              		.loc 1 865 14 is_stmt 0 view .LVU490
 1600 001a C1F30743 		ubfx	r3, r1, #16, #8
 865:MyHardWare/eMPL/inv_mpu_dmp_motion_driver.c ****     tmp[2] = (unsigned char)(((long)thresh_scaled >> 8) & 0xFF);
 1601              		.loc 1 865 12 view .LVU491
 1602 001e 8DF80530 		strb	r3, [sp, #5]
 866:MyHardWare/eMPL/inv_mpu_dmp_motion_driver.c ****     tmp[3] = (unsigned char)((long)thresh_scaled & 0xFF);
 1603              		.loc 1 866 5 is_stmt 1 view .LVU492
 866:MyHardWare/eMPL/inv_mpu_dmp_motion_driver.c ****     tmp[3] = (unsigned char)((long)thresh_scaled & 0xFF);
 1604              		.loc 1 866 14 is_stmt 0 view .LVU493
 1605 0022 C1F30723 		ubfx	r3, r1, #8, #8
 866:MyHardWare/eMPL/inv_mpu_dmp_motion_driver.c ****     tmp[3] = (unsigned char)((long)thresh_scaled & 0xFF);
 1606              		.loc 1 866 12 view .LVU494
 1607 0026 8DF80630 		strb	r3, [sp, #6]
 867:MyHardWare/eMPL/inv_mpu_dmp_motion_driver.c ****     return mpu_write_mem(D_1_92, 4, tmp);
 1608              		.loc 1 867 5 is_stmt 1 view .LVU495
 867:MyHardWare/eMPL/inv_mpu_dmp_motion_driver.c ****     return mpu_write_mem(D_1_92, 4, tmp);
 1609              		.loc 1 867 12 is_stmt 0 view .LVU496
 1610 002a 8DF80710 		strb	r1, [sp, #7]
 868:MyHardWare/eMPL/inv_mpu_dmp_motion_driver.c **** }
 1611              		.loc 1 868 5 is_stmt 1 view .LVU497
 868:MyHardWare/eMPL/inv_mpu_dmp_motion_driver.c **** }
 1612              		.loc 1 868 12 is_stmt 0 view .LVU498
 1613 002e 01AA     		add	r2, sp, #4
 1614 0030 0421     		movs	r1, #4
 1615              	.LVL88:
 868:MyHardWare/eMPL/inv_mpu_dmp_motion_driver.c **** }
 1616              		.loc 1 868 12 view .LVU499
 1617 0032 4FF4AE70 		mov	r0, #348
 1618              	.LVL89:
 868:MyHardWare/eMPL/inv_mpu_dmp_motion_driver.c **** }
 1619              		.loc 1 868 12 view .LVU500
 1620 0036 FFF7FEFF 		bl	mpu_write_mem
 1621              	.LVL90:
 869:MyHardWare/eMPL/inv_mpu_dmp_motion_driver.c **** 
 1622              		.loc 1 869 1 view .LVU501
 1623 003a 03B0     		add	sp, sp, #12
 1624              	.LCFI39:
 1625              		.cfi_def_cfa_offset 4
 1626              		@ sp needed
 1627 003c 5DF804FB 		ldr	pc, [sp], #4
 1628              	.L101:
 1629              		.align	2
 1630              	.L100:
 1631 0040 D34D6210 		.word	274877907
 1632              		.cfi_endproc
 1633              	.LFE137:
 1635              		.section	.text.dmp_set_shake_reject_time,"ax",%progbits
 1636              		.align	1
 1637              		.global	dmp_set_shake_reject_time
ARM GAS  /tmp/cckrZnTL.s 			page 59


 1638              		.syntax unified
 1639              		.thumb
 1640              		.thumb_func
 1642              	dmp_set_shake_reject_time:
 1643              	.LVL91:
 1644              	.LFB138:
 880:MyHardWare/eMPL/inv_mpu_dmp_motion_driver.c ****     unsigned char tmp[2];
 1645              		.loc 1 880 1 is_stmt 1 view -0
 1646              		.cfi_startproc
 1647              		@ args = 0, pretend = 0, frame = 8
 1648              		@ frame_needed = 0, uses_anonymous_args = 0
 880:MyHardWare/eMPL/inv_mpu_dmp_motion_driver.c ****     unsigned char tmp[2];
 1649              		.loc 1 880 1 is_stmt 0 view .LVU503
 1650 0000 00B5     		push	{lr}
 1651              	.LCFI40:
 1652              		.cfi_def_cfa_offset 4
 1653              		.cfi_offset 14, -4
 1654 0002 83B0     		sub	sp, sp, #12
 1655              	.LCFI41:
 1656              		.cfi_def_cfa_offset 16
 881:MyHardWare/eMPL/inv_mpu_dmp_motion_driver.c **** 
 1657              		.loc 1 881 5 is_stmt 1 view .LVU504
 883:MyHardWare/eMPL/inv_mpu_dmp_motion_driver.c ****     tmp[0] = time >> 8;
 1658              		.loc 1 883 5 view .LVU505
 883:MyHardWare/eMPL/inv_mpu_dmp_motion_driver.c ****     tmp[0] = time >> 8;
 1659              		.loc 1 883 10 is_stmt 0 view .LVU506
 1660 0004 084B     		ldr	r3, .L104
 1661 0006 A3FB0030 		umull	r3, r0, r3, r0
 1662              	.LVL92:
 883:MyHardWare/eMPL/inv_mpu_dmp_motion_driver.c ****     tmp[0] = time >> 8;
 1663              		.loc 1 883 10 view .LVU507
 1664 000a 8308     		lsrs	r3, r0, #2
 1665              	.LVL93:
 884:MyHardWare/eMPL/inv_mpu_dmp_motion_driver.c ****     tmp[1] = time & 0xFF;
 1666              		.loc 1 884 5 is_stmt 1 view .LVU508
 884:MyHardWare/eMPL/inv_mpu_dmp_motion_driver.c ****     tmp[1] = time & 0xFF;
 1667              		.loc 1 884 12 is_stmt 0 view .LVU509
 1668 000c 800A     		lsrs	r0, r0, #10
 1669 000e 8DF80400 		strb	r0, [sp, #4]
 885:MyHardWare/eMPL/inv_mpu_dmp_motion_driver.c ****     return mpu_write_mem(D_1_90,2,tmp);
 1670              		.loc 1 885 5 is_stmt 1 view .LVU510
 885:MyHardWare/eMPL/inv_mpu_dmp_motion_driver.c ****     return mpu_write_mem(D_1_90,2,tmp);
 1671              		.loc 1 885 12 is_stmt 0 view .LVU511
 1672 0012 8DF80530 		strb	r3, [sp, #5]
 886:MyHardWare/eMPL/inv_mpu_dmp_motion_driver.c **** }
 1673              		.loc 1 886 5 is_stmt 1 view .LVU512
 886:MyHardWare/eMPL/inv_mpu_dmp_motion_driver.c **** }
 1674              		.loc 1 886 12 is_stmt 0 view .LVU513
 1675 0016 01AA     		add	r2, sp, #4
 1676 0018 0221     		movs	r1, #2
 1677 001a 4FF4AD70 		mov	r0, #346
 1678 001e FFF7FEFF 		bl	mpu_write_mem
 1679              	.LVL94:
 887:MyHardWare/eMPL/inv_mpu_dmp_motion_driver.c **** 
 1680              		.loc 1 887 1 view .LVU514
 1681 0022 03B0     		add	sp, sp, #12
 1682              	.LCFI42:
ARM GAS  /tmp/cckrZnTL.s 			page 60


 1683              		.cfi_def_cfa_offset 4
 1684              		@ sp needed
 1685 0024 5DF804FB 		ldr	pc, [sp], #4
 1686              	.L105:
 1687              		.align	2
 1688              	.L104:
 1689 0028 CDCCCCCC 		.word	-858993459
 1690              		.cfi_endproc
 1691              	.LFE138:
 1693              		.section	.text.dmp_set_shake_reject_timeout,"ax",%progbits
 1694              		.align	1
 1695              		.global	dmp_set_shake_reject_timeout
 1696              		.syntax unified
 1697              		.thumb
 1698              		.thumb_func
 1700              	dmp_set_shake_reject_timeout:
 1701              	.LVL95:
 1702              	.LFB139:
 898:MyHardWare/eMPL/inv_mpu_dmp_motion_driver.c ****     unsigned char tmp[2];
 1703              		.loc 1 898 1 is_stmt 1 view -0
 1704              		.cfi_startproc
 1705              		@ args = 0, pretend = 0, frame = 8
 1706              		@ frame_needed = 0, uses_anonymous_args = 0
 898:MyHardWare/eMPL/inv_mpu_dmp_motion_driver.c ****     unsigned char tmp[2];
 1707              		.loc 1 898 1 is_stmt 0 view .LVU516
 1708 0000 00B5     		push	{lr}
 1709              	.LCFI43:
 1710              		.cfi_def_cfa_offset 4
 1711              		.cfi_offset 14, -4
 1712 0002 83B0     		sub	sp, sp, #12
 1713              	.LCFI44:
 1714              		.cfi_def_cfa_offset 16
 899:MyHardWare/eMPL/inv_mpu_dmp_motion_driver.c **** 
 1715              		.loc 1 899 5 is_stmt 1 view .LVU517
 901:MyHardWare/eMPL/inv_mpu_dmp_motion_driver.c ****     tmp[0] = time >> 8;
 1716              		.loc 1 901 5 view .LVU518
 901:MyHardWare/eMPL/inv_mpu_dmp_motion_driver.c ****     tmp[0] = time >> 8;
 1717              		.loc 1 901 10 is_stmt 0 view .LVU519
 1718 0004 084B     		ldr	r3, .L108
 1719 0006 A3FB0030 		umull	r3, r0, r3, r0
 1720              	.LVL96:
 901:MyHardWare/eMPL/inv_mpu_dmp_motion_driver.c ****     tmp[0] = time >> 8;
 1721              		.loc 1 901 10 view .LVU520
 1722 000a 8308     		lsrs	r3, r0, #2
 1723              	.LVL97:
 902:MyHardWare/eMPL/inv_mpu_dmp_motion_driver.c ****     tmp[1] = time & 0xFF;
 1724              		.loc 1 902 5 is_stmt 1 view .LVU521
 902:MyHardWare/eMPL/inv_mpu_dmp_motion_driver.c ****     tmp[1] = time & 0xFF;
 1725              		.loc 1 902 12 is_stmt 0 view .LVU522
 1726 000c 800A     		lsrs	r0, r0, #10
 1727 000e 8DF80400 		strb	r0, [sp, #4]
 903:MyHardWare/eMPL/inv_mpu_dmp_motion_driver.c ****     return mpu_write_mem(D_1_88,2,tmp);
 1728              		.loc 1 903 5 is_stmt 1 view .LVU523
 903:MyHardWare/eMPL/inv_mpu_dmp_motion_driver.c ****     return mpu_write_mem(D_1_88,2,tmp);
 1729              		.loc 1 903 12 is_stmt 0 view .LVU524
 1730 0012 8DF80530 		strb	r3, [sp, #5]
 904:MyHardWare/eMPL/inv_mpu_dmp_motion_driver.c **** }
ARM GAS  /tmp/cckrZnTL.s 			page 61


 1731              		.loc 1 904 5 is_stmt 1 view .LVU525
 904:MyHardWare/eMPL/inv_mpu_dmp_motion_driver.c **** }
 1732              		.loc 1 904 12 is_stmt 0 view .LVU526
 1733 0016 01AA     		add	r2, sp, #4
 1734 0018 0221     		movs	r1, #2
 1735 001a 4FF4AC70 		mov	r0, #344
 1736 001e FFF7FEFF 		bl	mpu_write_mem
 1737              	.LVL98:
 905:MyHardWare/eMPL/inv_mpu_dmp_motion_driver.c **** 
 1738              		.loc 1 905 1 view .LVU527
 1739 0022 03B0     		add	sp, sp, #12
 1740              	.LCFI45:
 1741              		.cfi_def_cfa_offset 4
 1742              		@ sp needed
 1743 0024 5DF804FB 		ldr	pc, [sp], #4
 1744              	.L109:
 1745              		.align	2
 1746              	.L108:
 1747 0028 CDCCCCCC 		.word	-858993459
 1748              		.cfi_endproc
 1749              	.LFE139:
 1751              		.section	.text.dmp_get_pedometer_step_count,"ax",%progbits
 1752              		.align	1
 1753              		.global	dmp_get_pedometer_step_count
 1754              		.syntax unified
 1755              		.thumb
 1756              		.thumb_func
 1758              	dmp_get_pedometer_step_count:
 1759              	.LVL99:
 1760              	.LFB140:
 913:MyHardWare/eMPL/inv_mpu_dmp_motion_driver.c ****     unsigned char tmp[4];
 1761              		.loc 1 913 1 is_stmt 1 view -0
 1762              		.cfi_startproc
 1763              		@ args = 0, pretend = 0, frame = 8
 1764              		@ frame_needed = 0, uses_anonymous_args = 0
 914:MyHardWare/eMPL/inv_mpu_dmp_motion_driver.c ****     if (!count)
 1765              		.loc 1 914 5 view .LVU529
 915:MyHardWare/eMPL/inv_mpu_dmp_motion_driver.c ****         return -1;
 1766              		.loc 1 915 5 view .LVU530
 915:MyHardWare/eMPL/inv_mpu_dmp_motion_driver.c ****         return -1;
 1767              		.loc 1 915 8 is_stmt 0 view .LVU531
 1768 0000 D0B1     		cbz	r0, .L112
 913:MyHardWare/eMPL/inv_mpu_dmp_motion_driver.c ****     unsigned char tmp[4];
 1769              		.loc 1 913 1 view .LVU532
 1770 0002 10B5     		push	{r4, lr}
 1771              	.LCFI46:
 1772              		.cfi_def_cfa_offset 8
 1773              		.cfi_offset 4, -8
 1774              		.cfi_offset 14, -4
 1775 0004 82B0     		sub	sp, sp, #8
 1776              	.LCFI47:
 1777              		.cfi_def_cfa_offset 16
 1778 0006 0446     		mov	r4, r0
 918:MyHardWare/eMPL/inv_mpu_dmp_motion_driver.c ****         return -1;
 1779              		.loc 1 918 5 is_stmt 1 view .LVU533
 918:MyHardWare/eMPL/inv_mpu_dmp_motion_driver.c ****         return -1;
 1780              		.loc 1 918 9 is_stmt 0 view .LVU534
ARM GAS  /tmp/cckrZnTL.s 			page 62


 1781 0008 01AA     		add	r2, sp, #4
 1782 000a 0421     		movs	r1, #4
 1783 000c 4FF45870 		mov	r0, #864
 1784              	.LVL100:
 918:MyHardWare/eMPL/inv_mpu_dmp_motion_driver.c ****         return -1;
 1785              		.loc 1 918 9 view .LVU535
 1786 0010 FFF7FEFF 		bl	mpu_read_mem
 1787              	.LVL101:
 918:MyHardWare/eMPL/inv_mpu_dmp_motion_driver.c ****         return -1;
 1788              		.loc 1 918 8 discriminator 1 view .LVU536
 1789 0014 98B9     		cbnz	r0, .L113
 921:MyHardWare/eMPL/inv_mpu_dmp_motion_driver.c ****         ((unsigned long)tmp[2] << 8) | tmp[3];
 1790              		.loc 1 921 5 is_stmt 1 view .LVU537
 921:MyHardWare/eMPL/inv_mpu_dmp_motion_driver.c ****         ((unsigned long)tmp[2] << 8) | tmp[3];
 1791              		.loc 1 921 35 is_stmt 0 view .LVU538
 1792 0016 9DF80420 		ldrb	r2, [sp, #4]	@ zero_extendqisi2
 921:MyHardWare/eMPL/inv_mpu_dmp_motion_driver.c ****         ((unsigned long)tmp[2] << 8) | tmp[3];
 1793              		.loc 1 921 67 view .LVU539
 1794 001a 9DF80530 		ldrb	r3, [sp, #5]	@ zero_extendqisi2
 921:MyHardWare/eMPL/inv_mpu_dmp_motion_driver.c ****         ((unsigned long)tmp[2] << 8) | tmp[3];
 1795              		.loc 1 921 71 view .LVU540
 1796 001e 1B04     		lsls	r3, r3, #16
 921:MyHardWare/eMPL/inv_mpu_dmp_motion_driver.c ****         ((unsigned long)tmp[2] << 8) | tmp[3];
 1797              		.loc 1 921 46 view .LVU541
 1798 0020 43EA0263 		orr	r3, r3, r2, lsl #24
 922:MyHardWare/eMPL/inv_mpu_dmp_motion_driver.c ****     return 0;
 1799              		.loc 1 922 28 view .LVU542
 1800 0024 9DF80620 		ldrb	r2, [sp, #6]	@ zero_extendqisi2
 921:MyHardWare/eMPL/inv_mpu_dmp_motion_driver.c ****         ((unsigned long)tmp[2] << 8) | tmp[3];
 1801              		.loc 1 921 78 view .LVU543
 1802 0028 43EA0223 		orr	r3, r3, r2, lsl #8
 922:MyHardWare/eMPL/inv_mpu_dmp_motion_driver.c ****     return 0;
 1803              		.loc 1 922 43 view .LVU544
 1804 002c 9DF80720 		ldrb	r2, [sp, #7]	@ zero_extendqisi2
 922:MyHardWare/eMPL/inv_mpu_dmp_motion_driver.c ****     return 0;
 1805              		.loc 1 922 38 view .LVU545
 1806 0030 1343     		orrs	r3, r3, r2
 921:MyHardWare/eMPL/inv_mpu_dmp_motion_driver.c ****         ((unsigned long)tmp[2] << 8) | tmp[3];
 1807              		.loc 1 921 14 view .LVU546
 1808 0032 2360     		str	r3, [r4]
 923:MyHardWare/eMPL/inv_mpu_dmp_motion_driver.c **** }
 1809              		.loc 1 923 5 is_stmt 1 view .LVU547
 1810              	.L110:
 924:MyHardWare/eMPL/inv_mpu_dmp_motion_driver.c **** 
 1811              		.loc 1 924 1 is_stmt 0 view .LVU548
 1812 0034 02B0     		add	sp, sp, #8
 1813              	.LCFI48:
 1814              		.cfi_def_cfa_offset 8
 1815              		@ sp needed
 1816 0036 10BD     		pop	{r4, pc}
 1817              	.LVL102:
 1818              	.L112:
 1819              	.LCFI49:
 1820              		.cfi_def_cfa_offset 0
 1821              		.cfi_restore 4
 1822              		.cfi_restore 14
 916:MyHardWare/eMPL/inv_mpu_dmp_motion_driver.c **** 
ARM GAS  /tmp/cckrZnTL.s 			page 63


 1823              		.loc 1 916 16 view .LVU549
 1824 0038 4FF0FF30 		mov	r0, #-1
 1825              	.LVL103:
 924:MyHardWare/eMPL/inv_mpu_dmp_motion_driver.c **** 
 1826              		.loc 1 924 1 view .LVU550
 1827 003c 7047     		bx	lr
 1828              	.LVL104:
 1829              	.L113:
 1830              	.LCFI50:
 1831              		.cfi_def_cfa_offset 16
 1832              		.cfi_offset 4, -8
 1833              		.cfi_offset 14, -4
 919:MyHardWare/eMPL/inv_mpu_dmp_motion_driver.c **** 
 1834              		.loc 1 919 16 view .LVU551
 1835 003e 4FF0FF30 		mov	r0, #-1
 1836 0042 F7E7     		b	.L110
 1837              		.cfi_endproc
 1838              	.LFE140:
 1840              		.section	.text.dmp_set_pedometer_step_count,"ax",%progbits
 1841              		.align	1
 1842              		.global	dmp_set_pedometer_step_count
 1843              		.syntax unified
 1844              		.thumb
 1845              		.thumb_func
 1847              	dmp_set_pedometer_step_count:
 1848              	.LVL105:
 1849              	.LFB141:
 934:MyHardWare/eMPL/inv_mpu_dmp_motion_driver.c ****     unsigned char tmp[4];
 1850              		.loc 1 934 1 is_stmt 1 view -0
 1851              		.cfi_startproc
 1852              		@ args = 0, pretend = 0, frame = 8
 1853              		@ frame_needed = 0, uses_anonymous_args = 0
 934:MyHardWare/eMPL/inv_mpu_dmp_motion_driver.c ****     unsigned char tmp[4];
 1854              		.loc 1 934 1 is_stmt 0 view .LVU553
 1855 0000 00B5     		push	{lr}
 1856              	.LCFI51:
 1857              		.cfi_def_cfa_offset 4
 1858              		.cfi_offset 14, -4
 1859 0002 83B0     		sub	sp, sp, #12
 1860              	.LCFI52:
 1861              		.cfi_def_cfa_offset 16
 935:MyHardWare/eMPL/inv_mpu_dmp_motion_driver.c **** 
 1862              		.loc 1 935 5 is_stmt 1 view .LVU554
 937:MyHardWare/eMPL/inv_mpu_dmp_motion_driver.c ****     tmp[1] = (unsigned char)((count >> 16) & 0xFF);
 1863              		.loc 1 937 5 view .LVU555
 937:MyHardWare/eMPL/inv_mpu_dmp_motion_driver.c ****     tmp[1] = (unsigned char)((count >> 16) & 0xFF);
 1864              		.loc 1 937 14 is_stmt 0 view .LVU556
 1865 0004 030E     		lsrs	r3, r0, #24
 937:MyHardWare/eMPL/inv_mpu_dmp_motion_driver.c ****     tmp[1] = (unsigned char)((count >> 16) & 0xFF);
 1866              		.loc 1 937 12 view .LVU557
 1867 0006 8DF80430 		strb	r3, [sp, #4]
 938:MyHardWare/eMPL/inv_mpu_dmp_motion_driver.c ****     tmp[2] = (unsigned char)((count >> 8) & 0xFF);
 1868              		.loc 1 938 5 is_stmt 1 view .LVU558
 938:MyHardWare/eMPL/inv_mpu_dmp_motion_driver.c ****     tmp[2] = (unsigned char)((count >> 8) & 0xFF);
 1869              		.loc 1 938 14 is_stmt 0 view .LVU559
 1870 000a C0F30743 		ubfx	r3, r0, #16, #8
 938:MyHardWare/eMPL/inv_mpu_dmp_motion_driver.c ****     tmp[2] = (unsigned char)((count >> 8) & 0xFF);
ARM GAS  /tmp/cckrZnTL.s 			page 64


 1871              		.loc 1 938 12 view .LVU560
 1872 000e 8DF80530 		strb	r3, [sp, #5]
 939:MyHardWare/eMPL/inv_mpu_dmp_motion_driver.c ****     tmp[3] = (unsigned char)(count & 0xFF);
 1873              		.loc 1 939 5 is_stmt 1 view .LVU561
 939:MyHardWare/eMPL/inv_mpu_dmp_motion_driver.c ****     tmp[3] = (unsigned char)(count & 0xFF);
 1874              		.loc 1 939 14 is_stmt 0 view .LVU562
 1875 0012 C0F30723 		ubfx	r3, r0, #8, #8
 939:MyHardWare/eMPL/inv_mpu_dmp_motion_driver.c ****     tmp[3] = (unsigned char)(count & 0xFF);
 1876              		.loc 1 939 12 view .LVU563
 1877 0016 8DF80630 		strb	r3, [sp, #6]
 940:MyHardWare/eMPL/inv_mpu_dmp_motion_driver.c ****     return mpu_write_mem(D_PEDSTD_STEPCTR, 4, tmp);
 1878              		.loc 1 940 5 is_stmt 1 view .LVU564
 940:MyHardWare/eMPL/inv_mpu_dmp_motion_driver.c ****     return mpu_write_mem(D_PEDSTD_STEPCTR, 4, tmp);
 1879              		.loc 1 940 12 is_stmt 0 view .LVU565
 1880 001a 8DF80700 		strb	r0, [sp, #7]
 941:MyHardWare/eMPL/inv_mpu_dmp_motion_driver.c **** }
 1881              		.loc 1 941 5 is_stmt 1 view .LVU566
 941:MyHardWare/eMPL/inv_mpu_dmp_motion_driver.c **** }
 1882              		.loc 1 941 12 is_stmt 0 view .LVU567
 1883 001e 01AA     		add	r2, sp, #4
 1884 0020 0421     		movs	r1, #4
 1885 0022 4FF45870 		mov	r0, #864
 1886              	.LVL106:
 941:MyHardWare/eMPL/inv_mpu_dmp_motion_driver.c **** }
 1887              		.loc 1 941 12 view .LVU568
 1888 0026 FFF7FEFF 		bl	mpu_write_mem
 1889              	.LVL107:
 942:MyHardWare/eMPL/inv_mpu_dmp_motion_driver.c **** 
 1890              		.loc 1 942 1 view .LVU569
 1891 002a 03B0     		add	sp, sp, #12
 1892              	.LCFI53:
 1893              		.cfi_def_cfa_offset 4
 1894              		@ sp needed
 1895 002c 5DF804FB 		ldr	pc, [sp], #4
 1896              		.cfi_endproc
 1897              	.LFE141:
 1899              		.section	.text.dmp_get_pedometer_walk_time,"ax",%progbits
 1900              		.align	1
 1901              		.global	dmp_get_pedometer_walk_time
 1902              		.syntax unified
 1903              		.thumb
 1904              		.thumb_func
 1906              	dmp_get_pedometer_walk_time:
 1907              	.LVL108:
 1908              	.LFB142:
 950:MyHardWare/eMPL/inv_mpu_dmp_motion_driver.c ****     unsigned char tmp[4];
 1909              		.loc 1 950 1 is_stmt 1 view -0
 1910              		.cfi_startproc
 1911              		@ args = 0, pretend = 0, frame = 8
 1912              		@ frame_needed = 0, uses_anonymous_args = 0
 951:MyHardWare/eMPL/inv_mpu_dmp_motion_driver.c ****     if (!time)
 1913              		.loc 1 951 5 view .LVU571
 952:MyHardWare/eMPL/inv_mpu_dmp_motion_driver.c ****         return -1;
 1914              		.loc 1 952 5 view .LVU572
 952:MyHardWare/eMPL/inv_mpu_dmp_motion_driver.c ****         return -1;
 1915              		.loc 1 952 8 is_stmt 0 view .LVU573
 1916 0000 E8B1     		cbz	r0, .L122
ARM GAS  /tmp/cckrZnTL.s 			page 65


 950:MyHardWare/eMPL/inv_mpu_dmp_motion_driver.c ****     unsigned char tmp[4];
 1917              		.loc 1 950 1 view .LVU574
 1918 0002 10B5     		push	{r4, lr}
 1919              	.LCFI54:
 1920              		.cfi_def_cfa_offset 8
 1921              		.cfi_offset 4, -8
 1922              		.cfi_offset 14, -4
 1923 0004 82B0     		sub	sp, sp, #8
 1924              	.LCFI55:
 1925              		.cfi_def_cfa_offset 16
 1926 0006 0446     		mov	r4, r0
 955:MyHardWare/eMPL/inv_mpu_dmp_motion_driver.c ****         return -1;
 1927              		.loc 1 955 5 is_stmt 1 view .LVU575
 955:MyHardWare/eMPL/inv_mpu_dmp_motion_driver.c ****         return -1;
 1928              		.loc 1 955 9 is_stmt 0 view .LVU576
 1929 0008 01AA     		add	r2, sp, #4
 1930 000a 0421     		movs	r1, #4
 1931 000c 4FF47170 		mov	r0, #964
 1932              	.LVL109:
 955:MyHardWare/eMPL/inv_mpu_dmp_motion_driver.c ****         return -1;
 1933              		.loc 1 955 9 view .LVU577
 1934 0010 FFF7FEFF 		bl	mpu_read_mem
 1935              	.LVL110:
 955:MyHardWare/eMPL/inv_mpu_dmp_motion_driver.c ****         return -1;
 1936              		.loc 1 955 8 discriminator 1 view .LVU578
 1937 0014 B0B9     		cbnz	r0, .L123
 958:MyHardWare/eMPL/inv_mpu_dmp_motion_driver.c ****         ((unsigned long)tmp[2] << 8) | tmp[3]) * 20;
 1938              		.loc 1 958 5 is_stmt 1 view .LVU579
 958:MyHardWare/eMPL/inv_mpu_dmp_motion_driver.c ****         ((unsigned long)tmp[2] << 8) | tmp[3]) * 20;
 1939              		.loc 1 958 35 is_stmt 0 view .LVU580
 1940 0016 9DF80420 		ldrb	r2, [sp, #4]	@ zero_extendqisi2
 958:MyHardWare/eMPL/inv_mpu_dmp_motion_driver.c ****         ((unsigned long)tmp[2] << 8) | tmp[3]) * 20;
 1941              		.loc 1 958 67 view .LVU581
 1942 001a 9DF80530 		ldrb	r3, [sp, #5]	@ zero_extendqisi2
 958:MyHardWare/eMPL/inv_mpu_dmp_motion_driver.c ****         ((unsigned long)tmp[2] << 8) | tmp[3]) * 20;
 1943              		.loc 1 958 71 view .LVU582
 1944 001e 1B04     		lsls	r3, r3, #16
 958:MyHardWare/eMPL/inv_mpu_dmp_motion_driver.c ****         ((unsigned long)tmp[2] << 8) | tmp[3]) * 20;
 1945              		.loc 1 958 46 view .LVU583
 1946 0020 43EA0263 		orr	r3, r3, r2, lsl #24
 959:MyHardWare/eMPL/inv_mpu_dmp_motion_driver.c ****     return 0;
 1947              		.loc 1 959 28 view .LVU584
 1948 0024 9DF80620 		ldrb	r2, [sp, #6]	@ zero_extendqisi2
 958:MyHardWare/eMPL/inv_mpu_dmp_motion_driver.c ****         ((unsigned long)tmp[2] << 8) | tmp[3]) * 20;
 1949              		.loc 1 958 78 view .LVU585
 1950 0028 43EA0223 		orr	r3, r3, r2, lsl #8
 959:MyHardWare/eMPL/inv_mpu_dmp_motion_driver.c ****     return 0;
 1951              		.loc 1 959 43 view .LVU586
 1952 002c 9DF80720 		ldrb	r2, [sp, #7]	@ zero_extendqisi2
 959:MyHardWare/eMPL/inv_mpu_dmp_motion_driver.c ****     return 0;
 1953              		.loc 1 959 38 view .LVU587
 1954 0030 1343     		orrs	r3, r3, r2
 959:MyHardWare/eMPL/inv_mpu_dmp_motion_driver.c ****     return 0;
 1955              		.loc 1 959 48 view .LVU588
 1956 0032 03EB8303 		add	r3, r3, r3, lsl #2
 1957 0036 9B00     		lsls	r3, r3, #2
 958:MyHardWare/eMPL/inv_mpu_dmp_motion_driver.c ****         ((unsigned long)tmp[2] << 8) | tmp[3]) * 20;
ARM GAS  /tmp/cckrZnTL.s 			page 66


 1958              		.loc 1 958 13 view .LVU589
 1959 0038 2360     		str	r3, [r4]
 960:MyHardWare/eMPL/inv_mpu_dmp_motion_driver.c **** }
 1960              		.loc 1 960 5 is_stmt 1 view .LVU590
 1961              	.L120:
 961:MyHardWare/eMPL/inv_mpu_dmp_motion_driver.c **** 
 1962              		.loc 1 961 1 is_stmt 0 view .LVU591
 1963 003a 02B0     		add	sp, sp, #8
 1964              	.LCFI56:
 1965              		.cfi_def_cfa_offset 8
 1966              		@ sp needed
 1967 003c 10BD     		pop	{r4, pc}
 1968              	.LVL111:
 1969              	.L122:
 1970              	.LCFI57:
 1971              		.cfi_def_cfa_offset 0
 1972              		.cfi_restore 4
 1973              		.cfi_restore 14
 953:MyHardWare/eMPL/inv_mpu_dmp_motion_driver.c **** 
 1974              		.loc 1 953 16 view .LVU592
 1975 003e 4FF0FF30 		mov	r0, #-1
 1976              	.LVL112:
 961:MyHardWare/eMPL/inv_mpu_dmp_motion_driver.c **** 
 1977              		.loc 1 961 1 view .LVU593
 1978 0042 7047     		bx	lr
 1979              	.LVL113:
 1980              	.L123:
 1981              	.LCFI58:
 1982              		.cfi_def_cfa_offset 16
 1983              		.cfi_offset 4, -8
 1984              		.cfi_offset 14, -4
 956:MyHardWare/eMPL/inv_mpu_dmp_motion_driver.c **** 
 1985              		.loc 1 956 16 view .LVU594
 1986 0044 4FF0FF30 		mov	r0, #-1
 1987 0048 F7E7     		b	.L120
 1988              		.cfi_endproc
 1989              	.LFE142:
 1991              		.section	.text.dmp_set_pedometer_walk_time,"ax",%progbits
 1992              		.align	1
 1993              		.global	dmp_set_pedometer_walk_time
 1994              		.syntax unified
 1995              		.thumb
 1996              		.thumb_func
 1998              	dmp_set_pedometer_walk_time:
 1999              	.LVL114:
 2000              	.LFB143:
 970:MyHardWare/eMPL/inv_mpu_dmp_motion_driver.c ****     unsigned char tmp[4];
 2001              		.loc 1 970 1 is_stmt 1 view -0
 2002              		.cfi_startproc
 2003              		@ args = 0, pretend = 0, frame = 8
 2004              		@ frame_needed = 0, uses_anonymous_args = 0
 970:MyHardWare/eMPL/inv_mpu_dmp_motion_driver.c ****     unsigned char tmp[4];
 2005              		.loc 1 970 1 is_stmt 0 view .LVU596
 2006 0000 00B5     		push	{lr}
 2007              	.LCFI59:
 2008              		.cfi_def_cfa_offset 4
 2009              		.cfi_offset 14, -4
ARM GAS  /tmp/cckrZnTL.s 			page 67


 2010 0002 83B0     		sub	sp, sp, #12
 2011              	.LCFI60:
 2012              		.cfi_def_cfa_offset 16
 971:MyHardWare/eMPL/inv_mpu_dmp_motion_driver.c **** 
 2013              		.loc 1 971 5 is_stmt 1 view .LVU597
 973:MyHardWare/eMPL/inv_mpu_dmp_motion_driver.c **** 
 2014              		.loc 1 973 5 view .LVU598
 973:MyHardWare/eMPL/inv_mpu_dmp_motion_driver.c **** 
 2015              		.loc 1 973 10 is_stmt 0 view .LVU599
 2016 0004 0D4B     		ldr	r3, .L130
 2017 0006 A3FB0030 		umull	r3, r0, r3, r0
 2018              	.LVL115:
 975:MyHardWare/eMPL/inv_mpu_dmp_motion_driver.c ****     tmp[1] = (unsigned char)((time >> 16) & 0xFF);
 2019              		.loc 1 975 5 is_stmt 1 view .LVU600
 975:MyHardWare/eMPL/inv_mpu_dmp_motion_driver.c ****     tmp[1] = (unsigned char)((time >> 16) & 0xFF);
 2020              		.loc 1 975 14 is_stmt 0 view .LVU601
 2021 000a 030F     		lsrs	r3, r0, #28
 975:MyHardWare/eMPL/inv_mpu_dmp_motion_driver.c ****     tmp[1] = (unsigned char)((time >> 16) & 0xFF);
 2022              		.loc 1 975 12 view .LVU602
 2023 000c 8DF80430 		strb	r3, [sp, #4]
 976:MyHardWare/eMPL/inv_mpu_dmp_motion_driver.c ****     tmp[2] = (unsigned char)((time >> 8) & 0xFF);
 2024              		.loc 1 976 5 is_stmt 1 view .LVU603
 976:MyHardWare/eMPL/inv_mpu_dmp_motion_driver.c ****     tmp[2] = (unsigned char)((time >> 8) & 0xFF);
 2025              		.loc 1 976 14 is_stmt 0 view .LVU604
 2026 0010 C0F30753 		ubfx	r3, r0, #20, #8
 976:MyHardWare/eMPL/inv_mpu_dmp_motion_driver.c ****     tmp[2] = (unsigned char)((time >> 8) & 0xFF);
 2027              		.loc 1 976 12 view .LVU605
 2028 0014 8DF80530 		strb	r3, [sp, #5]
 977:MyHardWare/eMPL/inv_mpu_dmp_motion_driver.c ****     tmp[3] = (unsigned char)(time & 0xFF);
 2029              		.loc 1 977 5 is_stmt 1 view .LVU606
 977:MyHardWare/eMPL/inv_mpu_dmp_motion_driver.c ****     tmp[3] = (unsigned char)(time & 0xFF);
 2030              		.loc 1 977 14 is_stmt 0 view .LVU607
 2031 0018 C0F30733 		ubfx	r3, r0, #12, #8
 977:MyHardWare/eMPL/inv_mpu_dmp_motion_driver.c ****     tmp[3] = (unsigned char)(time & 0xFF);
 2032              		.loc 1 977 12 view .LVU608
 2033 001c 8DF80630 		strb	r3, [sp, #6]
 978:MyHardWare/eMPL/inv_mpu_dmp_motion_driver.c ****     return mpu_write_mem(D_PEDSTD_TIMECTR, 4, tmp);
 2034              		.loc 1 978 5 is_stmt 1 view .LVU609
 978:MyHardWare/eMPL/inv_mpu_dmp_motion_driver.c ****     return mpu_write_mem(D_PEDSTD_TIMECTR, 4, tmp);
 2035              		.loc 1 978 14 is_stmt 0 view .LVU610
 2036 0020 C0F30710 		ubfx	r0, r0, #4, #8
 2037              	.LVL116:
 978:MyHardWare/eMPL/inv_mpu_dmp_motion_driver.c ****     return mpu_write_mem(D_PEDSTD_TIMECTR, 4, tmp);
 2038              		.loc 1 978 12 view .LVU611
 2039 0024 8DF80700 		strb	r0, [sp, #7]
 979:MyHardWare/eMPL/inv_mpu_dmp_motion_driver.c **** }
 2040              		.loc 1 979 5 is_stmt 1 view .LVU612
 979:MyHardWare/eMPL/inv_mpu_dmp_motion_driver.c **** }
 2041              		.loc 1 979 12 is_stmt 0 view .LVU613
 2042 0028 01AA     		add	r2, sp, #4
 2043 002a 0421     		movs	r1, #4
 2044 002c 4FF47170 		mov	r0, #964
 2045 0030 FFF7FEFF 		bl	mpu_write_mem
 2046              	.LVL117:
 980:MyHardWare/eMPL/inv_mpu_dmp_motion_driver.c **** 
 2047              		.loc 1 980 1 view .LVU614
 2048 0034 03B0     		add	sp, sp, #12
ARM GAS  /tmp/cckrZnTL.s 			page 68


 2049              	.LCFI61:
 2050              		.cfi_def_cfa_offset 4
 2051              		@ sp needed
 2052 0036 5DF804FB 		ldr	pc, [sp], #4
 2053              	.L131:
 2054 003a 00BF     		.align	2
 2055              	.L130:
 2056 003c CDCCCCCC 		.word	-858993459
 2057              		.cfi_endproc
 2058              	.LFE143:
 2060              		.section	.text.dmp_get_enabled_features,"ax",%progbits
 2061              		.align	1
 2062              		.global	dmp_get_enabled_features
 2063              		.syntax unified
 2064              		.thumb
 2065              		.thumb_func
 2067              	dmp_get_enabled_features:
 2068              	.LVL118:
 2069              	.LFB145:
1122:MyHardWare/eMPL/inv_mpu_dmp_motion_driver.c ****     mask[0] = dmp.feature_mask;
 2070              		.loc 1 1122 1 is_stmt 1 view -0
 2071              		.cfi_startproc
 2072              		@ args = 0, pretend = 0, frame = 0
 2073              		@ frame_needed = 0, uses_anonymous_args = 0
 2074              		@ link register save eliminated.
1123:MyHardWare/eMPL/inv_mpu_dmp_motion_driver.c ****     return 0;
 2075              		.loc 1 1123 5 view .LVU616
1123:MyHardWare/eMPL/inv_mpu_dmp_motion_driver.c ****     return 0;
 2076              		.loc 1 1123 18 is_stmt 0 view .LVU617
 2077 0000 024B     		ldr	r3, .L133
 2078 0002 5B89     		ldrh	r3, [r3, #10]
1123:MyHardWare/eMPL/inv_mpu_dmp_motion_driver.c ****     return 0;
 2079              		.loc 1 1123 13 view .LVU618
 2080 0004 0380     		strh	r3, [r0]	@ movhi
1124:MyHardWare/eMPL/inv_mpu_dmp_motion_driver.c **** }
 2081              		.loc 1 1124 5 is_stmt 1 view .LVU619
1125:MyHardWare/eMPL/inv_mpu_dmp_motion_driver.c **** 
 2082              		.loc 1 1125 1 is_stmt 0 view .LVU620
 2083 0006 0020     		movs	r0, #0
 2084              	.LVL119:
1125:MyHardWare/eMPL/inv_mpu_dmp_motion_driver.c **** 
 2085              		.loc 1 1125 1 view .LVU621
 2086 0008 7047     		bx	lr
 2087              	.L134:
 2088 000a 00BF     		.align	2
 2089              	.L133:
 2090 000c 00000000 		.word	dmp
 2091              		.cfi_endproc
 2092              	.LFE145:
 2094              		.section	.rodata.dmp_enable_gyro_cal.str1.4,"aMS",%progbits,1
 2095              		.align	2
 2096              	.LC5:
 2097 0000 B8AAB38D 		.ascii	"\270\252\263\215\264\230\0155]\000"
 2097      B4980D35 
 2097      5D00
 2098 000a 0000     		.align	2
 2099              	.LC6:
ARM GAS  /tmp/cckrZnTL.s 			page 69


 2100 000c B8AAAAAA 		.ascii	"\270\252\252\252\260\210\303\305\307\000"
 2100      B088C3C5 
 2100      C700
 2101              		.section	.text.dmp_enable_gyro_cal,"ax",%progbits
 2102              		.align	1
 2103              		.global	dmp_enable_gyro_cal
 2104              		.syntax unified
 2105              		.thumb
 2106              		.thumb_func
 2108              	dmp_enable_gyro_cal:
 2109              	.LVL120:
 2110              	.LFB146:
1137:MyHardWare/eMPL/inv_mpu_dmp_motion_driver.c ****     if (enable) {
 2111              		.loc 1 1137 1 is_stmt 1 view -0
 2112              		.cfi_startproc
 2113              		@ args = 0, pretend = 0, frame = 16
 2114              		@ frame_needed = 0, uses_anonymous_args = 0
1137:MyHardWare/eMPL/inv_mpu_dmp_motion_driver.c ****     if (enable) {
 2115              		.loc 1 1137 1 is_stmt 0 view .LVU623
 2116 0000 00B5     		push	{lr}
 2117              	.LCFI62:
 2118              		.cfi_def_cfa_offset 4
 2119              		.cfi_offset 14, -4
 2120 0002 85B0     		sub	sp, sp, #20
 2121              	.LCFI63:
 2122              		.cfi_def_cfa_offset 24
1138:MyHardWare/eMPL/inv_mpu_dmp_motion_driver.c ****         unsigned char regs[9] = {0xb8, 0xaa, 0xb3, 0x8d, 0xb4, 0x98, 0x0d, 0x35, 0x5d};
 2123              		.loc 1 1138 5 is_stmt 1 view .LVU624
1138:MyHardWare/eMPL/inv_mpu_dmp_motion_driver.c ****         unsigned char regs[9] = {0xb8, 0xaa, 0xb3, 0x8d, 0xb4, 0x98, 0x0d, 0x35, 0x5d};
 2124              		.loc 1 1138 8 is_stmt 0 view .LVU625
 2125 0004 68B1     		cbz	r0, .L136
 2126              	.LBB3:
1139:MyHardWare/eMPL/inv_mpu_dmp_motion_driver.c ****         return mpu_write_mem(CFG_MOTION_BIAS, 9, regs);
 2127              		.loc 1 1139 9 is_stmt 1 view .LVU626
1139:MyHardWare/eMPL/inv_mpu_dmp_motion_driver.c ****         return mpu_write_mem(CFG_MOTION_BIAS, 9, regs);
 2128              		.loc 1 1139 23 is_stmt 0 view .LVU627
 2129 0006 0D4A     		ldr	r2, .L139
 2130 0008 01AB     		add	r3, sp, #4
 2131 000a 07CA     		ldm	r2, {r0, r1, r2}
 2132              	.LVL121:
1139:MyHardWare/eMPL/inv_mpu_dmp_motion_driver.c ****         return mpu_write_mem(CFG_MOTION_BIAS, 9, regs);
 2133              		.loc 1 1139 23 view .LVU628
 2134 000c 03C3     		stmia	r3!, {r0, r1}
 2135 000e 1A70     		strb	r2, [r3]
1140:MyHardWare/eMPL/inv_mpu_dmp_motion_driver.c ****     } else {
 2136              		.loc 1 1140 9 is_stmt 1 view .LVU629
1140:MyHardWare/eMPL/inv_mpu_dmp_motion_driver.c ****     } else {
 2137              		.loc 1 1140 16 is_stmt 0 view .LVU630
 2138 0010 01AA     		add	r2, sp, #4
 2139 0012 0921     		movs	r1, #9
 2140 0014 4FF49760 		mov	r0, #1208
 2141 0018 FFF7FEFF 		bl	mpu_write_mem
 2142              	.LVL122:
 2143              	.L135:
 2144              	.LBE3:
1145:MyHardWare/eMPL/inv_mpu_dmp_motion_driver.c **** 
 2145              		.loc 1 1145 1 view .LVU631
ARM GAS  /tmp/cckrZnTL.s 			page 70


 2146 001c 05B0     		add	sp, sp, #20
 2147              	.LCFI64:
 2148              		.cfi_remember_state
 2149              		.cfi_def_cfa_offset 4
 2150              		@ sp needed
 2151 001e 5DF804FB 		ldr	pc, [sp], #4
 2152              	.LVL123:
 2153              	.L136:
 2154              	.LCFI65:
 2155              		.cfi_restore_state
 2156              	.LBB4:
1142:MyHardWare/eMPL/inv_mpu_dmp_motion_driver.c ****         return mpu_write_mem(CFG_MOTION_BIAS, 9, regs);
 2157              		.loc 1 1142 9 is_stmt 1 view .LVU632
1142:MyHardWare/eMPL/inv_mpu_dmp_motion_driver.c ****         return mpu_write_mem(CFG_MOTION_BIAS, 9, regs);
 2158              		.loc 1 1142 23 is_stmt 0 view .LVU633
 2159 0022 074A     		ldr	r2, .L139+4
 2160 0024 01AB     		add	r3, sp, #4
 2161 0026 07CA     		ldm	r2, {r0, r1, r2}
 2162              	.LVL124:
1142:MyHardWare/eMPL/inv_mpu_dmp_motion_driver.c ****         return mpu_write_mem(CFG_MOTION_BIAS, 9, regs);
 2163              		.loc 1 1142 23 view .LVU634
 2164 0028 03C3     		stmia	r3!, {r0, r1}
 2165 002a 1A70     		strb	r2, [r3]
1143:MyHardWare/eMPL/inv_mpu_dmp_motion_driver.c ****     }
 2166              		.loc 1 1143 9 is_stmt 1 view .LVU635
1143:MyHardWare/eMPL/inv_mpu_dmp_motion_driver.c ****     }
 2167              		.loc 1 1143 16 is_stmt 0 view .LVU636
 2168 002c 01AA     		add	r2, sp, #4
 2169 002e 0921     		movs	r1, #9
 2170 0030 4FF49760 		mov	r0, #1208
 2171 0034 FFF7FEFF 		bl	mpu_write_mem
 2172              	.LVL125:
 2173 0038 F0E7     		b	.L135
 2174              	.L140:
 2175 003a 00BF     		.align	2
 2176              	.L139:
 2177 003c 00000000 		.word	.LC5
 2178 0040 0C000000 		.word	.LC6
 2179              	.LBE4:
 2180              		.cfi_endproc
 2181              	.LFE146:
 2183              		.section	.text.dmp_enable_lp_quat,"ax",%progbits
 2184              		.align	1
 2185              		.global	dmp_enable_lp_quat
 2186              		.syntax unified
 2187              		.thumb
 2188              		.thumb_func
 2190              	dmp_enable_lp_quat:
 2191              	.LVL126:
 2192              	.LFB147:
1155:MyHardWare/eMPL/inv_mpu_dmp_motion_driver.c ****     unsigned char regs[4];
 2193              		.loc 1 1155 1 is_stmt 1 view -0
 2194              		.cfi_startproc
 2195              		@ args = 0, pretend = 0, frame = 8
 2196              		@ frame_needed = 0, uses_anonymous_args = 0
1155:MyHardWare/eMPL/inv_mpu_dmp_motion_driver.c ****     unsigned char regs[4];
 2197              		.loc 1 1155 1 is_stmt 0 view .LVU638
ARM GAS  /tmp/cckrZnTL.s 			page 71


 2198 0000 00B5     		push	{lr}
 2199              	.LCFI66:
 2200              		.cfi_def_cfa_offset 4
 2201              		.cfi_offset 14, -4
 2202 0002 83B0     		sub	sp, sp, #12
 2203              	.LCFI67:
 2204              		.cfi_def_cfa_offset 16
1156:MyHardWare/eMPL/inv_mpu_dmp_motion_driver.c ****     if (enable) {
 2205              		.loc 1 1156 5 is_stmt 1 view .LVU639
1157:MyHardWare/eMPL/inv_mpu_dmp_motion_driver.c ****         regs[0] = DINBC0;
 2206              		.loc 1 1157 5 view .LVU640
1157:MyHardWare/eMPL/inv_mpu_dmp_motion_driver.c ****         regs[0] = DINBC0;
 2207              		.loc 1 1157 8 is_stmt 0 view .LVU641
 2208 0004 B0B1     		cbz	r0, .L142
1158:MyHardWare/eMPL/inv_mpu_dmp_motion_driver.c ****         regs[1] = DINBC2;
 2209              		.loc 1 1158 9 is_stmt 1 view .LVU642
1158:MyHardWare/eMPL/inv_mpu_dmp_motion_driver.c ****         regs[1] = DINBC2;
 2210              		.loc 1 1158 17 is_stmt 0 view .LVU643
 2211 0006 C023     		movs	r3, #192
 2212 0008 8DF80430 		strb	r3, [sp, #4]
1159:MyHardWare/eMPL/inv_mpu_dmp_motion_driver.c ****         regs[2] = DINBC4;
 2213              		.loc 1 1159 9 is_stmt 1 view .LVU644
1159:MyHardWare/eMPL/inv_mpu_dmp_motion_driver.c ****         regs[2] = DINBC4;
 2214              		.loc 1 1159 17 is_stmt 0 view .LVU645
 2215 000c C223     		movs	r3, #194
 2216 000e 8DF80530 		strb	r3, [sp, #5]
1160:MyHardWare/eMPL/inv_mpu_dmp_motion_driver.c ****         regs[3] = DINBC6;
 2217              		.loc 1 1160 9 is_stmt 1 view .LVU646
1160:MyHardWare/eMPL/inv_mpu_dmp_motion_driver.c ****         regs[3] = DINBC6;
 2218              		.loc 1 1160 17 is_stmt 0 view .LVU647
 2219 0012 C423     		movs	r3, #196
 2220 0014 8DF80630 		strb	r3, [sp, #6]
1161:MyHardWare/eMPL/inv_mpu_dmp_motion_driver.c ****     }
 2221              		.loc 1 1161 9 is_stmt 1 view .LVU648
1161:MyHardWare/eMPL/inv_mpu_dmp_motion_driver.c ****     }
 2222              		.loc 1 1161 17 is_stmt 0 view .LVU649
 2223 0018 C623     		movs	r3, #198
 2224 001a 8DF80730 		strb	r3, [sp, #7]
 2225              	.L143:
1166:MyHardWare/eMPL/inv_mpu_dmp_motion_driver.c **** 
 2226              		.loc 1 1166 5 is_stmt 1 view .LVU650
 2227 001e 01AA     		add	r2, sp, #4
 2228 0020 0421     		movs	r1, #4
 2229 0022 40F69820 		movw	r0, #2712
 2230              	.LVL127:
1166:MyHardWare/eMPL/inv_mpu_dmp_motion_driver.c **** 
 2231              		.loc 1 1166 5 is_stmt 0 view .LVU651
 2232 0026 FFF7FEFF 		bl	mpu_write_mem
 2233              	.LVL128:
1168:MyHardWare/eMPL/inv_mpu_dmp_motion_driver.c **** }
 2234              		.loc 1 1168 5 is_stmt 1 view .LVU652
1168:MyHardWare/eMPL/inv_mpu_dmp_motion_driver.c **** }
 2235              		.loc 1 1168 12 is_stmt 0 view .LVU653
 2236 002a FFF7FEFF 		bl	mpu_reset_fifo
 2237              	.LVL129:
1169:MyHardWare/eMPL/inv_mpu_dmp_motion_driver.c **** 
 2238              		.loc 1 1169 1 view .LVU654
ARM GAS  /tmp/cckrZnTL.s 			page 72


 2239 002e 03B0     		add	sp, sp, #12
 2240              	.LCFI68:
 2241              		.cfi_remember_state
 2242              		.cfi_def_cfa_offset 4
 2243              		@ sp needed
 2244 0030 5DF804FB 		ldr	pc, [sp], #4
 2245              	.LVL130:
 2246              	.L142:
 2247              	.LCFI69:
 2248              		.cfi_restore_state
1164:MyHardWare/eMPL/inv_mpu_dmp_motion_driver.c **** 
 2249              		.loc 1 1164 9 is_stmt 1 view .LVU655
 2250 0034 4FF08B33 		mov	r3, #-1953789045
 2251 0038 0193     		str	r3, [sp, #4]
 2252 003a F0E7     		b	.L143
 2253              		.cfi_endproc
 2254              	.LFE147:
 2256              		.section	.text.dmp_enable_6x_lp_quat,"ax",%progbits
 2257              		.align	1
 2258              		.global	dmp_enable_6x_lp_quat
 2259              		.syntax unified
 2260              		.thumb
 2261              		.thumb_func
 2263              	dmp_enable_6x_lp_quat:
 2264              	.LVL131:
 2265              	.LFB148:
1179:MyHardWare/eMPL/inv_mpu_dmp_motion_driver.c ****     unsigned char regs[4];
 2266              		.loc 1 1179 1 view -0
 2267              		.cfi_startproc
 2268              		@ args = 0, pretend = 0, frame = 8
 2269              		@ frame_needed = 0, uses_anonymous_args = 0
1179:MyHardWare/eMPL/inv_mpu_dmp_motion_driver.c ****     unsigned char regs[4];
 2270              		.loc 1 1179 1 is_stmt 0 view .LVU657
 2271 0000 00B5     		push	{lr}
 2272              	.LCFI70:
 2273              		.cfi_def_cfa_offset 4
 2274              		.cfi_offset 14, -4
 2275 0002 83B0     		sub	sp, sp, #12
 2276              	.LCFI71:
 2277              		.cfi_def_cfa_offset 16
1180:MyHardWare/eMPL/inv_mpu_dmp_motion_driver.c ****     if (enable) {
 2278              		.loc 1 1180 5 is_stmt 1 view .LVU658
1181:MyHardWare/eMPL/inv_mpu_dmp_motion_driver.c ****         regs[0] = DINA20;
 2279              		.loc 1 1181 5 view .LVU659
1181:MyHardWare/eMPL/inv_mpu_dmp_motion_driver.c ****         regs[0] = DINA20;
 2280              		.loc 1 1181 8 is_stmt 0 view .LVU660
 2281 0004 B0B1     		cbz	r0, .L146
1182:MyHardWare/eMPL/inv_mpu_dmp_motion_driver.c ****         regs[1] = DINA28;
 2282              		.loc 1 1182 9 is_stmt 1 view .LVU661
1182:MyHardWare/eMPL/inv_mpu_dmp_motion_driver.c ****         regs[1] = DINA28;
 2283              		.loc 1 1182 17 is_stmt 0 view .LVU662
 2284 0006 2023     		movs	r3, #32
 2285 0008 8DF80430 		strb	r3, [sp, #4]
1183:MyHardWare/eMPL/inv_mpu_dmp_motion_driver.c ****         regs[2] = DINA30;
 2286              		.loc 1 1183 9 is_stmt 1 view .LVU663
1183:MyHardWare/eMPL/inv_mpu_dmp_motion_driver.c ****         regs[2] = DINA30;
 2287              		.loc 1 1183 17 is_stmt 0 view .LVU664
ARM GAS  /tmp/cckrZnTL.s 			page 73


 2288 000c 2823     		movs	r3, #40
 2289 000e 8DF80530 		strb	r3, [sp, #5]
1184:MyHardWare/eMPL/inv_mpu_dmp_motion_driver.c ****         regs[3] = DINA38;
 2290              		.loc 1 1184 9 is_stmt 1 view .LVU665
1184:MyHardWare/eMPL/inv_mpu_dmp_motion_driver.c ****         regs[3] = DINA38;
 2291              		.loc 1 1184 17 is_stmt 0 view .LVU666
 2292 0012 3023     		movs	r3, #48
 2293 0014 8DF80630 		strb	r3, [sp, #6]
1185:MyHardWare/eMPL/inv_mpu_dmp_motion_driver.c ****     } else
 2294              		.loc 1 1185 9 is_stmt 1 view .LVU667
1185:MyHardWare/eMPL/inv_mpu_dmp_motion_driver.c ****     } else
 2295              		.loc 1 1185 17 is_stmt 0 view .LVU668
 2296 0018 3823     		movs	r3, #56
 2297 001a 8DF80730 		strb	r3, [sp, #7]
 2298              	.L147:
1189:MyHardWare/eMPL/inv_mpu_dmp_motion_driver.c **** 
 2299              		.loc 1 1189 5 is_stmt 1 view .LVU669
 2300 001e 01AA     		add	r2, sp, #4
 2301 0020 0421     		movs	r1, #4
 2302 0022 40F69E20 		movw	r0, #2718
 2303              	.LVL132:
1189:MyHardWare/eMPL/inv_mpu_dmp_motion_driver.c **** 
 2304              		.loc 1 1189 5 is_stmt 0 view .LVU670
 2305 0026 FFF7FEFF 		bl	mpu_write_mem
 2306              	.LVL133:
1191:MyHardWare/eMPL/inv_mpu_dmp_motion_driver.c **** }
 2307              		.loc 1 1191 5 is_stmt 1 view .LVU671
1191:MyHardWare/eMPL/inv_mpu_dmp_motion_driver.c **** }
 2308              		.loc 1 1191 12 is_stmt 0 view .LVU672
 2309 002a FFF7FEFF 		bl	mpu_reset_fifo
 2310              	.LVL134:
1192:MyHardWare/eMPL/inv_mpu_dmp_motion_driver.c **** 
 2311              		.loc 1 1192 1 view .LVU673
 2312 002e 03B0     		add	sp, sp, #12
 2313              	.LCFI72:
 2314              		.cfi_remember_state
 2315              		.cfi_def_cfa_offset 4
 2316              		@ sp needed
 2317 0030 5DF804FB 		ldr	pc, [sp], #4
 2318              	.LVL135:
 2319              	.L146:
 2320              	.LCFI73:
 2321              		.cfi_restore_state
1187:MyHardWare/eMPL/inv_mpu_dmp_motion_driver.c **** 
 2322              		.loc 1 1187 9 is_stmt 1 view .LVU674
 2323 0034 4FF0A333 		mov	r3, #-1549556829
 2324 0038 0193     		str	r3, [sp, #4]
 2325 003a F0E7     		b	.L147
 2326              		.cfi_endproc
 2327              	.LFE148:
 2329              		.section	.text.dmp_enable_feature,"ax",%progbits
 2330              		.align	1
 2331              		.global	dmp_enable_feature
 2332              		.syntax unified
 2333              		.thumb
 2334              		.thumb_func
 2336              	dmp_enable_feature:
ARM GAS  /tmp/cckrZnTL.s 			page 74


 2337              	.LVL136:
 2338              	.LFB144:
1000:MyHardWare/eMPL/inv_mpu_dmp_motion_driver.c ****     unsigned char tmp[10];
 2339              		.loc 1 1000 1 view -0
 2340              		.cfi_startproc
 2341              		@ args = 0, pretend = 0, frame = 16
 2342              		@ frame_needed = 0, uses_anonymous_args = 0
1000:MyHardWare/eMPL/inv_mpu_dmp_motion_driver.c ****     unsigned char tmp[10];
 2343              		.loc 1 1000 1 is_stmt 0 view .LVU676
 2344 0000 2DE9F041 		push	{r4, r5, r6, r7, r8, lr}
 2345              	.LCFI74:
 2346              		.cfi_def_cfa_offset 24
 2347              		.cfi_offset 4, -24
 2348              		.cfi_offset 5, -20
 2349              		.cfi_offset 6, -16
 2350              		.cfi_offset 7, -12
 2351              		.cfi_offset 8, -8
 2352              		.cfi_offset 14, -4
 2353 0004 84B0     		sub	sp, sp, #16
 2354              	.LCFI75:
 2355              		.cfi_def_cfa_offset 40
 2356 0006 0446     		mov	r4, r0
1001:MyHardWare/eMPL/inv_mpu_dmp_motion_driver.c **** 
 2357              		.loc 1 1001 5 is_stmt 1 view .LVU677
1007:MyHardWare/eMPL/inv_mpu_dmp_motion_driver.c ****     tmp[1] = (unsigned char)((GYRO_SF >> 16) & 0xFF);
 2358              		.loc 1 1007 5 view .LVU678
1007:MyHardWare/eMPL/inv_mpu_dmp_motion_driver.c ****     tmp[1] = (unsigned char)((GYRO_SF >> 16) & 0xFF);
 2359              		.loc 1 1007 12 is_stmt 0 view .LVU679
 2360 0008 0223     		movs	r3, #2
 2361 000a 8DF80430 		strb	r3, [sp, #4]
1008:MyHardWare/eMPL/inv_mpu_dmp_motion_driver.c ****     tmp[2] = (unsigned char)((GYRO_SF >> 8) & 0xFF);
 2362              		.loc 1 1008 5 is_stmt 1 view .LVU680
1008:MyHardWare/eMPL/inv_mpu_dmp_motion_driver.c ****     tmp[2] = (unsigned char)((GYRO_SF >> 8) & 0xFF);
 2363              		.loc 1 1008 12 is_stmt 0 view .LVU681
 2364 000e CA23     		movs	r3, #202
 2365 0010 8DF80530 		strb	r3, [sp, #5]
1009:MyHardWare/eMPL/inv_mpu_dmp_motion_driver.c ****     tmp[3] = (unsigned char)(GYRO_SF & 0xFF);
 2366              		.loc 1 1009 5 is_stmt 1 view .LVU682
1009:MyHardWare/eMPL/inv_mpu_dmp_motion_driver.c ****     tmp[3] = (unsigned char)(GYRO_SF & 0xFF);
 2367              		.loc 1 1009 12 is_stmt 0 view .LVU683
 2368 0014 E323     		movs	r3, #227
 2369 0016 8DF80630 		strb	r3, [sp, #6]
1010:MyHardWare/eMPL/inv_mpu_dmp_motion_driver.c ****     mpu_write_mem(D_0_104, 4, tmp);
 2370              		.loc 1 1010 5 is_stmt 1 view .LVU684
1010:MyHardWare/eMPL/inv_mpu_dmp_motion_driver.c ****     mpu_write_mem(D_0_104, 4, tmp);
 2371              		.loc 1 1010 12 is_stmt 0 view .LVU685
 2372 001a 0923     		movs	r3, #9
 2373 001c 8DF80730 		strb	r3, [sp, #7]
1011:MyHardWare/eMPL/inv_mpu_dmp_motion_driver.c **** 
 2374              		.loc 1 1011 5 is_stmt 1 view .LVU686
 2375 0020 01AA     		add	r2, sp, #4
 2376 0022 0421     		movs	r1, #4
 2377 0024 6820     		movs	r0, #104
 2378              	.LVL137:
1011:MyHardWare/eMPL/inv_mpu_dmp_motion_driver.c **** 
 2379              		.loc 1 1011 5 is_stmt 0 view .LVU687
 2380 0026 FFF7FEFF 		bl	mpu_write_mem
ARM GAS  /tmp/cckrZnTL.s 			page 75


 2381              	.LVL138:
1014:MyHardWare/eMPL/inv_mpu_dmp_motion_driver.c ****     if (mask & DMP_FEATURE_SEND_RAW_ACCEL) {
 2382              		.loc 1 1014 5 is_stmt 1 view .LVU688
1014:MyHardWare/eMPL/inv_mpu_dmp_motion_driver.c ****     if (mask & DMP_FEATURE_SEND_RAW_ACCEL) {
 2383              		.loc 1 1014 12 is_stmt 0 view .LVU689
 2384 002a A323     		movs	r3, #163
 2385 002c 8DF80430 		strb	r3, [sp, #4]
1015:MyHardWare/eMPL/inv_mpu_dmp_motion_driver.c ****         tmp[1] = 0xC0;
 2386              		.loc 1 1015 5 is_stmt 1 view .LVU690
1015:MyHardWare/eMPL/inv_mpu_dmp_motion_driver.c ****         tmp[1] = 0xC0;
 2387              		.loc 1 1015 8 is_stmt 0 view .LVU691
 2388 0030 14F04008 		ands	r8, r4, #64
 2389 0034 00F0B080 		beq	.L150
1016:MyHardWare/eMPL/inv_mpu_dmp_motion_driver.c ****         tmp[2] = 0xC8;
 2390              		.loc 1 1016 9 is_stmt 1 view .LVU692
1016:MyHardWare/eMPL/inv_mpu_dmp_motion_driver.c ****         tmp[2] = 0xC8;
 2391              		.loc 1 1016 16 is_stmt 0 view .LVU693
 2392 0038 C023     		movs	r3, #192
 2393 003a 8DF80530 		strb	r3, [sp, #5]
1017:MyHardWare/eMPL/inv_mpu_dmp_motion_driver.c ****         tmp[3] = 0xC2;
 2394              		.loc 1 1017 9 is_stmt 1 view .LVU694
1017:MyHardWare/eMPL/inv_mpu_dmp_motion_driver.c ****         tmp[3] = 0xC2;
 2395              		.loc 1 1017 16 is_stmt 0 view .LVU695
 2396 003e C823     		movs	r3, #200
 2397 0040 8DF80630 		strb	r3, [sp, #6]
1018:MyHardWare/eMPL/inv_mpu_dmp_motion_driver.c ****     } else {
 2398              		.loc 1 1018 9 is_stmt 1 view .LVU696
1018:MyHardWare/eMPL/inv_mpu_dmp_motion_driver.c ****     } else {
 2399              		.loc 1 1018 16 is_stmt 0 view .LVU697
 2400 0044 C223     		movs	r3, #194
 2401 0046 8DF80730 		strb	r3, [sp, #7]
 2402              	.L151:
1024:MyHardWare/eMPL/inv_mpu_dmp_motion_driver.c ****         tmp[4] = 0xC4;
 2403              		.loc 1 1024 5 is_stmt 1 view .LVU698
1024:MyHardWare/eMPL/inv_mpu_dmp_motion_driver.c ****         tmp[4] = 0xC4;
 2404              		.loc 1 1024 8 is_stmt 0 view .LVU699
 2405 004a 14F4C075 		ands	r5, r4, #384
 2406 004e 00F0AB80 		beq	.L152
1025:MyHardWare/eMPL/inv_mpu_dmp_motion_driver.c ****         tmp[5] = 0xCC;
 2407              		.loc 1 1025 9 is_stmt 1 view .LVU700
1025:MyHardWare/eMPL/inv_mpu_dmp_motion_driver.c ****         tmp[5] = 0xCC;
 2408              		.loc 1 1025 16 is_stmt 0 view .LVU701
 2409 0052 C423     		movs	r3, #196
 2410 0054 8DF80830 		strb	r3, [sp, #8]
1026:MyHardWare/eMPL/inv_mpu_dmp_motion_driver.c ****         tmp[6] = 0xC6;
 2411              		.loc 1 1026 9 is_stmt 1 view .LVU702
1026:MyHardWare/eMPL/inv_mpu_dmp_motion_driver.c ****         tmp[6] = 0xC6;
 2412              		.loc 1 1026 16 is_stmt 0 view .LVU703
 2413 0058 CC23     		movs	r3, #204
 2414 005a 8DF80930 		strb	r3, [sp, #9]
1027:MyHardWare/eMPL/inv_mpu_dmp_motion_driver.c ****     } else {
 2415              		.loc 1 1027 9 is_stmt 1 view .LVU704
1027:MyHardWare/eMPL/inv_mpu_dmp_motion_driver.c ****     } else {
 2416              		.loc 1 1027 16 is_stmt 0 view .LVU705
 2417 005e C623     		movs	r3, #198
 2418 0060 8DF80A30 		strb	r3, [sp, #10]
 2419              	.L153:
ARM GAS  /tmp/cckrZnTL.s 			page 76


1033:MyHardWare/eMPL/inv_mpu_dmp_motion_driver.c ****     tmp[8] = 0xA3;
 2420              		.loc 1 1033 5 is_stmt 1 view .LVU706
1033:MyHardWare/eMPL/inv_mpu_dmp_motion_driver.c ****     tmp[8] = 0xA3;
 2421              		.loc 1 1033 12 is_stmt 0 view .LVU707
 2422 0064 A323     		movs	r3, #163
 2423 0066 8DF80B30 		strb	r3, [sp, #11]
1034:MyHardWare/eMPL/inv_mpu_dmp_motion_driver.c ****     tmp[9] = 0xA3;
 2424              		.loc 1 1034 5 is_stmt 1 view .LVU708
1034:MyHardWare/eMPL/inv_mpu_dmp_motion_driver.c ****     tmp[9] = 0xA3;
 2425              		.loc 1 1034 12 is_stmt 0 view .LVU709
 2426 006a 8DF80C30 		strb	r3, [sp, #12]
1035:MyHardWare/eMPL/inv_mpu_dmp_motion_driver.c ****     mpu_write_mem(CFG_15,10,tmp);
 2427              		.loc 1 1035 5 is_stmt 1 view .LVU710
1035:MyHardWare/eMPL/inv_mpu_dmp_motion_driver.c ****     mpu_write_mem(CFG_15,10,tmp);
 2428              		.loc 1 1035 12 is_stmt 0 view .LVU711
 2429 006e 8DF80D30 		strb	r3, [sp, #13]
1036:MyHardWare/eMPL/inv_mpu_dmp_motion_driver.c **** 
 2430              		.loc 1 1036 5 is_stmt 1 view .LVU712
 2431 0072 01AA     		add	r2, sp, #4
 2432 0074 0A21     		movs	r1, #10
 2433 0076 40F6A720 		movw	r0, #2727
 2434 007a FFF7FEFF 		bl	mpu_write_mem
 2435              	.LVL139:
1039:MyHardWare/eMPL/inv_mpu_dmp_motion_driver.c ****         tmp[0] = DINA20;
 2436              		.loc 1 1039 5 view .LVU713
1039:MyHardWare/eMPL/inv_mpu_dmp_motion_driver.c ****         tmp[0] = DINA20;
 2437              		.loc 1 1039 8 is_stmt 0 view .LVU714
 2438 007e 14F00307 		ands	r7, r4, #3
 2439 0082 00F09980 		beq	.L154
1040:MyHardWare/eMPL/inv_mpu_dmp_motion_driver.c ****     else
 2440              		.loc 1 1040 9 is_stmt 1 view .LVU715
1040:MyHardWare/eMPL/inv_mpu_dmp_motion_driver.c ****     else
 2441              		.loc 1 1040 16 is_stmt 0 view .LVU716
 2442 0086 2023     		movs	r3, #32
 2443 0088 8DF80430 		strb	r3, [sp, #4]
 2444              	.L155:
1043:MyHardWare/eMPL/inv_mpu_dmp_motion_driver.c **** 
 2445              		.loc 1 1043 5 is_stmt 1 view .LVU717
 2446 008c 01AA     		add	r2, sp, #4
 2447 008e 0121     		movs	r1, #1
 2448 0090 40F6B620 		movw	r0, #2742
 2449 0094 FFF7FEFF 		bl	mpu_write_mem
 2450              	.LVL140:
1045:MyHardWare/eMPL/inv_mpu_dmp_motion_driver.c ****         dmp_enable_gyro_cal(1);
 2451              		.loc 1 1045 5 view .LVU718
1045:MyHardWare/eMPL/inv_mpu_dmp_motion_driver.c ****         dmp_enable_gyro_cal(1);
 2452              		.loc 1 1045 8 is_stmt 0 view .LVU719
 2453 0098 14F0200F 		tst	r4, #32
 2454 009c 00F09080 		beq	.L156
1046:MyHardWare/eMPL/inv_mpu_dmp_motion_driver.c ****     else
 2455              		.loc 1 1046 9 is_stmt 1 view .LVU720
 2456 00a0 0120     		movs	r0, #1
 2457 00a2 FFF7FEFF 		bl	dmp_enable_gyro_cal
 2458              	.LVL141:
 2459              	.L157:
1050:MyHardWare/eMPL/inv_mpu_dmp_motion_driver.c ****         if (mask & DMP_FEATURE_SEND_CAL_GYRO) {
 2460              		.loc 1 1050 5 view .LVU721
ARM GAS  /tmp/cckrZnTL.s 			page 77


1050:MyHardWare/eMPL/inv_mpu_dmp_motion_driver.c ****         if (mask & DMP_FEATURE_SEND_CAL_GYRO) {
 2461              		.loc 1 1050 8 is_stmt 0 view .LVU722
 2462 00a6 ADB1     		cbz	r5, .L158
1051:MyHardWare/eMPL/inv_mpu_dmp_motion_driver.c ****             tmp[0] = 0xB2;
 2463              		.loc 1 1051 9 is_stmt 1 view .LVU723
1051:MyHardWare/eMPL/inv_mpu_dmp_motion_driver.c ****             tmp[0] = 0xB2;
 2464              		.loc 1 1051 12 is_stmt 0 view .LVU724
 2465 00a8 14F4807F 		tst	r4, #256
 2466 00ac 00F08C80 		beq	.L159
1052:MyHardWare/eMPL/inv_mpu_dmp_motion_driver.c ****             tmp[1] = 0x8B;
 2467              		.loc 1 1052 13 is_stmt 1 view .LVU725
1052:MyHardWare/eMPL/inv_mpu_dmp_motion_driver.c ****             tmp[1] = 0x8B;
 2468              		.loc 1 1052 20 is_stmt 0 view .LVU726
 2469 00b0 B223     		movs	r3, #178
 2470 00b2 8DF80430 		strb	r3, [sp, #4]
1053:MyHardWare/eMPL/inv_mpu_dmp_motion_driver.c ****             tmp[2] = 0xB6;
 2471              		.loc 1 1053 13 is_stmt 1 view .LVU727
1053:MyHardWare/eMPL/inv_mpu_dmp_motion_driver.c ****             tmp[2] = 0xB6;
 2472              		.loc 1 1053 20 is_stmt 0 view .LVU728
 2473 00b6 8B23     		movs	r3, #139
 2474 00b8 8DF80530 		strb	r3, [sp, #5]
1054:MyHardWare/eMPL/inv_mpu_dmp_motion_driver.c ****             tmp[3] = 0x9B;
 2475              		.loc 1 1054 13 is_stmt 1 view .LVU729
1054:MyHardWare/eMPL/inv_mpu_dmp_motion_driver.c ****             tmp[3] = 0x9B;
 2476              		.loc 1 1054 20 is_stmt 0 view .LVU730
 2477 00bc B623     		movs	r3, #182
 2478 00be 8DF80630 		strb	r3, [sp, #6]
1055:MyHardWare/eMPL/inv_mpu_dmp_motion_driver.c ****         } else {
 2479              		.loc 1 1055 13 is_stmt 1 view .LVU731
1055:MyHardWare/eMPL/inv_mpu_dmp_motion_driver.c ****         } else {
 2480              		.loc 1 1055 20 is_stmt 0 view .LVU732
 2481 00c2 9B23     		movs	r3, #155
 2482 00c4 8DF80730 		strb	r3, [sp, #7]
 2483              	.L160:
1062:MyHardWare/eMPL/inv_mpu_dmp_motion_driver.c ****     }
 2484              		.loc 1 1062 9 is_stmt 1 view .LVU733
 2485 00c8 01AA     		add	r2, sp, #4
 2486 00ca 0421     		movs	r1, #4
 2487 00cc 40F6A220 		movw	r0, #2722
 2488 00d0 FFF7FEFF 		bl	mpu_write_mem
 2489              	.LVL142:
 2490              	.L158:
1065:MyHardWare/eMPL/inv_mpu_dmp_motion_driver.c ****         /* Enable tap. */
 2491              		.loc 1 1065 5 view .LVU734
1065:MyHardWare/eMPL/inv_mpu_dmp_motion_driver.c ****         /* Enable tap. */
 2492              		.loc 1 1065 8 is_stmt 0 view .LVU735
 2493 00d4 14F0010F 		tst	r4, #1
 2494 00d8 00F08380 		beq	.L161
1067:MyHardWare/eMPL/inv_mpu_dmp_motion_driver.c ****         mpu_write_mem(CFG_20, 1, tmp);
 2495              		.loc 1 1067 9 is_stmt 1 view .LVU736
1067:MyHardWare/eMPL/inv_mpu_dmp_motion_driver.c ****         mpu_write_mem(CFG_20, 1, tmp);
 2496              		.loc 1 1067 16 is_stmt 0 view .LVU737
 2497 00dc F823     		movs	r3, #248
 2498 00de 8DF80430 		strb	r3, [sp, #4]
1068:MyHardWare/eMPL/inv_mpu_dmp_motion_driver.c ****         dmp_set_tap_thresh(TAP_XYZ, 250);
 2499              		.loc 1 1068 9 is_stmt 1 view .LVU738
 2500 00e2 01AA     		add	r2, sp, #4
ARM GAS  /tmp/cckrZnTL.s 			page 78


 2501 00e4 0121     		movs	r1, #1
 2502 00e6 4FF40B60 		mov	r0, #2224
 2503 00ea FFF7FEFF 		bl	mpu_write_mem
 2504              	.LVL143:
1069:MyHardWare/eMPL/inv_mpu_dmp_motion_driver.c ****         dmp_set_tap_axes(TAP_XYZ);
 2505              		.loc 1 1069 9 view .LVU739
 2506 00ee FA21     		movs	r1, #250
 2507 00f0 0720     		movs	r0, #7
 2508 00f2 FFF7FEFF 		bl	dmp_set_tap_thresh
 2509              	.LVL144:
1070:MyHardWare/eMPL/inv_mpu_dmp_motion_driver.c ****         dmp_set_tap_count(1);
 2510              		.loc 1 1070 9 view .LVU740
 2511 00f6 0720     		movs	r0, #7
 2512 00f8 FFF7FEFF 		bl	dmp_set_tap_axes
 2513              	.LVL145:
1071:MyHardWare/eMPL/inv_mpu_dmp_motion_driver.c ****         dmp_set_tap_time(100);
 2514              		.loc 1 1071 9 view .LVU741
 2515 00fc 0120     		movs	r0, #1
 2516 00fe FFF7FEFF 		bl	dmp_set_tap_count
 2517              	.LVL146:
1072:MyHardWare/eMPL/inv_mpu_dmp_motion_driver.c ****         dmp_set_tap_time_multi(500);
 2518              		.loc 1 1072 9 view .LVU742
 2519 0102 6420     		movs	r0, #100
 2520 0104 FFF7FEFF 		bl	dmp_set_tap_time
 2521              	.LVL147:
1073:MyHardWare/eMPL/inv_mpu_dmp_motion_driver.c **** 
 2522              		.loc 1 1073 9 view .LVU743
 2523 0108 4FF4FA70 		mov	r0, #500
 2524 010c FFF7FEFF 		bl	dmp_set_tap_time_multi
 2525              	.LVL148:
1075:MyHardWare/eMPL/inv_mpu_dmp_motion_driver.c ****         dmp_set_shake_reject_time(40);
 2526              		.loc 1 1075 9 view .LVU744
 2527 0110 C821     		movs	r1, #200
 2528 0112 3F48     		ldr	r0, .L174
 2529 0114 FFF7FEFF 		bl	dmp_set_shake_reject_thresh
 2530              	.LVL149:
1076:MyHardWare/eMPL/inv_mpu_dmp_motion_driver.c ****         dmp_set_shake_reject_timeout(10);
 2531              		.loc 1 1076 9 view .LVU745
 2532 0118 2820     		movs	r0, #40
 2533 011a FFF7FEFF 		bl	dmp_set_shake_reject_time
 2534              	.LVL150:
1077:MyHardWare/eMPL/inv_mpu_dmp_motion_driver.c ****     } else {
 2535              		.loc 1 1077 9 view .LVU746
 2536 011e 0A20     		movs	r0, #10
 2537 0120 FFF7FEFF 		bl	dmp_set_shake_reject_timeout
 2538              	.LVL151:
 2539              	.L162:
1083:MyHardWare/eMPL/inv_mpu_dmp_motion_driver.c ****         tmp[0] = 0xD9;
 2540              		.loc 1 1083 5 view .LVU747
1083:MyHardWare/eMPL/inv_mpu_dmp_motion_driver.c ****         tmp[0] = 0xD9;
 2541              		.loc 1 1083 8 is_stmt 0 view .LVU748
 2542 0124 14F0020F 		tst	r4, #2
 2543 0128 65D0     		beq	.L163
1084:MyHardWare/eMPL/inv_mpu_dmp_motion_driver.c ****     } else
 2544              		.loc 1 1084 9 is_stmt 1 view .LVU749
1084:MyHardWare/eMPL/inv_mpu_dmp_motion_driver.c ****     } else
 2545              		.loc 1 1084 16 is_stmt 0 view .LVU750
ARM GAS  /tmp/cckrZnTL.s 			page 79


 2546 012a D923     		movs	r3, #217
 2547 012c 8DF80430 		strb	r3, [sp, #4]
 2548              	.L164:
1087:MyHardWare/eMPL/inv_mpu_dmp_motion_driver.c **** 
 2549              		.loc 1 1087 5 is_stmt 1 view .LVU751
 2550 0130 01AA     		add	r2, sp, #4
 2551 0132 0121     		movs	r1, #1
 2552 0134 40F23D70 		movw	r0, #1853
 2553 0138 FFF7FEFF 		bl	mpu_write_mem
 2554              	.LVL152:
1089:MyHardWare/eMPL/inv_mpu_dmp_motion_driver.c ****         dmp_enable_lp_quat(1);
 2555              		.loc 1 1089 5 view .LVU752
1089:MyHardWare/eMPL/inv_mpu_dmp_motion_driver.c ****         dmp_enable_lp_quat(1);
 2556              		.loc 1 1089 8 is_stmt 0 view .LVU753
 2557 013c 14F0040F 		tst	r4, #4
 2558 0140 5DD0     		beq	.L165
1090:MyHardWare/eMPL/inv_mpu_dmp_motion_driver.c ****     else
 2559              		.loc 1 1090 9 is_stmt 1 view .LVU754
 2560 0142 0120     		movs	r0, #1
 2561 0144 FFF7FEFF 		bl	dmp_enable_lp_quat
 2562              	.LVL153:
 2563              	.L166:
1094:MyHardWare/eMPL/inv_mpu_dmp_motion_driver.c ****         dmp_enable_6x_lp_quat(1);
 2564              		.loc 1 1094 5 view .LVU755
1094:MyHardWare/eMPL/inv_mpu_dmp_motion_driver.c ****         dmp_enable_6x_lp_quat(1);
 2565              		.loc 1 1094 8 is_stmt 0 view .LVU756
 2566 0148 14F0100F 		tst	r4, #16
 2567 014c 5BD0     		beq	.L167
1095:MyHardWare/eMPL/inv_mpu_dmp_motion_driver.c ****     else
 2568              		.loc 1 1095 9 is_stmt 1 view .LVU757
 2569 014e 0120     		movs	r0, #1
 2570 0150 FFF7FEFF 		bl	dmp_enable_6x_lp_quat
 2571              	.LVL154:
 2572              	.L168:
1100:MyHardWare/eMPL/inv_mpu_dmp_motion_driver.c ****     mpu_reset_fifo();
 2573              		.loc 1 1100 5 view .LVU758
1100:MyHardWare/eMPL/inv_mpu_dmp_motion_driver.c ****     mpu_reset_fifo();
 2574              		.loc 1 1100 22 is_stmt 0 view .LVU759
 2575 0154 2F4E     		ldr	r6, .L174+4
 2576 0156 44F00803 		orr	r3, r4, #8
 2577 015a 7381     		strh	r3, [r6, #10]	@ movhi
1101:MyHardWare/eMPL/inv_mpu_dmp_motion_driver.c **** 
 2578              		.loc 1 1101 5 is_stmt 1 view .LVU760
 2579 015c FFF7FEFF 		bl	mpu_reset_fifo
 2580              	.LVL155:
1103:MyHardWare/eMPL/inv_mpu_dmp_motion_driver.c ****     if (mask & DMP_FEATURE_SEND_RAW_ACCEL)
 2581              		.loc 1 1103 5 view .LVU761
1103:MyHardWare/eMPL/inv_mpu_dmp_motion_driver.c ****     if (mask & DMP_FEATURE_SEND_RAW_ACCEL)
 2582              		.loc 1 1103 23 is_stmt 0 view .LVU762
 2583 0160 0023     		movs	r3, #0
 2584 0162 B373     		strb	r3, [r6, #14]
1104:MyHardWare/eMPL/inv_mpu_dmp_motion_driver.c ****         dmp.packet_length += 6;
 2585              		.loc 1 1104 5 is_stmt 1 view .LVU763
1104:MyHardWare/eMPL/inv_mpu_dmp_motion_driver.c ****         dmp.packet_length += 6;
 2586              		.loc 1 1104 8 is_stmt 0 view .LVU764
 2587 0164 B8F1000F 		cmp	r8, #0
 2588 0168 01D0     		beq	.L169
ARM GAS  /tmp/cckrZnTL.s 			page 80


1105:MyHardWare/eMPL/inv_mpu_dmp_motion_driver.c ****     if (mask & DMP_FEATURE_SEND_ANY_GYRO)
 2589              		.loc 1 1105 9 is_stmt 1 view .LVU765
1105:MyHardWare/eMPL/inv_mpu_dmp_motion_driver.c ****     if (mask & DMP_FEATURE_SEND_ANY_GYRO)
 2590              		.loc 1 1105 27 is_stmt 0 view .LVU766
 2591 016a 0622     		movs	r2, #6
 2592 016c B273     		strb	r2, [r6, #14]
 2593              	.L169:
1106:MyHardWare/eMPL/inv_mpu_dmp_motion_driver.c ****         dmp.packet_length += 6;
 2594              		.loc 1 1106 5 is_stmt 1 view .LVU767
1106:MyHardWare/eMPL/inv_mpu_dmp_motion_driver.c ****         dmp.packet_length += 6;
 2595              		.loc 1 1106 8 is_stmt 0 view .LVU768
 2596 016e 1DB1     		cbz	r5, .L170
1107:MyHardWare/eMPL/inv_mpu_dmp_motion_driver.c ****     if (mask & (DMP_FEATURE_LP_QUAT | DMP_FEATURE_6X_LP_QUAT))
 2597              		.loc 1 1107 9 is_stmt 1 view .LVU769
1107:MyHardWare/eMPL/inv_mpu_dmp_motion_driver.c ****     if (mask & (DMP_FEATURE_LP_QUAT | DMP_FEATURE_6X_LP_QUAT))
 2598              		.loc 1 1107 12 is_stmt 0 view .LVU770
 2599 0170 284A     		ldr	r2, .L174+4
 2600 0172 937B     		ldrb	r3, [r2, #14]	@ zero_extendqisi2
1107:MyHardWare/eMPL/inv_mpu_dmp_motion_driver.c ****     if (mask & (DMP_FEATURE_LP_QUAT | DMP_FEATURE_6X_LP_QUAT))
 2601              		.loc 1 1107 27 view .LVU771
 2602 0174 0633     		adds	r3, r3, #6
 2603 0176 9373     		strb	r3, [r2, #14]
 2604              	.L170:
1108:MyHardWare/eMPL/inv_mpu_dmp_motion_driver.c ****         dmp.packet_length += 16;
 2605              		.loc 1 1108 5 is_stmt 1 view .LVU772
1108:MyHardWare/eMPL/inv_mpu_dmp_motion_driver.c ****         dmp.packet_length += 16;
 2606              		.loc 1 1108 8 is_stmt 0 view .LVU773
 2607 0178 14F0140F 		tst	r4, #20
 2608 017c 03D0     		beq	.L171
1109:MyHardWare/eMPL/inv_mpu_dmp_motion_driver.c ****     if (mask & (DMP_FEATURE_TAP | DMP_FEATURE_ANDROID_ORIENT))
 2609              		.loc 1 1109 9 is_stmt 1 view .LVU774
1109:MyHardWare/eMPL/inv_mpu_dmp_motion_driver.c ****     if (mask & (DMP_FEATURE_TAP | DMP_FEATURE_ANDROID_ORIENT))
 2610              		.loc 1 1109 12 is_stmt 0 view .LVU775
 2611 017e 254A     		ldr	r2, .L174+4
 2612 0180 937B     		ldrb	r3, [r2, #14]	@ zero_extendqisi2
1109:MyHardWare/eMPL/inv_mpu_dmp_motion_driver.c ****     if (mask & (DMP_FEATURE_TAP | DMP_FEATURE_ANDROID_ORIENT))
 2613              		.loc 1 1109 27 view .LVU776
 2614 0182 1033     		adds	r3, r3, #16
 2615 0184 9373     		strb	r3, [r2, #14]
 2616              	.L171:
1110:MyHardWare/eMPL/inv_mpu_dmp_motion_driver.c ****         dmp.packet_length += 4;
 2617              		.loc 1 1110 5 is_stmt 1 view .LVU777
1110:MyHardWare/eMPL/inv_mpu_dmp_motion_driver.c ****         dmp.packet_length += 4;
 2618              		.loc 1 1110 8 is_stmt 0 view .LVU778
 2619 0186 1FB1     		cbz	r7, .L172
1111:MyHardWare/eMPL/inv_mpu_dmp_motion_driver.c **** 
 2620              		.loc 1 1111 9 is_stmt 1 view .LVU779
1111:MyHardWare/eMPL/inv_mpu_dmp_motion_driver.c **** 
 2621              		.loc 1 1111 12 is_stmt 0 view .LVU780
 2622 0188 224A     		ldr	r2, .L174+4
 2623 018a 937B     		ldrb	r3, [r2, #14]	@ zero_extendqisi2
1111:MyHardWare/eMPL/inv_mpu_dmp_motion_driver.c **** 
 2624              		.loc 1 1111 27 view .LVU781
 2625 018c 0433     		adds	r3, r3, #4
 2626 018e 9373     		strb	r3, [r2, #14]
 2627              	.L172:
1113:MyHardWare/eMPL/inv_mpu_dmp_motion_driver.c **** }
ARM GAS  /tmp/cckrZnTL.s 			page 81


 2628              		.loc 1 1113 5 is_stmt 1 view .LVU782
1114:MyHardWare/eMPL/inv_mpu_dmp_motion_driver.c **** 
 2629              		.loc 1 1114 1 is_stmt 0 view .LVU783
 2630 0190 0020     		movs	r0, #0
 2631 0192 04B0     		add	sp, sp, #16
 2632              	.LCFI76:
 2633              		.cfi_remember_state
 2634              		.cfi_def_cfa_offset 24
 2635              		@ sp needed
 2636 0194 BDE8F081 		pop	{r4, r5, r6, r7, r8, pc}
 2637              	.LVL156:
 2638              	.L150:
 2639              	.LCFI77:
 2640              		.cfi_restore_state
1020:MyHardWare/eMPL/inv_mpu_dmp_motion_driver.c ****         tmp[2] = 0xA3;
 2641              		.loc 1 1020 9 is_stmt 1 view .LVU784
1020:MyHardWare/eMPL/inv_mpu_dmp_motion_driver.c ****         tmp[2] = 0xA3;
 2642              		.loc 1 1020 16 is_stmt 0 view .LVU785
 2643 0198 A323     		movs	r3, #163
 2644 019a 8DF80530 		strb	r3, [sp, #5]
1021:MyHardWare/eMPL/inv_mpu_dmp_motion_driver.c ****         tmp[3] = 0xA3;
 2645              		.loc 1 1021 9 is_stmt 1 view .LVU786
1021:MyHardWare/eMPL/inv_mpu_dmp_motion_driver.c ****         tmp[3] = 0xA3;
 2646              		.loc 1 1021 16 is_stmt 0 view .LVU787
 2647 019e 8DF80630 		strb	r3, [sp, #6]
1022:MyHardWare/eMPL/inv_mpu_dmp_motion_driver.c ****     }
 2648              		.loc 1 1022 9 is_stmt 1 view .LVU788
1022:MyHardWare/eMPL/inv_mpu_dmp_motion_driver.c ****     }
 2649              		.loc 1 1022 16 is_stmt 0 view .LVU789
 2650 01a2 8DF80730 		strb	r3, [sp, #7]
 2651 01a6 50E7     		b	.L151
 2652              	.L152:
1029:MyHardWare/eMPL/inv_mpu_dmp_motion_driver.c ****         tmp[5] = 0xA3;
 2653              		.loc 1 1029 9 is_stmt 1 view .LVU790
1029:MyHardWare/eMPL/inv_mpu_dmp_motion_driver.c ****         tmp[5] = 0xA3;
 2654              		.loc 1 1029 16 is_stmt 0 view .LVU791
 2655 01a8 A323     		movs	r3, #163
 2656 01aa 8DF80830 		strb	r3, [sp, #8]
1030:MyHardWare/eMPL/inv_mpu_dmp_motion_driver.c ****         tmp[6] = 0xA3;
 2657              		.loc 1 1030 9 is_stmt 1 view .LVU792
1030:MyHardWare/eMPL/inv_mpu_dmp_motion_driver.c ****         tmp[6] = 0xA3;
 2658              		.loc 1 1030 16 is_stmt 0 view .LVU793
 2659 01ae 8DF80930 		strb	r3, [sp, #9]
1031:MyHardWare/eMPL/inv_mpu_dmp_motion_driver.c ****     }
 2660              		.loc 1 1031 9 is_stmt 1 view .LVU794
1031:MyHardWare/eMPL/inv_mpu_dmp_motion_driver.c ****     }
 2661              		.loc 1 1031 16 is_stmt 0 view .LVU795
 2662 01b2 8DF80A30 		strb	r3, [sp, #10]
 2663 01b6 55E7     		b	.L153
 2664              	.L154:
1042:MyHardWare/eMPL/inv_mpu_dmp_motion_driver.c ****     mpu_write_mem(CFG_27,1,tmp);
 2665              		.loc 1 1042 9 is_stmt 1 view .LVU796
1042:MyHardWare/eMPL/inv_mpu_dmp_motion_driver.c ****     mpu_write_mem(CFG_27,1,tmp);
 2666              		.loc 1 1042 16 is_stmt 0 view .LVU797
 2667 01b8 D823     		movs	r3, #216
 2668 01ba 8DF80430 		strb	r3, [sp, #4]
 2669 01be 65E7     		b	.L155
ARM GAS  /tmp/cckrZnTL.s 			page 82


 2670              	.L156:
1048:MyHardWare/eMPL/inv_mpu_dmp_motion_driver.c **** 
 2671              		.loc 1 1048 9 is_stmt 1 view .LVU798
 2672 01c0 0020     		movs	r0, #0
 2673 01c2 FFF7FEFF 		bl	dmp_enable_gyro_cal
 2674              	.LVL157:
 2675 01c6 6EE7     		b	.L157
 2676              	.L159:
1057:MyHardWare/eMPL/inv_mpu_dmp_motion_driver.c ****             tmp[1] = DINA80;
 2677              		.loc 1 1057 13 view .LVU799
1057:MyHardWare/eMPL/inv_mpu_dmp_motion_driver.c ****             tmp[1] = DINA80;
 2678              		.loc 1 1057 20 is_stmt 0 view .LVU800
 2679 01c8 B023     		movs	r3, #176
 2680 01ca 8DF80430 		strb	r3, [sp, #4]
1058:MyHardWare/eMPL/inv_mpu_dmp_motion_driver.c ****             tmp[2] = DINAC2;
 2681              		.loc 1 1058 13 is_stmt 1 view .LVU801
1058:MyHardWare/eMPL/inv_mpu_dmp_motion_driver.c ****             tmp[2] = DINAC2;
 2682              		.loc 1 1058 20 is_stmt 0 view .LVU802
 2683 01ce 8023     		movs	r3, #128
 2684 01d0 8DF80530 		strb	r3, [sp, #5]
1059:MyHardWare/eMPL/inv_mpu_dmp_motion_driver.c ****             tmp[3] = DINA90;
 2685              		.loc 1 1059 13 is_stmt 1 view .LVU803
1059:MyHardWare/eMPL/inv_mpu_dmp_motion_driver.c ****             tmp[3] = DINA90;
 2686              		.loc 1 1059 20 is_stmt 0 view .LVU804
 2687 01d4 B423     		movs	r3, #180
 2688 01d6 8DF80630 		strb	r3, [sp, #6]
1060:MyHardWare/eMPL/inv_mpu_dmp_motion_driver.c ****         }
 2689              		.loc 1 1060 13 is_stmt 1 view .LVU805
1060:MyHardWare/eMPL/inv_mpu_dmp_motion_driver.c ****         }
 2690              		.loc 1 1060 20 is_stmt 0 view .LVU806
 2691 01da 9023     		movs	r3, #144
 2692 01dc 8DF80730 		strb	r3, [sp, #7]
 2693 01e0 72E7     		b	.L160
 2694              	.L161:
1079:MyHardWare/eMPL/inv_mpu_dmp_motion_driver.c ****         mpu_write_mem(CFG_20, 1, tmp);
 2695              		.loc 1 1079 9 is_stmt 1 view .LVU807
1079:MyHardWare/eMPL/inv_mpu_dmp_motion_driver.c ****         mpu_write_mem(CFG_20, 1, tmp);
 2696              		.loc 1 1079 16 is_stmt 0 view .LVU808
 2697 01e2 D823     		movs	r3, #216
 2698 01e4 8DF80430 		strb	r3, [sp, #4]
1080:MyHardWare/eMPL/inv_mpu_dmp_motion_driver.c ****     }
 2699              		.loc 1 1080 9 is_stmt 1 view .LVU809
 2700 01e8 01AA     		add	r2, sp, #4
 2701 01ea 0121     		movs	r1, #1
 2702 01ec 4FF40B60 		mov	r0, #2224
 2703 01f0 FFF7FEFF 		bl	mpu_write_mem
 2704              	.LVL158:
 2705 01f4 96E7     		b	.L162
 2706              	.L163:
1086:MyHardWare/eMPL/inv_mpu_dmp_motion_driver.c ****     mpu_write_mem(CFG_ANDROID_ORIENT_INT, 1, tmp);
 2707              		.loc 1 1086 9 view .LVU810
1086:MyHardWare/eMPL/inv_mpu_dmp_motion_driver.c ****     mpu_write_mem(CFG_ANDROID_ORIENT_INT, 1, tmp);
 2708              		.loc 1 1086 16 is_stmt 0 view .LVU811
 2709 01f6 D823     		movs	r3, #216
 2710 01f8 8DF80430 		strb	r3, [sp, #4]
 2711 01fc 98E7     		b	.L164
 2712              	.L165:
ARM GAS  /tmp/cckrZnTL.s 			page 83


1092:MyHardWare/eMPL/inv_mpu_dmp_motion_driver.c **** 
 2713              		.loc 1 1092 9 is_stmt 1 view .LVU812
 2714 01fe 0020     		movs	r0, #0
 2715 0200 FFF7FEFF 		bl	dmp_enable_lp_quat
 2716              	.LVL159:
 2717 0204 A0E7     		b	.L166
 2718              	.L167:
1097:MyHardWare/eMPL/inv_mpu_dmp_motion_driver.c **** 
 2719              		.loc 1 1097 9 view .LVU813
 2720 0206 0020     		movs	r0, #0
 2721 0208 FFF7FEFF 		bl	dmp_enable_6x_lp_quat
 2722              	.LVL160:
 2723 020c A2E7     		b	.L168
 2724              	.L175:
 2725 020e 00BF     		.align	2
 2726              	.L174:
 2727 0210 09E3CA02 		.word	46850825
 2728 0214 00000000 		.word	dmp
 2729              		.cfi_endproc
 2730              	.LFE144:
 2732              		.section	.rodata.dmp_set_interrupt_mode.str1.4,"aMS",%progbits,1
 2733              		.align	2
 2734              	.LC7:
 2735 0000 D8B1B9F3 		.ascii	"\330\261\271\363\213\243\221\266\011\264\331\000"
 2735      8BA391B6 
 2735      09B4D900 
 2736              		.align	2
 2737              	.LC8:
 2738 000c DAB1B9F3 		.ascii	"\332\261\271\363\213\243\221\266\332\264\332\000"
 2738      8BA391B6 
 2738      DAB4DA00 
 2739              		.section	.text.dmp_set_interrupt_mode,"ax",%progbits
 2740              		.align	1
 2741              		.global	dmp_set_interrupt_mode
 2742              		.syntax unified
 2743              		.thumb
 2744              		.thumb_func
 2746              	dmp_set_interrupt_mode:
 2747              	.LVL161:
 2748              	.LFB150:
1221:MyHardWare/eMPL/inv_mpu_dmp_motion_driver.c **** 
1222:MyHardWare/eMPL/inv_mpu_dmp_motion_driver.c **** /**
1223:MyHardWare/eMPL/inv_mpu_dmp_motion_driver.c ****  *  @brief      Specify when a DMP interrupt should occur.
1224:MyHardWare/eMPL/inv_mpu_dmp_motion_driver.c ****  *  A DMP interrupt can be configured to trigger on either of the two
1225:MyHardWare/eMPL/inv_mpu_dmp_motion_driver.c ****  *  conditions below:
1226:MyHardWare/eMPL/inv_mpu_dmp_motion_driver.c ****  *  \n a. One FIFO period has elapsed (set by @e mpu_set_sample_rate).
1227:MyHardWare/eMPL/inv_mpu_dmp_motion_driver.c ****  *  \n b. A tap event has been detected.
1228:MyHardWare/eMPL/inv_mpu_dmp_motion_driver.c ****  *  @param[in]  mode    DMP_INT_GESTURE or DMP_INT_CONTINUOUS.
1229:MyHardWare/eMPL/inv_mpu_dmp_motion_driver.c ****  *  @return     0 if successful.
1230:MyHardWare/eMPL/inv_mpu_dmp_motion_driver.c ****  */
1231:MyHardWare/eMPL/inv_mpu_dmp_motion_driver.c **** int dmp_set_interrupt_mode(unsigned char mode)
1232:MyHardWare/eMPL/inv_mpu_dmp_motion_driver.c **** {
 2749              		.loc 1 1232 1 view -0
 2750              		.cfi_startproc
 2751              		@ args = 0, pretend = 0, frame = 24
 2752              		@ frame_needed = 0, uses_anonymous_args = 0
 2753              		.loc 1 1232 1 is_stmt 0 view .LVU815
ARM GAS  /tmp/cckrZnTL.s 			page 84


 2754 0000 00B5     		push	{lr}
 2755              	.LCFI78:
 2756              		.cfi_def_cfa_offset 4
 2757              		.cfi_offset 14, -4
 2758 0002 87B0     		sub	sp, sp, #28
 2759              	.LCFI79:
 2760              		.cfi_def_cfa_offset 32
 2761 0004 8446     		mov	ip, r0
1233:MyHardWare/eMPL/inv_mpu_dmp_motion_driver.c ****     const unsigned char regs_continuous[11] =
 2762              		.loc 1 1233 5 is_stmt 1 view .LVU816
 2763              		.loc 1 1233 25 is_stmt 0 view .LVU817
 2764 0006 144A     		ldr	r2, .L181
 2765 0008 03AB     		add	r3, sp, #12
 2766 000a 07CA     		ldm	r2, {r0, r1, r2}
 2767              	.LVL162:
 2768              		.loc 1 1233 25 view .LVU818
 2769 000c 03C3     		stmia	r3!, {r0, r1}
 2770 000e 23F8022B 		strh	r2, [r3], #2	@ movhi
 2771 0012 120C     		lsrs	r2, r2, #16
 2772 0014 1A70     		strb	r2, [r3]
1234:MyHardWare/eMPL/inv_mpu_dmp_motion_driver.c ****         {0xd8, 0xb1, 0xb9, 0xf3, 0x8b, 0xa3, 0x91, 0xb6, 0x09, 0xb4, 0xd9};
1235:MyHardWare/eMPL/inv_mpu_dmp_motion_driver.c ****     const unsigned char regs_gesture[11] =
 2773              		.loc 1 1235 5 is_stmt 1 view .LVU819
 2774              		.loc 1 1235 25 is_stmt 0 view .LVU820
 2775 0016 114A     		ldr	r2, .L181+4
 2776 0018 6B46     		mov	r3, sp
 2777 001a 07CA     		ldm	r2, {r0, r1, r2}
 2778 001c 03C3     		stmia	r3!, {r0, r1}
 2779 001e 23F8022B 		strh	r2, [r3], #2	@ movhi
 2780 0022 120C     		lsrs	r2, r2, #16
 2781 0024 1A70     		strb	r2, [r3]
1236:MyHardWare/eMPL/inv_mpu_dmp_motion_driver.c ****         {0xda, 0xb1, 0xb9, 0xf3, 0x8b, 0xa3, 0x91, 0xb6, 0xda, 0xb4, 0xda};
1237:MyHardWare/eMPL/inv_mpu_dmp_motion_driver.c **** 
1238:MyHardWare/eMPL/inv_mpu_dmp_motion_driver.c ****     switch (mode) {
 2782              		.loc 1 1238 5 is_stmt 1 view .LVU821
 2783 0026 BCF1010F 		cmp	ip, #1
 2784 002a 0BD0     		beq	.L177
 2785 002c BCF1020F 		cmp	ip, #2
 2786 0030 0FD1     		bne	.L179
1239:MyHardWare/eMPL/inv_mpu_dmp_motion_driver.c ****     case DMP_INT_CONTINUOUS:
1240:MyHardWare/eMPL/inv_mpu_dmp_motion_driver.c ****         return mpu_write_mem(CFG_FIFO_ON_EVENT, 11,
 2787              		.loc 1 1240 9 view .LVU822
 2788              		.loc 1 1240 16 is_stmt 0 view .LVU823
 2789 0032 03AA     		add	r2, sp, #12
 2790 0034 0B21     		movs	r1, #11
 2791 0036 40F68220 		movw	r0, #2690
 2792 003a FFF7FEFF 		bl	mpu_write_mem
 2793              	.LVL163:
 2794              	.L176:
1241:MyHardWare/eMPL/inv_mpu_dmp_motion_driver.c ****             (unsigned char*)regs_continuous);
1242:MyHardWare/eMPL/inv_mpu_dmp_motion_driver.c ****     case DMP_INT_GESTURE:
1243:MyHardWare/eMPL/inv_mpu_dmp_motion_driver.c ****         return mpu_write_mem(CFG_FIFO_ON_EVENT, 11,
1244:MyHardWare/eMPL/inv_mpu_dmp_motion_driver.c ****             (unsigned char*)regs_gesture);
1245:MyHardWare/eMPL/inv_mpu_dmp_motion_driver.c ****     default:
1246:MyHardWare/eMPL/inv_mpu_dmp_motion_driver.c ****         return -1;
1247:MyHardWare/eMPL/inv_mpu_dmp_motion_driver.c ****     }
1248:MyHardWare/eMPL/inv_mpu_dmp_motion_driver.c **** }
ARM GAS  /tmp/cckrZnTL.s 			page 85


 2795              		.loc 1 1248 1 view .LVU824
 2796 003e 07B0     		add	sp, sp, #28
 2797              	.LCFI80:
 2798              		.cfi_remember_state
 2799              		.cfi_def_cfa_offset 4
 2800              		@ sp needed
 2801 0040 5DF804FB 		ldr	pc, [sp], #4
 2802              	.L177:
 2803              	.LCFI81:
 2804              		.cfi_restore_state
1243:MyHardWare/eMPL/inv_mpu_dmp_motion_driver.c ****             (unsigned char*)regs_gesture);
 2805              		.loc 1 1243 9 is_stmt 1 view .LVU825
1243:MyHardWare/eMPL/inv_mpu_dmp_motion_driver.c ****             (unsigned char*)regs_gesture);
 2806              		.loc 1 1243 16 is_stmt 0 view .LVU826
 2807 0044 6A46     		mov	r2, sp
 2808 0046 0B21     		movs	r1, #11
 2809 0048 40F68220 		movw	r0, #2690
 2810 004c FFF7FEFF 		bl	mpu_write_mem
 2811              	.LVL164:
 2812 0050 F5E7     		b	.L176
 2813              	.L179:
1238:MyHardWare/eMPL/inv_mpu_dmp_motion_driver.c ****     case DMP_INT_CONTINUOUS:
 2814              		.loc 1 1238 5 view .LVU827
 2815 0052 4FF0FF30 		mov	r0, #-1
 2816 0056 F2E7     		b	.L176
 2817              	.L182:
 2818              		.align	2
 2819              	.L181:
 2820 0058 00000000 		.word	.LC7
 2821 005c 0C000000 		.word	.LC8
 2822              		.cfi_endproc
 2823              	.LFE150:
 2825              		.section	.text.dmp_read_fifo,"ax",%progbits
 2826              		.align	1
 2827              		.global	dmp_read_fifo
 2828              		.syntax unified
 2829              		.thumb
 2830              		.thumb_func
 2832              	dmp_read_fifo:
 2833              	.LVL165:
 2834              	.LFB151:
1249:MyHardWare/eMPL/inv_mpu_dmp_motion_driver.c **** 
1250:MyHardWare/eMPL/inv_mpu_dmp_motion_driver.c **** /**
1251:MyHardWare/eMPL/inv_mpu_dmp_motion_driver.c ****  *  @brief      Get one packet from the FIFO.
1252:MyHardWare/eMPL/inv_mpu_dmp_motion_driver.c ****  *  If @e sensors does not contain a particular sensor, disregard the data
1253:MyHardWare/eMPL/inv_mpu_dmp_motion_driver.c ****  *  returned to that pointer.
1254:MyHardWare/eMPL/inv_mpu_dmp_motion_driver.c ****  *  \n @e sensors can contain a combination of the following flags:
1255:MyHardWare/eMPL/inv_mpu_dmp_motion_driver.c ****  *  \n INV_X_GYRO, INV_Y_GYRO, INV_Z_GYRO
1256:MyHardWare/eMPL/inv_mpu_dmp_motion_driver.c ****  *  \n INV_XYZ_GYRO
1257:MyHardWare/eMPL/inv_mpu_dmp_motion_driver.c ****  *  \n INV_XYZ_ACCEL
1258:MyHardWare/eMPL/inv_mpu_dmp_motion_driver.c ****  *  \n INV_WXYZ_QUAT
1259:MyHardWare/eMPL/inv_mpu_dmp_motion_driver.c ****  *  \n If the FIFO has no new data, @e sensors will be zero.
1260:MyHardWare/eMPL/inv_mpu_dmp_motion_driver.c ****  *  \n If the FIFO is disabled, @e sensors will be zero and this function will
1261:MyHardWare/eMPL/inv_mpu_dmp_motion_driver.c ****  *  return a non-zero error code.
1262:MyHardWare/eMPL/inv_mpu_dmp_motion_driver.c ****  *  @param[out] gyro        Gyro data in hardware units.
1263:MyHardWare/eMPL/inv_mpu_dmp_motion_driver.c ****  *  @param[out] accel       Accel data in hardware units.
1264:MyHardWare/eMPL/inv_mpu_dmp_motion_driver.c ****  *  @param[out] quat        3-axis quaternion data in hardware units.
ARM GAS  /tmp/cckrZnTL.s 			page 86


1265:MyHardWare/eMPL/inv_mpu_dmp_motion_driver.c ****  *  @param[out] timestamp   Timestamp in milliseconds.
1266:MyHardWare/eMPL/inv_mpu_dmp_motion_driver.c ****  *  @param[out] sensors     Mask of sensors read from FIFO.
1267:MyHardWare/eMPL/inv_mpu_dmp_motion_driver.c ****  *  @param[out] more        Number of remaining packets.
1268:MyHardWare/eMPL/inv_mpu_dmp_motion_driver.c ****  *  @return     0 if successful.
1269:MyHardWare/eMPL/inv_mpu_dmp_motion_driver.c ****  */
1270:MyHardWare/eMPL/inv_mpu_dmp_motion_driver.c **** int dmp_read_fifo(short *gyro, short *accel, long *quat,
1271:MyHardWare/eMPL/inv_mpu_dmp_motion_driver.c ****     unsigned long *timestamp, short *sensors, unsigned char *more)
1272:MyHardWare/eMPL/inv_mpu_dmp_motion_driver.c **** {
 2835              		.loc 1 1272 1 is_stmt 1 view -0
 2836              		.cfi_startproc
 2837              		@ args = 8, pretend = 0, frame = 48
 2838              		@ frame_needed = 0, uses_anonymous_args = 0
 2839              		.loc 1 1272 1 is_stmt 0 view .LVU829
 2840 0000 2DE9F047 		push	{r4, r5, r6, r7, r8, r9, r10, lr}
 2841              	.LCFI82:
 2842              		.cfi_def_cfa_offset 32
 2843              		.cfi_offset 4, -32
 2844              		.cfi_offset 5, -28
 2845              		.cfi_offset 6, -24
 2846              		.cfi_offset 7, -20
 2847              		.cfi_offset 8, -16
 2848              		.cfi_offset 9, -12
 2849              		.cfi_offset 10, -8
 2850              		.cfi_offset 14, -4
 2851 0004 8CB0     		sub	sp, sp, #48
 2852              	.LCFI83:
 2853              		.cfi_def_cfa_offset 80
 2854 0006 0646     		mov	r6, r0
 2855 0008 0F46     		mov	r7, r1
 2856 000a 9246     		mov	r10, r2
 2857 000c 9846     		mov	r8, r3
 2858 000e 149D     		ldr	r5, [sp, #80]
1273:MyHardWare/eMPL/inv_mpu_dmp_motion_driver.c ****     unsigned char fifo_data[MAX_PACKET_LENGTH];
 2859              		.loc 1 1273 5 is_stmt 1 view .LVU830
1274:MyHardWare/eMPL/inv_mpu_dmp_motion_driver.c ****     unsigned char ii = 0;
 2860              		.loc 1 1274 5 view .LVU831
 2861              	.LVL166:
1275:MyHardWare/eMPL/inv_mpu_dmp_motion_driver.c **** 
1276:MyHardWare/eMPL/inv_mpu_dmp_motion_driver.c ****     /* TODO: sensors[0] only changes when dmp_enable_feature is called. We can
1277:MyHardWare/eMPL/inv_mpu_dmp_motion_driver.c ****      * cache this value and save some cycles.
1278:MyHardWare/eMPL/inv_mpu_dmp_motion_driver.c ****      */
1279:MyHardWare/eMPL/inv_mpu_dmp_motion_driver.c ****     sensors[0] = 0;
 2862              		.loc 1 1279 5 view .LVU832
 2863              		.loc 1 1279 16 is_stmt 0 view .LVU833
 2864 0010 0023     		movs	r3, #0
 2865              	.LVL167:
 2866              		.loc 1 1279 16 view .LVU834
 2867 0012 2B80     		strh	r3, [r5]	@ movhi
1280:MyHardWare/eMPL/inv_mpu_dmp_motion_driver.c **** 
1281:MyHardWare/eMPL/inv_mpu_dmp_motion_driver.c ****     /* Get a packet. */
1282:MyHardWare/eMPL/inv_mpu_dmp_motion_driver.c ****     if (mpu_read_fifo_stream(dmp.packet_length, fifo_data, more))
 2868              		.loc 1 1282 5 is_stmt 1 view .LVU835
 2869              		.loc 1 1282 9 is_stmt 0 view .LVU836
 2870 0014 159A     		ldr	r2, [sp, #84]
 2871              	.LVL168:
 2872              		.loc 1 1282 9 view .LVU837
 2873 0016 04A9     		add	r1, sp, #16
ARM GAS  /tmp/cckrZnTL.s 			page 87


 2874              	.LVL169:
 2875              		.loc 1 1282 9 view .LVU838
 2876 0018 734B     		ldr	r3, .L195
 2877 001a 987B     		ldrb	r0, [r3, #14]	@ zero_extendqisi2
 2878              	.LVL170:
 2879              		.loc 1 1282 9 view .LVU839
 2880 001c FFF7FEFF 		bl	mpu_read_fifo_stream
 2881              	.LVL171:
 2882              		.loc 1 1282 8 discriminator 1 view .LVU840
 2883 0020 0028     		cmp	r0, #0
 2884 0022 40F0DE80 		bne	.L190
 2885 0026 8146     		mov	r9, r0
1283:MyHardWare/eMPL/inv_mpu_dmp_motion_driver.c ****         return -1;
1284:MyHardWare/eMPL/inv_mpu_dmp_motion_driver.c **** 
1285:MyHardWare/eMPL/inv_mpu_dmp_motion_driver.c ****     /* Parse DMP packet. */
1286:MyHardWare/eMPL/inv_mpu_dmp_motion_driver.c ****     if (dmp.feature_mask & (DMP_FEATURE_LP_QUAT | DMP_FEATURE_6X_LP_QUAT)) {
 2886              		.loc 1 1286 5 is_stmt 1 view .LVU841
 2887              		.loc 1 1286 12 is_stmt 0 view .LVU842
 2888 0028 6F4B     		ldr	r3, .L195
 2889 002a 5B89     		ldrh	r3, [r3, #10]
 2890              		.loc 1 1286 8 view .LVU843
 2891 002c 13F0140F 		tst	r3, #20
 2892 0030 65D0     		beq	.L191
 2893              	.LBB5:
1287:MyHardWare/eMPL/inv_mpu_dmp_motion_driver.c **** #ifdef FIFO_CORRUPTION_CHECK
1288:MyHardWare/eMPL/inv_mpu_dmp_motion_driver.c ****         long quat_q14[4], quat_mag_sq;
 2894              		.loc 1 1288 9 is_stmt 1 view .LVU844
1289:MyHardWare/eMPL/inv_mpu_dmp_motion_driver.c **** #endif
1290:MyHardWare/eMPL/inv_mpu_dmp_motion_driver.c ****         quat[0] = ((long)fifo_data[0] << 24) | ((long)fifo_data[1] << 16) |
 2895              		.loc 1 1290 9 view .LVU845
 2896              		.loc 1 1290 35 is_stmt 0 view .LVU846
 2897 0032 9DF81020 		ldrb	r2, [sp, #16]	@ zero_extendqisi2
 2898              		.loc 1 1290 64 view .LVU847
 2899 0036 9DF81100 		ldrb	r0, [sp, #17]	@ zero_extendqisi2
 2900              		.loc 1 1290 68 view .LVU848
 2901 003a 0004     		lsls	r0, r0, #16
 2902              		.loc 1 1290 46 view .LVU849
 2903 003c 40EA0260 		orr	r0, r0, r2, lsl #24
1291:MyHardWare/eMPL/inv_mpu_dmp_motion_driver.c ****             ((long)fifo_data[2] << 8) | fifo_data[3];
 2904              		.loc 1 1291 29 view .LVU850
 2905 0040 9DF81220 		ldrb	r2, [sp, #18]	@ zero_extendqisi2
1290:MyHardWare/eMPL/inv_mpu_dmp_motion_driver.c ****             ((long)fifo_data[2] << 8) | fifo_data[3];
 2906              		.loc 1 1290 75 view .LVU851
 2907 0044 40EA0220 		orr	r0, r0, r2, lsl #8
 2908              		.loc 1 1291 50 view .LVU852
 2909 0048 9DF81320 		ldrb	r2, [sp, #19]	@ zero_extendqisi2
 2910              		.loc 1 1291 39 view .LVU853
 2911 004c 1043     		orrs	r0, r0, r2
1290:MyHardWare/eMPL/inv_mpu_dmp_motion_driver.c ****             ((long)fifo_data[2] << 8) | fifo_data[3];
 2912              		.loc 1 1290 17 view .LVU854
 2913 004e CAF80000 		str	r0, [r10]
1292:MyHardWare/eMPL/inv_mpu_dmp_motion_driver.c ****         quat[1] = ((long)fifo_data[4] << 24) | ((long)fifo_data[5] << 16) |
 2914              		.loc 1 1292 9 is_stmt 1 view .LVU855
 2915              		.loc 1 1292 35 is_stmt 0 view .LVU856
 2916 0052 9DF81410 		ldrb	r1, [sp, #20]	@ zero_extendqisi2
 2917              		.loc 1 1292 64 view .LVU857
 2918 0056 9DF81520 		ldrb	r2, [sp, #21]	@ zero_extendqisi2
ARM GAS  /tmp/cckrZnTL.s 			page 88


 2919              		.loc 1 1292 68 view .LVU858
 2920 005a 1204     		lsls	r2, r2, #16
 2921              		.loc 1 1292 46 view .LVU859
 2922 005c 42EA0162 		orr	r2, r2, r1, lsl #24
1293:MyHardWare/eMPL/inv_mpu_dmp_motion_driver.c ****             ((long)fifo_data[6] << 8) | fifo_data[7];
 2923              		.loc 1 1293 29 view .LVU860
 2924 0060 9DF81610 		ldrb	r1, [sp, #22]	@ zero_extendqisi2
1292:MyHardWare/eMPL/inv_mpu_dmp_motion_driver.c ****         quat[1] = ((long)fifo_data[4] << 24) | ((long)fifo_data[5] << 16) |
 2925              		.loc 1 1292 75 view .LVU861
 2926 0064 42EA0122 		orr	r2, r2, r1, lsl #8
 2927              		.loc 1 1293 50 view .LVU862
 2928 0068 9DF81710 		ldrb	r1, [sp, #23]	@ zero_extendqisi2
 2929              		.loc 1 1293 39 view .LVU863
 2930 006c 0A43     		orrs	r2, r2, r1
1292:MyHardWare/eMPL/inv_mpu_dmp_motion_driver.c ****         quat[1] = ((long)fifo_data[4] << 24) | ((long)fifo_data[5] << 16) |
 2931              		.loc 1 1292 17 view .LVU864
 2932 006e CAF80420 		str	r2, [r10, #4]
1294:MyHardWare/eMPL/inv_mpu_dmp_motion_driver.c ****         quat[2] = ((long)fifo_data[8] << 24) | ((long)fifo_data[9] << 16) |
 2933              		.loc 1 1294 9 is_stmt 1 view .LVU865
 2934              		.loc 1 1294 35 is_stmt 0 view .LVU866
 2935 0072 9DF81840 		ldrb	r4, [sp, #24]	@ zero_extendqisi2
 2936              		.loc 1 1294 64 view .LVU867
 2937 0076 9DF81910 		ldrb	r1, [sp, #25]	@ zero_extendqisi2
 2938              		.loc 1 1294 68 view .LVU868
 2939 007a 0904     		lsls	r1, r1, #16
 2940              		.loc 1 1294 46 view .LVU869
 2941 007c 41EA0461 		orr	r1, r1, r4, lsl #24
1295:MyHardWare/eMPL/inv_mpu_dmp_motion_driver.c ****             ((long)fifo_data[10] << 8) | fifo_data[11];
 2942              		.loc 1 1295 29 view .LVU870
 2943 0080 9DF81A40 		ldrb	r4, [sp, #26]	@ zero_extendqisi2
1294:MyHardWare/eMPL/inv_mpu_dmp_motion_driver.c ****         quat[2] = ((long)fifo_data[8] << 24) | ((long)fifo_data[9] << 16) |
 2944              		.loc 1 1294 75 view .LVU871
 2945 0084 41EA0421 		orr	r1, r1, r4, lsl #8
 2946              		.loc 1 1295 51 view .LVU872
 2947 0088 9DF81B40 		ldrb	r4, [sp, #27]	@ zero_extendqisi2
 2948              		.loc 1 1295 40 view .LVU873
 2949 008c 2143     		orrs	r1, r1, r4
1294:MyHardWare/eMPL/inv_mpu_dmp_motion_driver.c ****         quat[2] = ((long)fifo_data[8] << 24) | ((long)fifo_data[9] << 16) |
 2950              		.loc 1 1294 17 view .LVU874
 2951 008e CAF80810 		str	r1, [r10, #8]
1296:MyHardWare/eMPL/inv_mpu_dmp_motion_driver.c ****         quat[3] = ((long)fifo_data[12] << 24) | ((long)fifo_data[13] << 16) |
 2952              		.loc 1 1296 9 is_stmt 1 view .LVU875
 2953              		.loc 1 1296 35 is_stmt 0 view .LVU876
 2954 0092 9DF81CC0 		ldrb	ip, [sp, #28]	@ zero_extendqisi2
 2955              		.loc 1 1296 65 view .LVU877
 2956 0096 9DF81D40 		ldrb	r4, [sp, #29]	@ zero_extendqisi2
 2957              		.loc 1 1296 70 view .LVU878
 2958 009a 2404     		lsls	r4, r4, #16
 2959              		.loc 1 1296 47 view .LVU879
 2960 009c 44EA0C64 		orr	r4, r4, ip, lsl #24
1297:MyHardWare/eMPL/inv_mpu_dmp_motion_driver.c ****             ((long)fifo_data[14] << 8) | fifo_data[15];
 2961              		.loc 1 1297 29 view .LVU880
 2962 00a0 9DF81EC0 		ldrb	ip, [sp, #30]	@ zero_extendqisi2
1296:MyHardWare/eMPL/inv_mpu_dmp_motion_driver.c ****         quat[3] = ((long)fifo_data[12] << 24) | ((long)fifo_data[13] << 16) |
 2963              		.loc 1 1296 77 view .LVU881
 2964 00a4 44EA0C24 		orr	r4, r4, ip, lsl #8
 2965              		.loc 1 1297 51 view .LVU882
ARM GAS  /tmp/cckrZnTL.s 			page 89


 2966 00a8 9DF81FC0 		ldrb	ip, [sp, #31]	@ zero_extendqisi2
 2967              		.loc 1 1297 40 view .LVU883
 2968 00ac 44EA0C04 		orr	r4, r4, ip
1296:MyHardWare/eMPL/inv_mpu_dmp_motion_driver.c ****         quat[3] = ((long)fifo_data[12] << 24) | ((long)fifo_data[13] << 16) |
 2969              		.loc 1 1296 17 view .LVU884
 2970 00b0 CAF80C40 		str	r4, [r10, #12]
1298:MyHardWare/eMPL/inv_mpu_dmp_motion_driver.c ****         ii += 16;
 2971              		.loc 1 1298 9 is_stmt 1 view .LVU885
 2972              	.LVL172:
1299:MyHardWare/eMPL/inv_mpu_dmp_motion_driver.c **** #ifdef FIFO_CORRUPTION_CHECK
1300:MyHardWare/eMPL/inv_mpu_dmp_motion_driver.c ****         /* We can detect a corrupted FIFO by monitoring the quaternion data and
1301:MyHardWare/eMPL/inv_mpu_dmp_motion_driver.c ****          * ensuring that the magnitude is always normalized to one. This
1302:MyHardWare/eMPL/inv_mpu_dmp_motion_driver.c ****          * shouldn't happen in normal operation, but if an I2C error occurs,
1303:MyHardWare/eMPL/inv_mpu_dmp_motion_driver.c ****          * the FIFO reads might become misaligned.
1304:MyHardWare/eMPL/inv_mpu_dmp_motion_driver.c ****          *
1305:MyHardWare/eMPL/inv_mpu_dmp_motion_driver.c ****          * Let's start by scaling down the quaternion data to avoid long long
1306:MyHardWare/eMPL/inv_mpu_dmp_motion_driver.c ****          * math.
1307:MyHardWare/eMPL/inv_mpu_dmp_motion_driver.c ****          */
1308:MyHardWare/eMPL/inv_mpu_dmp_motion_driver.c ****         quat_q14[0] = quat[0] >> 16;
 2973              		.loc 1 1308 9 view .LVU886
 2974              		.loc 1 1308 31 is_stmt 0 view .LVU887
 2975 00b4 0014     		asrs	r0, r0, #16
 2976              		.loc 1 1308 21 view .LVU888
 2977 00b6 0090     		str	r0, [sp]
1309:MyHardWare/eMPL/inv_mpu_dmp_motion_driver.c ****         quat_q14[1] = quat[1] >> 16;
 2978              		.loc 1 1309 9 is_stmt 1 view .LVU889
 2979              		.loc 1 1309 31 is_stmt 0 view .LVU890
 2980 00b8 4FEA224C 		asr	ip, r2, #16
 2981              		.loc 1 1309 21 view .LVU891
 2982 00bc CDF804C0 		str	ip, [sp, #4]
1310:MyHardWare/eMPL/inv_mpu_dmp_motion_driver.c ****         quat_q14[2] = quat[2] >> 16;
 2983              		.loc 1 1310 9 is_stmt 1 view .LVU892
 2984              		.loc 1 1310 31 is_stmt 0 view .LVU893
 2985 00c0 0914     		asrs	r1, r1, #16
 2986              		.loc 1 1310 21 view .LVU894
 2987 00c2 0291     		str	r1, [sp, #8]
1311:MyHardWare/eMPL/inv_mpu_dmp_motion_driver.c ****         quat_q14[3] = quat[3] >> 16;
 2988              		.loc 1 1311 9 is_stmt 1 view .LVU895
 2989              		.loc 1 1311 31 is_stmt 0 view .LVU896
 2990 00c4 2214     		asrs	r2, r4, #16
 2991              		.loc 1 1311 21 view .LVU897
 2992 00c6 0392     		str	r2, [sp, #12]
1312:MyHardWare/eMPL/inv_mpu_dmp_motion_driver.c ****         quat_mag_sq = quat_q14[0] * quat_q14[0] + quat_q14[1] * quat_q14[1] +
 2993              		.loc 1 1312 9 is_stmt 1 view .LVU898
 2994              		.loc 1 1312 63 is_stmt 0 view .LVU899
 2995 00c8 0CFB0CFC 		mul	ip, ip, ip
 2996              		.loc 1 1312 49 view .LVU900
 2997 00cc 00FB00C0 		mla	r0, r0, r0, ip
 2998              		.loc 1 1312 77 view .LVU901
 2999 00d0 01FB0101 		mla	r1, r1, r1, r0
 3000              		.loc 1 1312 21 view .LVU902
 3001 00d4 02FB0212 		mla	r2, r2, r2, r1
 3002              	.LVL173:
1313:MyHardWare/eMPL/inv_mpu_dmp_motion_driver.c ****             quat_q14[2] * quat_q14[2] + quat_q14[3] * quat_q14[3];
1314:MyHardWare/eMPL/inv_mpu_dmp_motion_driver.c ****         if ((quat_mag_sq < QUAT_MAG_SQ_MIN) ||
 3003              		.loc 1 1314 9 is_stmt 1 view .LVU903
 3004              		.loc 1 1314 45 is_stmt 0 view .LVU904
ARM GAS  /tmp/cckrZnTL.s 			page 90


 3005 00d8 02F17142 		add	r2, r2, #-251658240
 3006              	.LVL174:
 3007              		.loc 1 1314 12 view .LVU905
 3008 00dc B2F1007F 		cmp	r2, #33554432
 3009 00e0 06D8     		bhi	.L193
1315:MyHardWare/eMPL/inv_mpu_dmp_motion_driver.c ****             (quat_mag_sq > QUAT_MAG_SQ_MAX)) {
1316:MyHardWare/eMPL/inv_mpu_dmp_motion_driver.c ****             /* Quaternion is outside of the acceptable threshold. */
1317:MyHardWare/eMPL/inv_mpu_dmp_motion_driver.c ****             mpu_reset_fifo();
1318:MyHardWare/eMPL/inv_mpu_dmp_motion_driver.c ****             sensors[0] = 0;
1319:MyHardWare/eMPL/inv_mpu_dmp_motion_driver.c ****             return -1;
1320:MyHardWare/eMPL/inv_mpu_dmp_motion_driver.c ****         }
1321:MyHardWare/eMPL/inv_mpu_dmp_motion_driver.c ****         sensors[0] |= INV_WXYZ_QUAT;
 3010              		.loc 1 1321 9 is_stmt 1 view .LVU906
 3011              		.loc 1 1321 16 is_stmt 0 view .LVU907
 3012 00e2 B5F90020 		ldrsh	r2, [r5]
 3013              	.LVL175:
 3014              		.loc 1 1321 20 view .LVU908
 3015 00e6 42F48072 		orr	r2, r2, #256
 3016 00ea 2A80     		strh	r2, [r5]	@ movhi
1298:MyHardWare/eMPL/inv_mpu_dmp_motion_driver.c **** #ifdef FIFO_CORRUPTION_CHECK
 3017              		.loc 1 1298 12 view .LVU909
 3018 00ec 1022     		movs	r2, #16
 3019 00ee 07E0     		b	.L185
 3020              	.L193:
1317:MyHardWare/eMPL/inv_mpu_dmp_motion_driver.c ****             sensors[0] = 0;
 3021              		.loc 1 1317 13 is_stmt 1 view .LVU910
 3022 00f0 FFF7FEFF 		bl	mpu_reset_fifo
 3023              	.LVL176:
1318:MyHardWare/eMPL/inv_mpu_dmp_motion_driver.c ****             return -1;
 3024              		.loc 1 1318 13 view .LVU911
1318:MyHardWare/eMPL/inv_mpu_dmp_motion_driver.c ****             return -1;
 3025              		.loc 1 1318 24 is_stmt 0 view .LVU912
 3026 00f4 0023     		movs	r3, #0
 3027 00f6 2B80     		strh	r3, [r5]	@ movhi
1319:MyHardWare/eMPL/inv_mpu_dmp_motion_driver.c ****         }
 3028              		.loc 1 1319 13 is_stmt 1 view .LVU913
1319:MyHardWare/eMPL/inv_mpu_dmp_motion_driver.c ****         }
 3029              		.loc 1 1319 20 is_stmt 0 view .LVU914
 3030 00f8 4FF0FF39 		mov	r9, #-1
 3031 00fc 68E0     		b	.L183
 3032              	.LVL177:
 3033              	.L191:
1319:MyHardWare/eMPL/inv_mpu_dmp_motion_driver.c ****         }
 3034              		.loc 1 1319 20 view .LVU915
 3035              	.LBE5:
1274:MyHardWare/eMPL/inv_mpu_dmp_motion_driver.c **** 
 3036              		.loc 1 1274 19 view .LVU916
 3037 00fe 0022     		movs	r2, #0
 3038              	.LVL178:
 3039              	.L185:
1322:MyHardWare/eMPL/inv_mpu_dmp_motion_driver.c **** #endif
1323:MyHardWare/eMPL/inv_mpu_dmp_motion_driver.c ****     }
1324:MyHardWare/eMPL/inv_mpu_dmp_motion_driver.c **** 
1325:MyHardWare/eMPL/inv_mpu_dmp_motion_driver.c ****     if (dmp.feature_mask & DMP_FEATURE_SEND_RAW_ACCEL) {
 3040              		.loc 1 1325 5 is_stmt 1 view .LVU917
 3041              		.loc 1 1325 8 is_stmt 0 view .LVU918
 3042 0100 13F0400F 		tst	r3, #64
ARM GAS  /tmp/cckrZnTL.s 			page 91


 3043 0104 2DD0     		beq	.L187
1326:MyHardWare/eMPL/inv_mpu_dmp_motion_driver.c ****         accel[0] = ((short)fifo_data[ii+0] << 8) | fifo_data[ii+1];
 3044              		.loc 1 1326 9 is_stmt 1 view .LVU919
 3045              		.loc 1 1326 37 is_stmt 0 view .LVU920
 3046 0106 02F13001 		add	r1, r2, #48
 3047 010a 6944     		add	r1, sp, r1
 3048 010c 11F8200C 		ldrb	r0, [r1, #-32]	@ zero_extendqisi2
 3049              		.loc 1 1326 61 view .LVU921
 3050 0110 02F13101 		add	r1, r2, #49
 3051 0114 6944     		add	r1, sp, r1
 3052 0116 11F8201C 		ldrb	r1, [r1, #-32]	@ zero_extendqisi2
 3053              		.loc 1 1326 50 view .LVU922
 3054 011a 41EA0021 		orr	r1, r1, r0, lsl #8
 3055              		.loc 1 1326 18 view .LVU923
 3056 011e 3980     		strh	r1, [r7]	@ movhi
1327:MyHardWare/eMPL/inv_mpu_dmp_motion_driver.c ****         accel[1] = ((short)fifo_data[ii+2] << 8) | fifo_data[ii+3];
 3057              		.loc 1 1327 9 is_stmt 1 view .LVU924
 3058              		.loc 1 1327 37 is_stmt 0 view .LVU925
 3059 0120 02F13201 		add	r1, r2, #50
 3060 0124 6944     		add	r1, sp, r1
 3061 0126 11F8200C 		ldrb	r0, [r1, #-32]	@ zero_extendqisi2
 3062              		.loc 1 1327 61 view .LVU926
 3063 012a 02F13301 		add	r1, r2, #51
 3064 012e 6944     		add	r1, sp, r1
 3065 0130 11F8201C 		ldrb	r1, [r1, #-32]	@ zero_extendqisi2
 3066              		.loc 1 1327 50 view .LVU927
 3067 0134 41EA0021 		orr	r1, r1, r0, lsl #8
 3068              		.loc 1 1327 18 view .LVU928
 3069 0138 7980     		strh	r1, [r7, #2]	@ movhi
1328:MyHardWare/eMPL/inv_mpu_dmp_motion_driver.c ****         accel[2] = ((short)fifo_data[ii+4] << 8) | fifo_data[ii+5];
 3070              		.loc 1 1328 9 is_stmt 1 view .LVU929
 3071              		.loc 1 1328 37 is_stmt 0 view .LVU930
 3072 013a 02F13401 		add	r1, r2, #52
 3073 013e 6944     		add	r1, sp, r1
 3074 0140 11F8200C 		ldrb	r0, [r1, #-32]	@ zero_extendqisi2
 3075              		.loc 1 1328 61 view .LVU931
 3076 0144 02F13501 		add	r1, r2, #53
 3077 0148 6944     		add	r1, sp, r1
 3078 014a 11F8201C 		ldrb	r1, [r1, #-32]	@ zero_extendqisi2
 3079              		.loc 1 1328 50 view .LVU932
 3080 014e 41EA0021 		orr	r1, r1, r0, lsl #8
 3081              		.loc 1 1328 18 view .LVU933
 3082 0152 B980     		strh	r1, [r7, #4]	@ movhi
1329:MyHardWare/eMPL/inv_mpu_dmp_motion_driver.c ****         ii += 6;
 3083              		.loc 1 1329 9 is_stmt 1 view .LVU934
 3084              		.loc 1 1329 12 is_stmt 0 view .LVU935
 3085 0154 0632     		adds	r2, r2, #6
 3086              	.LVL179:
 3087              		.loc 1 1329 12 view .LVU936
 3088 0156 D2B2     		uxtb	r2, r2
 3089              	.LVL180:
1330:MyHardWare/eMPL/inv_mpu_dmp_motion_driver.c ****         sensors[0] |= INV_XYZ_ACCEL;
 3090              		.loc 1 1330 9 is_stmt 1 view .LVU937
 3091              		.loc 1 1330 16 is_stmt 0 view .LVU938
 3092 0158 B5F90010 		ldrsh	r1, [r5]
 3093              		.loc 1 1330 20 view .LVU939
 3094 015c 41F00801 		orr	r1, r1, #8
ARM GAS  /tmp/cckrZnTL.s 			page 92


 3095 0160 2980     		strh	r1, [r5]	@ movhi
 3096              	.L187:
1331:MyHardWare/eMPL/inv_mpu_dmp_motion_driver.c ****     }
1332:MyHardWare/eMPL/inv_mpu_dmp_motion_driver.c **** 
1333:MyHardWare/eMPL/inv_mpu_dmp_motion_driver.c ****     if (dmp.feature_mask & DMP_FEATURE_SEND_ANY_GYRO) {
 3097              		.loc 1 1333 5 is_stmt 1 view .LVU940
 3098              		.loc 1 1333 8 is_stmt 0 view .LVU941
 3099 0162 13F4C07F 		tst	r3, #384
 3100 0166 2DD0     		beq	.L188
1334:MyHardWare/eMPL/inv_mpu_dmp_motion_driver.c ****         gyro[0] = ((short)fifo_data[ii+0] << 8) | fifo_data[ii+1];
 3101              		.loc 1 1334 9 is_stmt 1 view .LVU942
 3102              		.loc 1 1334 36 is_stmt 0 view .LVU943
 3103 0168 02F13001 		add	r1, r2, #48
 3104 016c 6944     		add	r1, sp, r1
 3105 016e 11F8200C 		ldrb	r0, [r1, #-32]	@ zero_extendqisi2
 3106              		.loc 1 1334 60 view .LVU944
 3107 0172 02F13101 		add	r1, r2, #49
 3108 0176 6944     		add	r1, sp, r1
 3109 0178 11F8201C 		ldrb	r1, [r1, #-32]	@ zero_extendqisi2
 3110              		.loc 1 1334 49 view .LVU945
 3111 017c 41EA0021 		orr	r1, r1, r0, lsl #8
 3112              		.loc 1 1334 17 view .LVU946
 3113 0180 3180     		strh	r1, [r6]	@ movhi
1335:MyHardWare/eMPL/inv_mpu_dmp_motion_driver.c ****         gyro[1] = ((short)fifo_data[ii+2] << 8) | fifo_data[ii+3];
 3114              		.loc 1 1335 9 is_stmt 1 view .LVU947
 3115              		.loc 1 1335 36 is_stmt 0 view .LVU948
 3116 0182 02F13201 		add	r1, r2, #50
 3117 0186 6944     		add	r1, sp, r1
 3118 0188 11F8200C 		ldrb	r0, [r1, #-32]	@ zero_extendqisi2
 3119              		.loc 1 1335 60 view .LVU949
 3120 018c 02F13301 		add	r1, r2, #51
 3121 0190 6944     		add	r1, sp, r1
 3122 0192 11F8201C 		ldrb	r1, [r1, #-32]	@ zero_extendqisi2
 3123              		.loc 1 1335 49 view .LVU950
 3124 0196 41EA0021 		orr	r1, r1, r0, lsl #8
 3125              		.loc 1 1335 17 view .LVU951
 3126 019a 7180     		strh	r1, [r6, #2]	@ movhi
1336:MyHardWare/eMPL/inv_mpu_dmp_motion_driver.c ****         gyro[2] = ((short)fifo_data[ii+4] << 8) | fifo_data[ii+5];
 3127              		.loc 1 1336 9 is_stmt 1 view .LVU952
 3128              		.loc 1 1336 36 is_stmt 0 view .LVU953
 3129 019c 02F13401 		add	r1, r2, #52
 3130 01a0 6944     		add	r1, sp, r1
 3131 01a2 11F8200C 		ldrb	r0, [r1, #-32]	@ zero_extendqisi2
 3132              		.loc 1 1336 60 view .LVU954
 3133 01a6 02F13501 		add	r1, r2, #53
 3134 01aa 6944     		add	r1, sp, r1
 3135 01ac 11F8201C 		ldrb	r1, [r1, #-32]	@ zero_extendqisi2
 3136              		.loc 1 1336 49 view .LVU955
 3137 01b0 41EA0021 		orr	r1, r1, r0, lsl #8
 3138              		.loc 1 1336 17 view .LVU956
 3139 01b4 B180     		strh	r1, [r6, #4]	@ movhi
1337:MyHardWare/eMPL/inv_mpu_dmp_motion_driver.c ****         ii += 6;
 3140              		.loc 1 1337 9 is_stmt 1 view .LVU957
 3141              		.loc 1 1337 12 is_stmt 0 view .LVU958
 3142 01b6 0632     		adds	r2, r2, #6
 3143              	.LVL181:
 3144              		.loc 1 1337 12 view .LVU959
ARM GAS  /tmp/cckrZnTL.s 			page 93


 3145 01b8 D2B2     		uxtb	r2, r2
 3146              	.LVL182:
1338:MyHardWare/eMPL/inv_mpu_dmp_motion_driver.c ****         sensors[0] |= INV_XYZ_GYRO;
 3147              		.loc 1 1338 9 is_stmt 1 view .LVU960
 3148              		.loc 1 1338 16 is_stmt 0 view .LVU961
 3149 01ba B5F90010 		ldrsh	r1, [r5]
 3150              		.loc 1 1338 20 view .LVU962
 3151 01be 41F07001 		orr	r1, r1, #112
 3152 01c2 2980     		strh	r1, [r5]	@ movhi
 3153              	.L188:
1339:MyHardWare/eMPL/inv_mpu_dmp_motion_driver.c ****     }
1340:MyHardWare/eMPL/inv_mpu_dmp_motion_driver.c **** 
1341:MyHardWare/eMPL/inv_mpu_dmp_motion_driver.c ****     /* Gesture data is at the end of the DMP packet. Parse it and call
1342:MyHardWare/eMPL/inv_mpu_dmp_motion_driver.c ****      * the gesture callbacks (if registered).
1343:MyHardWare/eMPL/inv_mpu_dmp_motion_driver.c ****      */
1344:MyHardWare/eMPL/inv_mpu_dmp_motion_driver.c ****     if (dmp.feature_mask & (DMP_FEATURE_TAP | DMP_FEATURE_ANDROID_ORIENT))
 3154              		.loc 1 1344 5 is_stmt 1 view .LVU963
 3155              		.loc 1 1344 8 is_stmt 0 view .LVU964
 3156 01c4 13F0030F 		tst	r3, #3
 3157 01c8 06D1     		bne	.L194
 3158              	.LVL183:
 3159              	.L189:
1345:MyHardWare/eMPL/inv_mpu_dmp_motion_driver.c ****         decode_gesture(fifo_data + ii);
1346:MyHardWare/eMPL/inv_mpu_dmp_motion_driver.c **** 
1347:MyHardWare/eMPL/inv_mpu_dmp_motion_driver.c ****     get_ms(timestamp);
 3160              		.loc 1 1347 5 is_stmt 1 view .LVU965
 3161 01ca 4046     		mov	r0, r8
 3162 01cc FFF7FEFF 		bl	mget_ms
 3163              	.LVL184:
1348:MyHardWare/eMPL/inv_mpu_dmp_motion_driver.c ****     return 0;
 3164              		.loc 1 1348 5 view .LVU966
 3165              	.L183:
1349:MyHardWare/eMPL/inv_mpu_dmp_motion_driver.c **** }
 3166              		.loc 1 1349 1 is_stmt 0 view .LVU967
 3167 01d0 4846     		mov	r0, r9
 3168 01d2 0CB0     		add	sp, sp, #48
 3169              	.LCFI84:
 3170              		.cfi_remember_state
 3171              		.cfi_def_cfa_offset 32
 3172              		@ sp needed
 3173 01d4 BDE8F087 		pop	{r4, r5, r6, r7, r8, r9, r10, pc}
 3174              	.LVL185:
 3175              	.L194:
 3176              	.LCFI85:
 3177              		.cfi_restore_state
1345:MyHardWare/eMPL/inv_mpu_dmp_motion_driver.c ****         decode_gesture(fifo_data + ii);
 3178              		.loc 1 1345 9 is_stmt 1 view .LVU968
 3179 01d8 04AB     		add	r3, sp, #16
 3180 01da 9818     		adds	r0, r3, r2
 3181 01dc FFF7FEFF 		bl	decode_gesture
 3182              	.LVL186:
1345:MyHardWare/eMPL/inv_mpu_dmp_motion_driver.c ****         decode_gesture(fifo_data + ii);
 3183              		.loc 1 1345 9 is_stmt 0 view .LVU969
 3184 01e0 F3E7     		b	.L189
 3185              	.LVL187:
 3186              	.L190:
1283:MyHardWare/eMPL/inv_mpu_dmp_motion_driver.c **** 
ARM GAS  /tmp/cckrZnTL.s 			page 94


 3187              		.loc 1 1283 16 view .LVU970
 3188 01e2 4FF0FF39 		mov	r9, #-1
 3189 01e6 F3E7     		b	.L183
 3190              	.L196:
 3191              		.align	2
 3192              	.L195:
 3193 01e8 00000000 		.word	dmp
 3194              		.cfi_endproc
 3195              	.LFE151:
 3197              		.section	.text.dmp_register_tap_cb,"ax",%progbits
 3198              		.align	1
 3199              		.global	dmp_register_tap_cb
 3200              		.syntax unified
 3201              		.thumb
 3202              		.thumb_func
 3204              	dmp_register_tap_cb:
 3205              	.LVL188:
 3206              	.LFB152:
1350:MyHardWare/eMPL/inv_mpu_dmp_motion_driver.c **** 
1351:MyHardWare/eMPL/inv_mpu_dmp_motion_driver.c **** /**
1352:MyHardWare/eMPL/inv_mpu_dmp_motion_driver.c ****  *  @brief      Register a function to be executed on a tap event.
1353:MyHardWare/eMPL/inv_mpu_dmp_motion_driver.c ****  *  The tap direction is represented by one of the following:
1354:MyHardWare/eMPL/inv_mpu_dmp_motion_driver.c ****  *  \n TAP_X_UP
1355:MyHardWare/eMPL/inv_mpu_dmp_motion_driver.c ****  *  \n TAP_X_DOWN
1356:MyHardWare/eMPL/inv_mpu_dmp_motion_driver.c ****  *  \n TAP_Y_UP
1357:MyHardWare/eMPL/inv_mpu_dmp_motion_driver.c ****  *  \n TAP_Y_DOWN
1358:MyHardWare/eMPL/inv_mpu_dmp_motion_driver.c ****  *  \n TAP_Z_UP
1359:MyHardWare/eMPL/inv_mpu_dmp_motion_driver.c ****  *  \n TAP_Z_DOWN
1360:MyHardWare/eMPL/inv_mpu_dmp_motion_driver.c ****  *  @param[in]  func    Callback function.
1361:MyHardWare/eMPL/inv_mpu_dmp_motion_driver.c ****  *  @return     0 if successful.
1362:MyHardWare/eMPL/inv_mpu_dmp_motion_driver.c ****  */
1363:MyHardWare/eMPL/inv_mpu_dmp_motion_driver.c **** int dmp_register_tap_cb(void (*func)(unsigned char, unsigned char))
1364:MyHardWare/eMPL/inv_mpu_dmp_motion_driver.c **** {
 3207              		.loc 1 1364 1 is_stmt 1 view -0
 3208              		.cfi_startproc
 3209              		@ args = 0, pretend = 0, frame = 0
 3210              		@ frame_needed = 0, uses_anonymous_args = 0
 3211              		@ link register save eliminated.
1365:MyHardWare/eMPL/inv_mpu_dmp_motion_driver.c ****     dmp.tap_cb = func;
 3212              		.loc 1 1365 5 view .LVU972
 3213              		.loc 1 1365 16 is_stmt 0 view .LVU973
 3214 0000 014B     		ldr	r3, .L198
 3215 0002 1860     		str	r0, [r3]
1366:MyHardWare/eMPL/inv_mpu_dmp_motion_driver.c ****     return 0;
 3216              		.loc 1 1366 5 is_stmt 1 view .LVU974
1367:MyHardWare/eMPL/inv_mpu_dmp_motion_driver.c **** }
 3217              		.loc 1 1367 1 is_stmt 0 view .LVU975
 3218 0004 0020     		movs	r0, #0
 3219              	.LVL189:
 3220              		.loc 1 1367 1 view .LVU976
 3221 0006 7047     		bx	lr
 3222              	.L199:
 3223              		.align	2
 3224              	.L198:
 3225 0008 00000000 		.word	dmp
 3226              		.cfi_endproc
 3227              	.LFE152:
ARM GAS  /tmp/cckrZnTL.s 			page 95


 3229              		.section	.text.dmp_register_android_orient_cb,"ax",%progbits
 3230              		.align	1
 3231              		.global	dmp_register_android_orient_cb
 3232              		.syntax unified
 3233              		.thumb
 3234              		.thumb_func
 3236              	dmp_register_android_orient_cb:
 3237              	.LVL190:
 3238              	.LFB153:
1368:MyHardWare/eMPL/inv_mpu_dmp_motion_driver.c **** 
1369:MyHardWare/eMPL/inv_mpu_dmp_motion_driver.c **** /**
1370:MyHardWare/eMPL/inv_mpu_dmp_motion_driver.c ****  *  @brief      Register a function to be executed on a android orientation event.
1371:MyHardWare/eMPL/inv_mpu_dmp_motion_driver.c ****  *  @param[in]  func    Callback function.
1372:MyHardWare/eMPL/inv_mpu_dmp_motion_driver.c ****  *  @return     0 if successful.
1373:MyHardWare/eMPL/inv_mpu_dmp_motion_driver.c ****  */
1374:MyHardWare/eMPL/inv_mpu_dmp_motion_driver.c **** int dmp_register_android_orient_cb(void (*func)(unsigned char))
1375:MyHardWare/eMPL/inv_mpu_dmp_motion_driver.c **** {
 3239              		.loc 1 1375 1 is_stmt 1 view -0
 3240              		.cfi_startproc
 3241              		@ args = 0, pretend = 0, frame = 0
 3242              		@ frame_needed = 0, uses_anonymous_args = 0
 3243              		@ link register save eliminated.
1376:MyHardWare/eMPL/inv_mpu_dmp_motion_driver.c ****     dmp.android_orient_cb = func;
 3244              		.loc 1 1376 5 view .LVU978
 3245              		.loc 1 1376 27 is_stmt 0 view .LVU979
 3246 0000 014B     		ldr	r3, .L201
 3247 0002 5860     		str	r0, [r3, #4]
1377:MyHardWare/eMPL/inv_mpu_dmp_motion_driver.c ****     return 0;
 3248              		.loc 1 1377 5 is_stmt 1 view .LVU980
1378:MyHardWare/eMPL/inv_mpu_dmp_motion_driver.c **** }
 3249              		.loc 1 1378 1 is_stmt 0 view .LVU981
 3250 0004 0020     		movs	r0, #0
 3251              	.LVL191:
 3252              		.loc 1 1378 1 view .LVU982
 3253 0006 7047     		bx	lr
 3254              	.L202:
 3255              		.align	2
 3256              	.L201:
 3257 0008 00000000 		.word	dmp
 3258              		.cfi_endproc
 3259              	.LFE153:
 3261              		.section	.bss.dmp,"aw",%nobits
 3262              		.align	2
 3265              	dmp:
 3266 0000 00000000 		.space	16
 3266      00000000 
 3266      00000000 
 3266      00000000 
 3267              		.section	.rodata.dmp_memory,"a"
 3268              		.align	2
 3271              	dmp_memory:
 3272 0000 00007000 		.ascii	"\000\000p\000\000\000\000$\000\000\000\002\000\003\000"
 3272      00000024 
 3272      00000002 
 3272      000300
 3273 000f 00006500 		.ascii	"\000\000e\000T\377\357\000\000\372\200\000\013\022\202"
 3273      54FFEF00 
ARM GAS  /tmp/cckrZnTL.s 			page 96


 3273      00FA8000 
 3273      0B1282
 3274 001e 0001030C 		.ascii	"\000\001\003\0140\303\016\214\214\351\024\325@\002\023"
 3274      30C30E8C 
 3274      8CE914D5 
 3274      400213
 3275 002d 710F8E38 		.ascii	"q\017\2168\203\370\2030\000\370\203%\216\370\2030\000"
 3275      83F88330 
 3275      00F88325 
 3275      8EF88330 
 3275      00
 3276 003e F883FFFF 		.ascii	"\370\203\377\377\377\377\017\376\251\326$\000\004\000"
 3276      FFFF0FFE 
 3276      A9D62400 
 3276      0400
 3277 004c 1A8279A1 		.ascii	"\032\202y\241\000\000\000<\377\377\000\000\000\020\000"
 3277      0000003C 
 3277      FFFF0000 
 3277      001000
 3278 005b 0038836F 		.ascii	"\0008\203o\242\000>\0030@\000\000\000\002\312\343\011"
 3278      A2003E03 
 3278      30400000 
 3278      0002CAE3 
 3278      09
 3279 006c 3E800000 		.ascii	">\200\000\000 \000\000\000\000\000\000\000@\000\000"
 3279      20000000 
 3279      00000000 
 3279      400000
 3280 007b 00600000 		.ascii	"\000`\000\000\000\000\014\000\000\000\014\030n\000\000"
 3280      00000C00 
 3280      00000C18 
 3280      6E0000
 3281 008a 06920A16 		.ascii	"\006\222\012\026\300\337\377\377\002V\375\214\323w\377"
 3281      C0DFFFFF 
 3281      0256FD8C 
 3281      D377FF
 3282 0099 E1C496E0 		.ascii	"\341\304\226\340\305\276\252\000\000\000\000\377\377"
 3282      C5BEAA00 
 3282      000000FF 
 3282      FF
 3283 00a6 0B2B0000 		.ascii	"\013+\000\000\026W\000\000\003Y@\000\000\000\000\000"
 3283      16570000 
 3283      03594000 
 3283      00000000 
 3284 00b6 1DFA0002 		.ascii	"\035\372\000\002l\035\000\000\000\000?\377\337\353\000"
 3284      6C1D0000 
 3284      00003FFF 
 3284      DFEB00
 3285 00c5 3EB3B600 		.ascii	">\263\266\000\015\"x\000\000/<\000\000\000\000\000\031"
 3285      0D227800 
 3285      002F3C00 
 3285      00000000 
 3285      19
 3286 00d6 42B50000 		.ascii	"B\265\000\0009\242\000\000\263e\331\016\237\311\035"
 3286      39A20000 
 3286      B365D90E 
 3286      9FC91D
ARM GAS  /tmp/cckrZnTL.s 			page 97


 3287 00e5 CF4C3430 		.ascii	"\317L40\000\000\000P\000\000\000;\266z\350\000d\000"
 3287      00000050 
 3287      0000003B 
 3287      B67AE800 
 3287      6400
 3288 00f7 0000C800 		.ascii	"\000\000\310\000\000\000\000\000\000\020\000\000\000"
 3288      00000000 
 3288      00100000 
 3288      00
 3289 0104 1000FA92 		.ascii	"\020\000\372\222\020\000\"^\000\015\"\237\000\001\000"
 3289      1000225E 
 3289      000D229F 
 3289      000100
 3290 0113 00003200 		.ascii	"\000\0002\000\000\377F\000\000c\324\000\000\020\000"
 3290      00FF4600 
 3290      0063D400 
 3290      001000
 3291 0122 000004D6 		.ascii	"\000\000\004\326\000\000\004\314\000\000\004\314\000"
 3291      000004CC 
 3291      000004CC 
 3291      00
 3292 012f 00000010 		.ascii	"\000\000\000\020r\000\000\000@\000\000\000\000\000\000"
 3292      72000000 
 3292      40000000 
 3292      000000
 3293 013e 00000006 		.ascii	"\000\000\000\006\000\002\000\005\000\007\000\000\000"
 3293      00020005 
 3293      00070000 
 3293      00
 3294 014b 00006400 		.ascii	"\000\000d\000\000\000\000\000\000\000\000\000\005\000"
 3294      00000000 
 3294      00000000 
 3294      0500
 3295 0159 05006400 		.ascii	"\005\000d\000 \000\000\000\000\000\000\000\000\000\000"
 3295      20000000 
 3295      00000000 
 3295      000000
 3296 0168 00004000 		.ascii	"\000\000@\000\000\000\003\000\000\000\0002\370\230\000"
 3296      00000300 
 3296      00000032 
 3296      F89800
 3297 0177 00FF6500 		.ascii	"\000\377e\000\000\203\017\000\000\377\233\374\000\000"
 3297      00830F00 
 3297      00FF9BFC 
 3297      0000
 3298 0185 00000000 		.ascii	"\000\000\000\000\000\000\000\000\000\000\000\000\000"
 3298      00000000 
 3298      00000000 
 3298      00
 3299 0192 00000000 		.ascii	"\000\000\000\000\000\000\000\000\000\000\000\000\000"
 3299      00000000 
 3299      00000000 
 3299      00
 3300 019f 00000000 		.ascii	"\000\000\000\000\000\000\000\000\000\000\000\000\000"
 3300      00000000 
 3300      00000000 
 3300      00
ARM GAS  /tmp/cckrZnTL.s 			page 98


 3301 01ac 00001000 		.ascii	"\000\000\020\000@\000\000\000\000\000\000\006\000\000"
 3301      40000000 
 3301      00000006 
 3301      0000
 3302 01ba B26A0002 		.ascii	"\262j\000\002\000\000\000\001\373\203\000h\000\000\000"
 3302      00000001 
 3302      FB830068 
 3302      000000
 3303 01c9 D9FC007C 		.ascii	"\331\374\000|\361\377\203\000\000\000\000\000e\000\000"
 3303      F1FF8300 
 3303      00000000 
 3303      650000
 3304 01d8 006403E8 		.ascii	"\000d\003\350\000d\000(\000\000\000%\000\000\000\000"
 3304      00640028 
 3304      00000025 
 3304      00000000 
 3305 01e8 16A00000 		.ascii	"\026\240\000\000\000\000\020\000\000\000\020\000\000"
 3305      00001000 
 3305      00001000 
 3305      00
 3306 01f5 2F000000 		.ascii	"/\000\000\000\000\001\364\000\000\020\000\000(\000\000"
 3306      0001F400 
 3306      00100000 
 3306      280000
 3307 0204 FFFF4581 		.ascii	"\377\377E\201\377\377\372r\000\000\000\000\000\000\000"
 3307      FFFFFA72 
 3307      00000000 
 3307      000000
 3308 0213 00004400 		.ascii	"\000\000D\000\005\000\005\272\306\000Gx\242\000\000"
 3308      050005BA 
 3308      C6004778 
 3308      A20000
 3309 0222 00010000 		.ascii	"\000\001\000\000\000\000\000\000\006\000\000\000\000"
 3309      00000000 
 3309      06000000 
 3309      00
 3310 022f 14000025 		.ascii	"\024\000\000%M\000/pm\000\000\005\256\000\014\002\320"
 3310      4D002F70 
 3310      6D000005 
 3310      AE000C02 
 3310      D0
 3311 0240 00000000 		.ascii	"\000\000\000\000\000\000\000\000\000\000\000\000\000"
 3311      00000000 
 3311      00000000 
 3311      00
 3312 024d 00000000 		.ascii	"\000\000\000\000\033\000\000\000\000\000\000\000\000"
 3312      1B000000 
 3312      00000000 
 3312      00
 3313 025a 00000000 		.ascii	"\000\000\000\000\000\000\000d\000\000\000\010\000\000"
 3313      00000064 
 3313      00000008 
 3313      0000
 3314 0268 00000000 		.ascii	"\000\000\000\000\000\000\000\000\000\000\000\000\000"
 3314      00000000 
 3314      00000000 
 3314      00
ARM GAS  /tmp/cckrZnTL.s 			page 99


 3315 0275 00000000 		.ascii	"\000\000\000\000\000\000\000\000\000\000\000\000\000"
 3315      00000000 
 3315      00000000 
 3315      00
 3316 0282 00000000 		.ascii	"\000\000\000\000\000\000\000\000\000\000\000\000\000"
 3316      00000000 
 3316      00000000 
 3316      00
 3317 028f 00000000 		.ascii	"\000\000\000\000\000\000\000\000\000\000\000\000\000"
 3317      00000000 
 3317      00000000 
 3317      00
 3318 029c 00000000 		.ascii	"\000\000\000\000\000\000\000\000\000\000\000\000\000"
 3318      00000000 
 3318      00000000 
 3318      00
 3319 02a9 00000000 		.ascii	"\000\000\000\000\000\000\000\000\000\000\000\000\000"
 3319      00000000 
 3319      00000000 
 3319      00
 3320 02b6 00000000 		.ascii	"\000\000\000\000\000\000\000\000\000\000\000\033\000"
 3320      00000000 
 3320      0000001B 
 3320      00
 3321 02c3 00000000 		.ascii	"\000\000\000\000\000\000\000\000\000\000\016\000\016"
 3321      00000000 
 3321      00000E00 
 3321      0E
 3322 02d0 00000AC7 		.ascii	"\000\000\012\307\000\004\000\000\000\000\0002\377\377"
 3322      00040000 
 3322      00000032 
 3322      FFFF
 3323 02de FF9C0000 		.ascii	"\377\234\000\000\013+\000\000\000\002\000\000\000\001"
 3323      0B2B0000 
 3323      00020000 
 3323      0001
 3324 02ec 00000064 		.ascii	"\000\000\000d\377\345\000\000\000\000\000\000\000\000"
 3324      FFE50000 
 3324      00000000 
 3324      0000
 3325 02fa 00000000 		.ascii	"\000\000\000\000\000\000\000\000\000\001\000\000\000"
 3325      00000000 
 3325      00010000 
 3325      00
 3326 0307 00000100 		.ascii	"\000\000\001\000\000\000\000\000\000\000\001\200\000"
 3326      00000000 
 3326      00000180 
 3326      00
 3327 0314 00018000 		.ascii	"\000\001\200\000\000\001\200\000\000$&\323\000\000\000"
 3327      00018000 
 3327      002426D3 
 3327      000000
 3328 0323 00000000 		.ascii	"\000\000\000\000\000\000\006\000\020\000\226\000<\000"
 3328      00000600 
 3328      10009600 
 3328      3C00
 3329 0331 00000000 		.ascii	"\000\000\000\000\000\000\000\000\000\000\000\000\000"
ARM GAS  /tmp/cckrZnTL.s 			page 100


 3329      00000000 
 3329      00000000 
 3329      00
 3330 033e 00000C0A 		.ascii	"\000\000\014\012Nh\315\317w\011P\026gY\306\031\316\202"
 3330      4E68CDCF 
 3330      77095016 
 3330      6759C619 
 3330      CE82
 3331 0350 00000000 		.ascii	"\000\000\000\000\000\000\000\000\000\000\000\000\000"
 3331      00000000 
 3331      00000000 
 3331      00
 3332 035d 00000000 		.ascii	"\000\000\000\000\000\000\000\000\000\000\000\027\327"
 3332      00000000 
 3332      00000017 
 3332      D7
 3333 036a 84000300 		.ascii	"\204\000\003\000\000\000\000\000\000\000\000\000\000"
 3333      00000000 
 3333      00000000 
 3333      00
 3334 0377 00C7938F 		.ascii	"\000\307\223\217\235\036\033\034\031\000\000\000\000"
 3334      9D1E1B1C 
 3334      19000000 
 3334      00
 3335 0384 00000000 		.ascii	"\000\000\000\000\000\000\000\000\000\000\000\000\000"
 3335      00000000 
 3335      00000000 
 3335      00
 3336 0391 00000000 		.ascii	"\000\000\000\000\000\000\000\002\003\030\205\000\000"
 3336      00000002 
 3336      03188500 
 3336      00
 3337 039e 40000000 		.ascii	"@\000\000\000\000\003\000\000\000\003\000\000\000\000"
 3337      00030000 
 3337      00030000 
 3337      0000
 3338 03ac 00000000 		.ascii	"\000\000\000\000@\000\000\000\000\000\000\000\000\000"
 3338      40000000 
 3338      00000000 
 3338      0000
 3339 03ba 00000000 		.ascii	"\000\000\000\000\000\000\000\000\000\000\000\000\000"
 3339      00000000 
 3339      00000000 
 3339      00
 3340 03c7 00000000 		.ascii	"\000\000\000\000\000\000\000\000\000\000\000\000\000"
 3340      00000000 
 3340      00000000 
 3340      00
 3341 03d4 00000000 		.ascii	"\000\000\000\000\000\000\000\000\000\000\000\000\000"
 3341      00000000 
 3341      00000000 
 3341      00
 3342 03e1 00000067 		.ascii	"\000\000\000g}\337~r\220.UL\366\346\210\000\000\000"
 3342      7DDF7E72 
 3342      902E554C 
 3342      F6E68800 
 3342      0000
ARM GAS  /tmp/cckrZnTL.s 			page 101


 3343 03f3 00000000 		.ascii	"\000\000\000\000\000\000\000\000\000\000\000\000\000"
 3343      00000000 
 3343      00000000 
 3343      00
 3344 0400 D8DCB4B8 		.ascii	"\330\334\264\270\260\330\271\253\363\370\372\263\267"
 3344      B0D8B9AB 
 3344      F3F8FAB3 
 3344      B7
 3345 040d BB8E9EAE 		.ascii	"\273\216\236\256\3612\365\033\361\264\270\260\200\227"
 3345      F132F51B 
 3345      F1B4B8B0 
 3345      8097
 3346 041b F1A9DFDF 		.ascii	"\361\251\337\337\337\252\337\337\337\362\252\305\315"
 3346      DFAADFDF 
 3346      DFF2AAC5 
 3346      CD
 3347 0428 C7A90CC9 		.ascii	"\307\251\014\311,\227\361\251\211&Ff\262\211\231\251"
 3347      2C97F1A9 
 3347      89264666 
 3347      B28999A9 
 3348 0438 2D557DB0 		.ascii	"-U}\260\260\212\250\2266Vv\361\272\243\264\262\200\300"
 3348      B08AA896 
 3348      365676F1 
 3348      BAA3B4B2 
 3348      80C0
 3349 044a B8A89711 		.ascii	"\270\250\227\021\262\203\230\272\243\360$\010D\020d"
 3349      B28398BA 
 3349      A3F02408 
 3349      441064
 3350 0459 18B2B9B4 		.ascii	"\030\262\271\264\230\203\361\243)U}\272\265\261\243"
 3350      9883F1A3 
 3350      29557DBA 
 3350      B5B1A3
 3351 0468 8393F000 		.ascii	"\203\223\360\000(P\365\262\266\252\203\223(T|\361\271"
 3351      2850F5B2 
 3351      B6AA8393 
 3351      28547CF1 
 3351      B9
 3352 0479 A3829361 		.ascii	"\243\202\223a\272\242\332\336\337\333\201\232\271\256"
 3352      BAA2DADE 
 3352      DFDB819A 
 3352      B9AE
 3353 0487 F5606870 		.ascii	"\365`hp\361\332\272\242\337\331\272\242\372\271\243"
 3353      F1DABAA2 
 3353      DFD9BAA2 
 3353      FAB9A3
 3354 0496 8292DB31 		.ascii	"\202\222\3331\272\242\331\272\242\370\337\205\244\320"
 3354      BAA2D9BA 
 3354      A2F8DF85 
 3354      A4D0
 3355 04a4 C1BBAD83 		.ascii	"\301\273\255\203\302\305\307\270\242\337\337\337\272"
 3355      C2C5C7B8 
 3355      A2DFDFDF 
 3355      BA
 3356 04b1 A0DFDFDF 		.ascii	"\240\337\337\337\330\330\361\270\252\263\215\264\230"
 3356      D8D8F1B8 
 3356      AAB38DB4 
ARM GAS  /tmp/cckrZnTL.s 			page 102


 3356      98
 3357 04be 0D355DB2 		.ascii	"\0155]\262\266\272\257\214\226\031\217\237\247\016\026"
 3357      B6BAAF8C 
 3357      96198F9F 
 3357      A70E16
 3358 04cd 1EB49AB8 		.ascii	"\036\264\232\270\252\207,T|\272\244\260\212\266\221"
 3358      AA872C54 
 3358      7CBAA4B0 
 3358      8AB691
 3359 04dc 325676B2 		.ascii	"2Vv\262\204\224\244\310\010\315\330\270\264\260\361"
 3359      8494A4C8 
 3359      08CDD8B8 
 3359      B4B0F1
 3360 04eb 9982A82D 		.ascii	"\231\202\250-U}\230\250\016\026\036\242,T|\222\244\360"
 3360      557D98A8 
 3360      0E161EA2 
 3360      2C547C92 
 3360      A4F0
 3361 04fd 2C5078F1 		.ascii	",Px\361\204\250\230\304\315\374\330\015\333\250\374"
 3361      84A898C4 
 3361      CDFCD80D 
 3361      DBA8FC
 3362 050c 2DF3D9BA 		.ascii	"-\363\331\272\246\370\332\272\246\336\330\272\262\266"
 3362      A6F8DABA 
 3362      A6DED8BA 
 3362      B2B6
 3363 051a 8696A6D0 		.ascii	"\206\226\246\320\363\310A\332\246\310\370\330\260\264"
 3363      F3C841DA 
 3363      A6C8F8D8 
 3363      B0B4
 3364 0528 B882A892 		.ascii	"\270\202\250\222\365,T\210\230\3615\331\364\030\330"
 3364      F52C5488 
 3364      98F135D9 
 3364      F418D8
 3365 0537 F1A2D0F8 		.ascii	"\361\242\320\370\371\250\204\331\307\337\370\370\203"
 3365      F9A884D9 
 3365      C7DFF8F8 
 3365      83
 3366 0544 C5DADF69 		.ascii	"\305\332\337i\337\203\301\330\364\001\024\361\250\202"
 3366      DF83C1D8 
 3366      F40114F1 
 3366      A882
 3367 0552 4EA884F3 		.ascii	"N\250\204\363\021\321\202\365\331\222(\227\210\361\011"
 3367      11D182F5 
 3367      D9922897 
 3367      88F109
 3368 0561 F41C1CD8 		.ascii	"\364\034\034\330\204\250\363\300\371\321\331\227\202"
 3368      84A8F3C0 
 3368      F9D1D997 
 3368      82
 3369 056e F129F40D 		.ascii	"\361)\364\015\330\363\371\371\321\331\202\364\302\003"
 3369      D8F3F9F9 
 3369      D1D982F4 
 3369      C203
 3370 057c D8DEDF1A 		.ascii	"\330\336\337\032\330\361\242\372\371\250\204\230\331"
 3370      D8F1A2FA 
 3370      F9A88498 
ARM GAS  /tmp/cckrZnTL.s 			page 103


 3370      D9
 3371 0589 C7DFF8F8 		.ascii	"\307\337\370\370\370\203\307\332\337i\337\370\203\303"
 3371      F883C7DA 
 3371      DF69DFF8 
 3371      83C3
 3372 0597 D8F40114 		.ascii	"\330\364\001\024\361\230\250\202.\250\204\363\021\321"
 3372      F198A882 
 3372      2EA884F3 
 3372      11D1
 3373 05a5 82F5D992 		.ascii	"\202\365\331\222P\227\210\361\011\364\034\330\204\250"
 3373      509788F1 
 3373      09F41CD8 
 3373      84A8
 3374 05b3 F3C0F8F9 		.ascii	"\363\300\370\371\321\331\227\202\361I\364\015\330\363"
 3374      D1D99782 
 3374      F149F40D 
 3374      D8F3
 3375 05c1 F9F9D1D9 		.ascii	"\371\371\321\331\202\364\304\003\330\336\337\330\361"
 3375      82F4C403 
 3375      D8DEDFD8 
 3375      F1
 3376 05ce AD8898CC 		.ascii	"\255\210\230\314\250\011\371\331\202\222\250\365|\361"
 3376      A809F9D9 
 3376      8292A8F5 
 3376      7CF1
 3377 05dc 883ACF94 		.ascii	"\210:\317\224Jn\230\333i1\332\255\362\336\371\330\207"
 3377      4A6E98DB 
 3377      6931DAAD 
 3377      F2DEF9D8 
 3377      87
 3378 05ed 95A8F221 		.ascii	"\225\250\362!\321\332\245\371\364\027\331\361\256\216"
 3378      D1DAA5F9 
 3378      F417D9F1 
 3378      AE8E
 3379 05fb D0C0C3AE 		.ascii	"\320\300\303\256\202\306\204\303\250\205\225\310\245"
 3379      82C684C3 
 3379      A88595C8 
 3379      A5
 3380 0608 88F2C0F1 		.ascii	"\210\362\300\361\364\001\016\361\216\236\250\306>V\365"
 3380      F4010EF1 
 3380      8E9EA8C6 
 3380      3E56F5
 3381 0617 54F18872 		.ascii	"T\361\210r\364\001\025\361\230E\205n\365\216\236\004"
 3381      F40115F1 
 3381      9845856E 
 3381      F58E9E04 
 3382 0627 88F14298 		.ascii	"\210\361B\230Z\216\236\006\210i\364\001\034\361\230"
 3382      5A8E9E06 
 3382      8869F401 
 3382      1CF198
 3383 0636 1E1108D0 		.ascii	"\036\021\010\320\365\004\361\036\227\002\002\2306%\333"
 3383      F504F11E 
 3383      97020298 
 3383      3625DB
 3384 0645 F9D985A5 		.ascii	"\371\331\205\245\363\301\332\205\245\363\337\330\205"
 3384      F3C1DA85 
 3384      A5F3DFD8 
ARM GAS  /tmp/cckrZnTL.s 			page 104


 3384      85
 3385 0652 95A8F309 		.ascii	"\225\250\363\011\332\245\372\330\202\222\250\365x\361"
 3385      DAA5FAD8 
 3385      8292A8F5 
 3385      78F1
 3386 0660 881A849F 		.ascii	"\210\032\204\237&\210\230!\332\364\035\363\330\207\237"
 3386      26889821 
 3386      DAF41DF3 
 3386      D8879F
 3387 066f 39D1AFD9 		.ascii	"9\321\257\331\337\337\373\371\364\014\363\330\372\320"
 3387      DFDFFBF9 
 3387      F40CF3D8 
 3387      FAD0
 3388 067d F8DAF9F9 		.ascii	"\370\332\371\371\320\337\331\371\330\364\013\330\363"
 3388      D0DFD9F9 
 3388      D8F40BD8 
 3388      F3
 3389 068a 879F39D1 		.ascii	"\207\2379\321\257\331\337\337\364\035\363\330\372\374"
 3389      AFD9DFDF 
 3389      F41DF3D8 
 3389      FAFC
 3390 0698 A869F9F9 		.ascii	"\250i\371\371\257\320\332\336\372\331\370\217\237\250"
 3390      AFD0DADE 
 3390      FAD9F88F 
 3390      9FA8
 3391 06a6 F1CCF398 		.ascii	"\361\314\363\230\333E\331\257\337\320\370\330\361\217"
 3391      DB45D9AF 
 3391      DFD0F8D8 
 3391      F18F
 3392 06b4 9FA8CAF3 		.ascii	"\237\250\312\363\210\011\332\257\217\313\370\330\362"
 3392      8809DAAF 
 3392      8FCBF8D8 
 3392      F2
 3393 06c1 AD978D0C 		.ascii	"\255\227\215\014\331\245\337\371\272\246\363\372\364"
 3393      D9A5DFF9 
 3393      BAA6F3FA 
 3393      F4
 3394 06ce 12F2D895 		.ascii	"\022\362\330\225\015\321\331\272\246\363\372\332\245"
 3394      0DD1D9BA 
 3394      A6F3FADA 
 3394      A5
 3395 06db F2C1BAA6 		.ascii	"\362\301\272\246\363\337\330\361\272\262\266\206\226"
 3395      F3DFD8F1 
 3395      BAB2B686 
 3395      96
 3396 06e8 A6D0CAF3 		.ascii	"\246\320\312\363I\332\246\313\370\330\260\264\270\330"
 3396      49DAA6CB 
 3396      F8D8B0B4 
 3396      B8D8
 3397 06f6 AD84F2C0 		.ascii	"\255\204\362\300\337\361\217\313\303\250\262\266\206"
 3397      DFF18FCB 
 3397      C3A8B2B6 
 3397      86
 3398 0703 96C8C1CB 		.ascii	"\226\310\301\313\303\363\260\264\210\230\250!\333q\215"
 3398      C3F3B0B4 
 3398      8898A821 
 3398      DB718D
ARM GAS  /tmp/cckrZnTL.s 			page 105


 3399 0712 9D718595 		.ascii	"\235q\205\225!\331\255\362\372\330\205\227\250(\331"
 3399      21D9ADF2 
 3399      FAD88597 
 3399      A828D9
 3400 0721 F408D8F2 		.ascii	"\364\010\330\362\215)\332\364\005\331\362\205\244\302"
 3400      8D29DAF4 
 3400      05D9F285 
 3400      A4C2
 3401 072f F2D8A88D 		.ascii	"\362\330\250\215\224\001\321\331\364\021\362\330\207"
 3401      9401D1D9 
 3401      F411F2D8 
 3401      87
 3402 073c 21D8F40A 		.ascii	"!\330\364\012\330\362\204\230\250\310\001\321\331\364"
 3402      D8F28498 
 3402      A8C801D1 
 3402      D9F4
 3403 074a 11D8F3A4 		.ascii	"\021\330\363\244\310\273\257\320\362\336\370\370\370"
 3403      C8BBAFD0 
 3403      F2DEF8F8 
 3403      F8
 3404 0757 F8F8F8F8 		.ascii	"\370\370\370\370\370\330\361\270\366\265\271\260\212"
 3404      F8D8F1B8 
 3404      F6B5B9B0 
 3404      8A
 3405 0764 95A3DE3C 		.ascii	"\225\243\336<\243\331\370\330\\\243\331\370\330|\243"
 3405      A3D9F8D8 
 3405      5CA3D9F8 
 3405      D87CA3
 3406 0773 D9F8D8F8 		.ascii	"\331\370\330\370\371\321\245\331\337\332\372\330\261"
 3406      F9D1A5D9 
 3406      DFDAFAD8 
 3406      B1
 3407 0780 8530F7D9 		.ascii	"\2050\367\331\336\330\3700\255\332\336\330\362\264\214"
 3407      DED8F830 
 3407      ADDADED8 
 3407      F2B48C
 3408 078f 99A32D55 		.ascii	"\231\243-U}\240\203\337\337\337\265\221\240\366)\331"
 3408      7DA083DF 
 3408      DFDFB591 
 3408      A0F629D9 
 3409 079f FBD8A0FC 		.ascii	"\373\330\240\374)\331\372\330\240\320Q\331\370\330\374"
 3409      29D9FAD8 
 3409      A0D051D9 
 3409      F8D8FC
 3410 07ae 51D9F9D8 		.ascii	"Q\331\371\330y\331\373\330\240\320\374y\331\372\330"
 3410      79D9FBD8 
 3410      A0D0FC79 
 3410      D9FAD8
 3411 07bd A1F9F9F9 		.ascii	"\241\371\371\371\371\371\240\332\337\337\337\330\241"
 3411      F9F9A0DA 
 3411      DFDFDFD8 
 3411      A1
 3412 07ca F8F8F8F8 		.ascii	"\370\370\370\370\370\254"
 3412      F8AC
 3413 07d0 DEF8ADDE 		.ascii	"\336\370\255\336\203\223\254,T|\361\250\337\337\337"
 3413      8393AC2C 
 3413      547CF1A8 
ARM GAS  /tmp/cckrZnTL.s 			page 106


 3413      DFDFDF
 3414 07df F69D2CDA 		.ascii	"\366\235,\332\240\337\331\372\333-\370\330\250P\332"
 3414      A0DFD9FA 
 3414      DB2DF8D8 
 3414      A850DA
 3415 07ee A0D0DED9 		.ascii	"\240\320\336\331\320\370\370\370\333U\370\330\250x\332"
 3415      D0F8F8F8 
 3415      DB55F8D8 
 3415      A878DA
 3416 07fd A0D0DFD9 		.ascii	"\240\320\337\331\320\372\370\370\370\370\333}\370\330"
 3416      D0FAF8F8 
 3416      F8F8DB7D 
 3416      F8D8
 3417 080b 9CA88CF5 		.ascii	"\234\250\214\3650\3338\331\320\336\337\240\320\336\337"
 3417      30DB38D9 
 3417      D0DEDFA0 
 3417      D0DEDF
 3418 081a D8A848DB 		.ascii	"\330\250H\333X\331\337\320\336\240\337\320\336\330\250"
 3418      58D9DFD0 
 3418      DEA0DFD0 
 3418      DED8A8
 3419 0829 68DB70D9 		.ascii	"h\333p\331\337\337\240\337\337\330\361\250\210\220,"
 3419      DFDFA0DF 
 3419      DFD8F1A8 
 3419      88902C
 3420 0838 547C98A8 		.ascii	"T|\230\250\320\\8\321\332\362\256\214\337\371\330\260"
 3420      D05C38D1 
 3420      DAF2AE8C 
 3420      DFF9D8B0 
 3421 0848 87A8C1C1 		.ascii	"\207\250\301\301\261\210\250\306\371\371\3326\330\250"
 3421      B188A8C6 
 3421      F9F9DA36 
 3421      D8A8
 3422 0856 F9DA36D8 		.ascii	"\371\3326\330\250\371\3326\330\250\371\3326\330\250"
 3422      A8F9DA36 
 3422      D8A8F9DA 
 3422      36D8A8
 3423 0865 F9DA36D8 		.ascii	"\371\3326\330\367\215\235\255\370\030\332\362\256\337"
 3423      F78D9DAD 
 3423      F818DAF2 
 3423      AEDF
 3424 0873 D8F7ADFA 		.ascii	"\330\367\255\3720\331\244\336\371\330\362\256\336\372"
 3424      30D9A4DE 
 3424      F9D8F2AE 
 3424      DEFA
 3425 0881 F983A7D9 		.ascii	"\371\203\247\331\303\305\307\361\210\233\247z\255\367"
 3425      C3C5C7F1 
 3425      889BA77A 
 3425      ADF7
 3426 088f DEDFA4F8 		.ascii	"\336\337\244\370\204\224\010\247\227\363\000\256\362"
 3426      849408A7 
 3426      97F300AE 
 3426      F2
 3427 089c 9819A488 		.ascii	"\230\031\244\210\306\243\224\210\3662\337\362\203\223"
 3427      C6A39488 
 3427      F632DFF2 
 3427      8393
ARM GAS  /tmp/cckrZnTL.s 			page 107


 3428 08aa DB09D9F2 		.ascii	"\333\011\331\362\252\337\330\330\256\370\371\321\332"
 3428      AADFD8D8 
 3428      AEF8F9D1 
 3428      DA
 3429 08b7 F3A4DEA7 		.ascii	"\363\244\336\247\361\210\233z\330\363\204\224\256\031"
 3429      F1889B7A 
 3429      D8F38494 
 3429      AE19
 3430 08c5 F9DAAAF1 		.ascii	"\371\332\252\361\337\330\250\201\300\303\305\307\243"
 3430      DFD8A881 
 3430      C0C3C5C7 
 3430      A3
 3431 08d2 9283F628 		.ascii	"\222\203\366(\255\336\331\370\330\243P\255\331\370\330"
 3431      ADDED9F8 
 3431      D8A350AD 
 3431      D9F8D8
 3432 08e1 A378ADD9 		.ascii	"\243x\255\331\370\330\370\371\321\241\332\336\303\305"
 3432      F8D8F8F9 
 3432      D1A1DADE 
 3432      C3C5
 3433 08ef C7D8A181 		.ascii	"\307\330\241\201\224\370\030\362\260\211\254\303\305"
 3433      94F818F2 
 3433      B089ACC3 
 3433      C5
 3434 08fc C7F1D8B8 		.ascii	"\307\361\330\270\264\260\227\206\2501\233\006\231\007"
 3434      B4B09786 
 3434      A8319B06 
 3434      9907
 3435 090a AB972888 		.ascii	"\253\227(\210\233\360\014 \024@\260\264\270\360\250"
 3435      9BF00C20 
 3435      1440B0B4 
 3435      B8F0A8
 3436 0919 8A9A2850 		.ascii	"\212\232(Px\267\233\250)Qy$pYDi8dH1\361\273\253\210"
 3436      78B79BA8 
 3436      29517924 
 3436      70594469 
 3436      38644831 
 3437 0931 002C547C 		.ascii	"\000,T|\360\263\213\270\250\004(Px\361\260\210\264\227"
 3437      F0B38BB8 
 3437      A8042850 
 3437      78F1B088 
 3437      B497
 3438 0943 26A85998 		.ascii	"&\250Y\230\273\253\263\213\002&Ff\260\270\360\212\234"
 3438      BBABB38B 
 3438      02264666 
 3438      B0B8F08A 
 3438      9C
 3439 0954 A8295179 		.ascii	"\250)Qy\213)Qy\212$pY\213 Xq\212Di8\2139@h\212dH1\213"
 3439      8B295179 
 3439      8A247059 
 3439      8B205871 
 3439      8A446938 
 3440 0971 30496088 		.ascii	"0I`\210\361\254\000,T|\360\214\250\004(Px\361\210\227"
 3440      F1AC002C 
 3440      547CF08C 
 3440      A8042850 
 3440      78F18897 
ARM GAS  /tmp/cckrZnTL.s 			page 108


 3441 0985 26A85998 		.ascii	"&\250Y\230\254\214\002&Ff\360\211\234\250)Qy$pYDi8d"
 3441      AC8C0226 
 3441      4666F089 
 3441      9CA82951 
 3441      79247059 
 3442 099d 4831A988 		.ascii	"H1\251\210\011 Yp\253\0218@i\250\0311H`\214\250<A\\"
 3442      09205970 
 3442      AB113840 
 3442      69A81931 
 3442      48608CA8 
 3443 09b4 207C00F1 		.ascii	" |\000\361\207\230\031\206\250nv~\251\231\210-U}\330"
 3443      87981986 
 3443      A86E767E 
 3443      A999882D 
 3443      557DD8
 3444 09c7 B1B5B9A3 		.ascii	"\261\265\271\243\337\337\337\256\320\337\252\320\336"
 3444      DFDFDFAE 
 3444      D0DFAAD0 
 3444      DE
 3445 09d4 F2ABF8F9 		.ascii	"\362\253\370\371\331\260\207\304\252\361\337\337\273"
 3445      D9B087C4 
 3445      AAF1DFDF 
 3445      BB
 3446 09e1 AFDFDFB9 		.ascii	"\257\337\337\271\330\261\361\243\227\216`\337\260\204"
 3446      D8B1F1A3 
 3446      978E60DF 
 3446      B084
 3447 09ef F2C8F8F9 		.ascii	"\362\310\370\371\331\336\330\223\205\361J\261\203\243"
 3447      D9DED893 
 3447      85F14AB1 
 3447      83A3
 3448 09fd 08B5839A 		.ascii	"\010\265\203\232\010\020\267\237\020\330\361\260\272"
 3448      0810B79F 
 3448      10D8F1B0 
 3448      BA
 3449 0a0a AEB08AC2 		.ascii	"\256\260\212\302\262\266\216\236\361\373\331\364\035"
 3449      B2B68E9E 
 3449      F1FBD9F4 
 3449      1D
 3450 0a17 D8F9D90C 		.ascii	"\330\371\331\014\361\330\370\370\255a\331\256\373\330"
 3450      F1D8F8F8 
 3450      AD61D9AE 
 3450      FBD8
 3451 0a25 F40CF1D8 		.ascii	"\364\014\361\330\370\370\255\031\331\256\373\337\330"
 3451      F8F8AD19 
 3451      D9AEFBDF 
 3451      D8
 3452 0a32 F416F1D8 		.ascii	"\364\026\361\330\370\255\215a\331\364\364\254\365\234"
 3452      F8AD8D61 
 3452      D9F4F4AC 
 3452      F59C
 3453 0a40 9C8DDF2B 		.ascii	"\234\215\337+\272\266\256\372\370\364\013\330\361\256"
 3453      BAB6AEFA 
 3453      F8F40BD8 
 3453      F1AE
 3454 0a4e D0F8AD51 		.ascii	"\320\370\255Q\332\256\372\370\361\330\271\261\266\243"
 3454      DAAEFAF8 
ARM GAS  /tmp/cckrZnTL.s 			page 109


 3454      F1D8B9B1 
 3454      B6A3
 3455 0a5c 839C08B9 		.ascii	"\203\234\010\271\261\203\232\265\252\300\3750\203\267"
 3455      B1839AB5 
 3455      AAC0FD30 
 3455      83B7
 3456 0a6a 9F10B58B 		.ascii	"\237\020\265\213\223\362\002\002\321\253\332\336\330"
 3456      93F20202 
 3456      D1ABDADE 
 3456      D8
 3457 0a77 F1B080BA 		.ascii	"\361\260\200\272\253\300\303\262\204\301\303\330\261"
 3457      ABC0C3B2 
 3457      84C1C3D8 
 3457      B1
 3458 0a84 B9F38BA3 		.ascii	"\271\363\213\243\221\266\011\264\331\253\336\260\207"
 3458      91B609B4 
 3458      D9ABDEB0 
 3458      87
 3459 0a91 9CB9A3DD 		.ascii	"\234\271\243\335\361\263\213\213\213\213\213\260\207"
 3459      F1B38B8B 
 3459      8B8B8BB0 
 3459      87
 3460 0a9e A3A3A3A3 		.ascii	"\243\243\243\243\262\213\266\233\362\243\243\243\243"
 3460      B28BB69B 
 3460      F2A3A3A3 
 3460      A3
 3461 0aab A3A3A3A3 		.ascii	"\243\243\243\243\243\243\361\260\207\265\232\243\363"
 3461      A3A3F1B0 
 3461      87B59AA3 
 3461      F3
 3462 0ab8 9BA3A3DC 		.ascii	"\233\243\243\334\272\254\337\271\243\243\243\243\243"
 3462      BAACDFB9 
 3462      A3A3A3A3 
 3462      A3
 3463 0ac5 A3A3A3A3 		.ascii	"\243\243\243\243\243\243\243\243\243\243\243\330\330"
 3463      A3A3A3A3 
 3463      A3A3A3D8 
 3463      D8
 3464 0ad2 D8BBB3B7 		.ascii	"\330\273\263\267\361\252\371\332\377\331\200\232\252"
 3464      F1AAF9DA 
 3464      FFD9809A 
 3464      AA
 3465 0adf 28B48098 		.ascii	"(\264\200\230\247 \267\227\207\250f\210\360yQ\361\220"
 3465      A720B797 
 3465      87A86688 
 3465      F07951F1 
 3465      90
 3466 0af0 2C870CA7 		.ascii	",\207\014\247\201\227b\223\360qq`\205\224\001)Qy\220"
 3466      81976293 
 3466      F0717160 
 3466      85940129 
 3466      517990
 3467 0b03 A5F1284C 		.ascii	"\245\361(Ll\207\014\225\030\205x\243\203\220(Ll\210"
 3467      6C870C95 
 3467      188578A3 
 3467      8390284C 
 3467      6C88
ARM GAS  /tmp/cckrZnTL.s 			page 110


 3468 0b15 6CD8F3A2 		.ascii	"l\330\363\242\202\000\362\020\250\222\031\200\242\362"
 3468      8200F210 
 3468      A8921980 
 3468      A2F2
 3469 0b23 D926D8F1 		.ascii	"\331&\330\361\210\250M\331H\330\226\2509\200\331<\330"
 3469      88A84DD9 
 3469      48D896A8 
 3469      3980D93C 
 3469      D8
 3470 0b34 9580A839 		.ascii	"\225\200\2509\246\206\230\331,\332\207\247,\330\250"
 3470      A68698D9 
 3470      2CDA87A7 
 3470      2CD8A8
 3471 0b43 899519A9 		.ascii	"\211\225\031\251\200\3318\330\250\2119\251\200\332<"
 3471      80D938D8 
 3471      A88939A9 
 3471      80DA3C
 3472 0b52 D8A82EA8 		.ascii	"\330\250.\2509\220\331\014\330\250\2251\230\331\014"
 3472      3990D90C 
 3472      D8A89531 
 3472      98D90C
 3473 0b61 D8A809D9 		.ascii	"\330\250\011\331\377\330\001\332\377\330\2259\251\332"
 3473      FFD801DA 
 3473      FFD89539 
 3473      A9DA
 3474 0b6f 26FFD890 		.ascii	"&\377\330\220\250\015\211\231\250\020\200\230!\332."
 3474      A80D8999 
 3474      A8108098 
 3474      21DA2E
 3475 0b7e D88999A8 		.ascii	"\330\211\231\2501\200\332.\330\250\206\2261\200\332"
 3475      3180DA2E 
 3475      D8A88696 
 3475      3180DA
 3476 0b8d 2ED8A887 		.ascii	".\330\250\2071\200\332.\330\250\202\222\363A\200\361"
 3476      3180DA2E 
 3476      D8A88292 
 3476      F34180F1 
 3477 0b9d D92ED8A8 		.ascii	"\331.\330\250\202\363\031\200\361\331.\330\202\254\363"
 3477      82F31980 
 3477      F1D92ED8 
 3477      82ACF3
 3478 0bac C0A28022 		.ascii	"\300\242\200\"\361\246.\247.\251\"\230\250)\332\254"
 3478      F1A62EA7 
 3478      2EA92298 
 3478      A829DAAC 
 3479 0bbc DEFFD8A2 		.ascii	"\336\377\330\242\362*\361\251.\202\222\250\3621\200"
 3479      F22AF1A9 
 3479      2E8292A8 
 3479      F23180
 3480 0bcb A696F1D9 		.ascii	"\246\226\361\331\000\254\214\234\0140\254\336\320\336"
 3480      00AC8C9C 
 3480      0C30ACDE 
 3480      D0DE
 3481 0bd9 FFD88C9C 		.ascii	"\377\330\214\234\254\320\020\254\336\200\222\242\362"
 3481      ACD010AC 
 3481      DE8092A2 
 3481      F2
ARM GAS  /tmp/cckrZnTL.s 			page 111


 3482 0be6 4C82A8F1 		.ascii	"L\202\250\361\312\3625\361\226\210\246\331\000\330\361"
 3482      CAF235F1 
 3482      9688A6D9 
 3482      00D8F1
 3483 0bf5 FF       		.ascii	"\377"
 3484              		.text
 3485              	.Letext0:
 3486              		.file 2 "MyHardWare/eMPL/inv_mpu.h"
 3487              		.file 3 "/usr/include/newlib/string.h"
 3488              		.file 4 "/usr/lib/gcc/arm-none-eabi/13.2.1/include/stddef.h"
ARM GAS  /tmp/cckrZnTL.s 			page 112


DEFINED SYMBOLS
                            *ABS*:00000000 inv_mpu_dmp_motion_driver.c
     /tmp/cckrZnTL.s:21     .text.decode_gesture:00000000 $t
     /tmp/cckrZnTL.s:26     .text.decode_gesture:00000000 decode_gesture
     /tmp/cckrZnTL.s:106    .text.decode_gesture:00000038 $d
     /tmp/cckrZnTL.s:3265   .bss.dmp:00000000 dmp
     /tmp/cckrZnTL.s:111    .text.dmp_load_motion_driver_firmware:00000000 $t
     /tmp/cckrZnTL.s:117    .text.dmp_load_motion_driver_firmware:00000000 dmp_load_motion_driver_firmware
     /tmp/cckrZnTL.s:141    .text.dmp_load_motion_driver_firmware:00000014 $d
     /tmp/cckrZnTL.s:3271   .rodata.dmp_memory:00000000 dmp_memory
     /tmp/cckrZnTL.s:146    .rodata.dmp_set_orientation.str1.4:00000000 $d
     /tmp/cckrZnTL.s:159    .text.dmp_set_orientation:00000000 $t
     /tmp/cckrZnTL.s:165    .text.dmp_set_orientation:00000000 dmp_set_orientation
     /tmp/cckrZnTL.s:376    .text.dmp_set_orientation:00000138 $d
     /tmp/cckrZnTL.s:385    .text.dmp_set_gyro_bias:00000000 $t
     /tmp/cckrZnTL.s:391    .text.dmp_set_gyro_bias:00000000 dmp_set_gyro_bias
     /tmp/cckrZnTL.s:603    .text.dmp_set_gyro_bias:00000108 $d
     /tmp/cckrZnTL.s:609    .text.dmp_set_accel_bias:00000000 $t
     /tmp/cckrZnTL.s:615    .text.dmp_set_accel_bias:00000000 dmp_set_accel_bias
     /tmp/cckrZnTL.s:809    .text.dmp_set_accel_bias:000000f0 $d
     /tmp/cckrZnTL.s:814    .rodata.dmp_set_fifo_rate.str1.4:00000000 $d
     /tmp/cckrZnTL.s:818    .text.dmp_set_fifo_rate:00000000 $t
     /tmp/cckrZnTL.s:824    .text.dmp_set_fifo_rate:00000000 dmp_set_fifo_rate
     /tmp/cckrZnTL.s:921    .text.dmp_set_fifo_rate:00000060 $d
     /tmp/cckrZnTL.s:927    .text.dmp_get_fifo_rate:00000000 $t
     /tmp/cckrZnTL.s:933    .text.dmp_get_fifo_rate:00000000 dmp_get_fifo_rate
     /tmp/cckrZnTL.s:956    .text.dmp_get_fifo_rate:0000000c $d
     /tmp/cckrZnTL.s:961    .text.dmp_set_tap_thresh:00000000 $t
     /tmp/cckrZnTL.s:967    .text.dmp_set_tap_thresh:00000000 dmp_set_tap_thresh
     /tmp/cckrZnTL.s:1020   .text.dmp_set_tap_thresh:00000042 $d
     /tmp/cckrZnTL.s:1293   .text.dmp_set_tap_thresh:000001b0 $d
     /tmp/cckrZnTL.s:1306   .text.dmp_set_tap_axes:00000000 $t
     /tmp/cckrZnTL.s:1312   .text.dmp_set_tap_axes:00000000 dmp_set_tap_axes
     /tmp/cckrZnTL.s:1379   .text.dmp_set_tap_count:00000000 $t
     /tmp/cckrZnTL.s:1385   .text.dmp_set_tap_count:00000000 dmp_set_tap_count
     /tmp/cckrZnTL.s:1440   .text.dmp_set_tap_time:00000000 $t
     /tmp/cckrZnTL.s:1446   .text.dmp_set_tap_time:00000000 dmp_set_tap_time
     /tmp/cckrZnTL.s:1495   .text.dmp_set_tap_time:0000002c $d
     /tmp/cckrZnTL.s:1500   .text.dmp_set_tap_time_multi:00000000 $t
     /tmp/cckrZnTL.s:1506   .text.dmp_set_tap_time_multi:00000000 dmp_set_tap_time_multi
     /tmp/cckrZnTL.s:1555   .text.dmp_set_tap_time_multi:0000002c $d
     /tmp/cckrZnTL.s:1560   .text.dmp_set_shake_reject_thresh:00000000 $t
     /tmp/cckrZnTL.s:1566   .text.dmp_set_shake_reject_thresh:00000000 dmp_set_shake_reject_thresh
     /tmp/cckrZnTL.s:1631   .text.dmp_set_shake_reject_thresh:00000040 $d
     /tmp/cckrZnTL.s:1636   .text.dmp_set_shake_reject_time:00000000 $t
     /tmp/cckrZnTL.s:1642   .text.dmp_set_shake_reject_time:00000000 dmp_set_shake_reject_time
     /tmp/cckrZnTL.s:1689   .text.dmp_set_shake_reject_time:00000028 $d
     /tmp/cckrZnTL.s:1694   .text.dmp_set_shake_reject_timeout:00000000 $t
     /tmp/cckrZnTL.s:1700   .text.dmp_set_shake_reject_timeout:00000000 dmp_set_shake_reject_timeout
     /tmp/cckrZnTL.s:1747   .text.dmp_set_shake_reject_timeout:00000028 $d
     /tmp/cckrZnTL.s:1752   .text.dmp_get_pedometer_step_count:00000000 $t
     /tmp/cckrZnTL.s:1758   .text.dmp_get_pedometer_step_count:00000000 dmp_get_pedometer_step_count
     /tmp/cckrZnTL.s:1841   .text.dmp_set_pedometer_step_count:00000000 $t
     /tmp/cckrZnTL.s:1847   .text.dmp_set_pedometer_step_count:00000000 dmp_set_pedometer_step_count
     /tmp/cckrZnTL.s:1900   .text.dmp_get_pedometer_walk_time:00000000 $t
     /tmp/cckrZnTL.s:1906   .text.dmp_get_pedometer_walk_time:00000000 dmp_get_pedometer_walk_time
     /tmp/cckrZnTL.s:1992   .text.dmp_set_pedometer_walk_time:00000000 $t
ARM GAS  /tmp/cckrZnTL.s 			page 113


     /tmp/cckrZnTL.s:1998   .text.dmp_set_pedometer_walk_time:00000000 dmp_set_pedometer_walk_time
     /tmp/cckrZnTL.s:2056   .text.dmp_set_pedometer_walk_time:0000003c $d
     /tmp/cckrZnTL.s:2061   .text.dmp_get_enabled_features:00000000 $t
     /tmp/cckrZnTL.s:2067   .text.dmp_get_enabled_features:00000000 dmp_get_enabled_features
     /tmp/cckrZnTL.s:2090   .text.dmp_get_enabled_features:0000000c $d
     /tmp/cckrZnTL.s:2095   .rodata.dmp_enable_gyro_cal.str1.4:00000000 $d
     /tmp/cckrZnTL.s:2102   .text.dmp_enable_gyro_cal:00000000 $t
     /tmp/cckrZnTL.s:2108   .text.dmp_enable_gyro_cal:00000000 dmp_enable_gyro_cal
     /tmp/cckrZnTL.s:2177   .text.dmp_enable_gyro_cal:0000003c $d
     /tmp/cckrZnTL.s:2184   .text.dmp_enable_lp_quat:00000000 $t
     /tmp/cckrZnTL.s:2190   .text.dmp_enable_lp_quat:00000000 dmp_enable_lp_quat
     /tmp/cckrZnTL.s:2257   .text.dmp_enable_6x_lp_quat:00000000 $t
     /tmp/cckrZnTL.s:2263   .text.dmp_enable_6x_lp_quat:00000000 dmp_enable_6x_lp_quat
     /tmp/cckrZnTL.s:2330   .text.dmp_enable_feature:00000000 $t
     /tmp/cckrZnTL.s:2336   .text.dmp_enable_feature:00000000 dmp_enable_feature
     /tmp/cckrZnTL.s:2727   .text.dmp_enable_feature:00000210 $d
     /tmp/cckrZnTL.s:2733   .rodata.dmp_set_interrupt_mode.str1.4:00000000 $d
     /tmp/cckrZnTL.s:2740   .text.dmp_set_interrupt_mode:00000000 $t
     /tmp/cckrZnTL.s:2746   .text.dmp_set_interrupt_mode:00000000 dmp_set_interrupt_mode
     /tmp/cckrZnTL.s:2820   .text.dmp_set_interrupt_mode:00000058 $d
     /tmp/cckrZnTL.s:2826   .text.dmp_read_fifo:00000000 $t
     /tmp/cckrZnTL.s:2832   .text.dmp_read_fifo:00000000 dmp_read_fifo
     /tmp/cckrZnTL.s:3193   .text.dmp_read_fifo:000001e8 $d
     /tmp/cckrZnTL.s:3198   .text.dmp_register_tap_cb:00000000 $t
     /tmp/cckrZnTL.s:3204   .text.dmp_register_tap_cb:00000000 dmp_register_tap_cb
     /tmp/cckrZnTL.s:3225   .text.dmp_register_tap_cb:00000008 $d
     /tmp/cckrZnTL.s:3230   .text.dmp_register_android_orient_cb:00000000 $t
     /tmp/cckrZnTL.s:3236   .text.dmp_register_android_orient_cb:00000000 dmp_register_android_orient_cb
     /tmp/cckrZnTL.s:3257   .text.dmp_register_android_orient_cb:00000008 $d
     /tmp/cckrZnTL.s:3262   .bss.dmp:00000000 $d
     /tmp/cckrZnTL.s:3268   .rodata.dmp_memory:00000000 $d
     /tmp/cckrZnTL.s:1035   .text.dmp_set_tap_thresh:00000051 $d
     /tmp/cckrZnTL.s:1035   .text.dmp_set_tap_thresh:00000052 $t

UNDEFINED SYMBOLS
mpu_load_firmware
mpu_write_mem
mpu_get_accel_sens
mpu_get_accel_fsr
mpu_read_mem
mpu_reset_fifo
mpu_read_fifo_stream
mget_ms
