ARM GAS  C:\Users\asus\AppData\Local\Temp\ccCY7esU.s 			page 1


   1              		.cpu cortex-m4
   2              		.arch armv7e-m
   3              		.fpu fpv4-sp-d16
   4              		.eabi_attribute 27, 1
   5              		.eabi_attribute 28, 1
   6              		.eabi_attribute 20, 1
   7              		.eabi_attribute 21, 1
   8              		.eabi_attribute 23, 3
   9              		.eabi_attribute 24, 1
  10              		.eabi_attribute 25, 1
  11              		.eabi_attribute 26, 1
  12              		.eabi_attribute 30, 1
  13              		.eabi_attribute 34, 1
  14              		.eabi_attribute 18, 4
  15              		.file	"jy61p.c"
  16              		.text
  17              	.Ltext0:
  18              		.cfi_sections	.debug_frame
  19              		.file 1 "MyHardWare/Src/jy61p.c"
  20              		.section	.text.JY61p_IIC_Init,"ax",%progbits
  21              		.align	1
  22              		.global	JY61p_IIC_Init
  23              		.syntax unified
  24              		.thumb
  25              		.thumb_func
  27              	JY61p_IIC_Init:
  28              	.LFB124:
   1:MyHardWare/Src/jy61p.c **** #include "jy61p.h"
   2:MyHardWare/Src/jy61p.c **** #include "delay.h"
   3:MyHardWare/Src/jy61p.c **** #include "myiic.h"
   4:MyHardWare/Src/jy61p.c **** 
   5:MyHardWare/Src/jy61p.c **** #define delay_3us() Delay_us(1)
   6:MyHardWare/Src/jy61p.c **** 
   7:MyHardWare/Src/jy61p.c **** #define JY61p_IIC_SDA_IO_IN()                                                  \
   8:MyHardWare/Src/jy61p.c ****   { GPIOB->MODER &= ~(0x03 << 2 * 9); } // 设置JY61p_W_SDA为输入模式
   9:MyHardWare/Src/jy61p.c **** #define JY61p_IIC_SDA_IO_OUT()                                                 \
  10:MyHardWare/Src/jy61p.c ****   { GPIOB->MODER |= (0x01 << 2 * 9); } // 设置JY61p_W_SDA为输出模式
  11:MyHardWare/Src/jy61p.c **** 
  12:MyHardWare/Src/jy61p.c **** #define JY61p_W_SCL(BIT) GPIO_WriteBit(GPIOB, GPIO_Pin_8, (BitAction)BIT)
  13:MyHardWare/Src/jy61p.c **** #define JY61p_W_SDA(BIT) GPIO_WriteBit(GPIOB, GPIO_Pin_9, (BitAction)BIT)
  14:MyHardWare/Src/jy61p.c **** #define JY61p_R_SDA() GPIO_ReadInputDataBit(GPIOB, GPIO_Pin_9)
  15:MyHardWare/Src/jy61p.c **** 
  16:MyHardWare/Src/jy61p.c **** u8 JY61p_AngleData[9]; // 8位角度原始数据 1位完成位
  17:MyHardWare/Src/jy61p.c **** 
  18:MyHardWare/Src/jy61p.c **** void JY61p_Init(void) {
  19:MyHardWare/Src/jy61p.c ****   JY61p_IIC_Init();
  20:MyHardWare/Src/jy61p.c ****   u16 i = 0;
  21:MyHardWare/Src/jy61p.c ****   // 检测 JY61p 是否存在
  22:MyHardWare/Src/jy61p.c ****   while (JY61p_Check() && i > 1000) {
  23:MyHardWare/Src/jy61p.c ****     i++;
  24:MyHardWare/Src/jy61p.c ****     delay_ms(1);
  25:MyHardWare/Src/jy61p.c ****   }
  26:MyHardWare/Src/jy61p.c **** }
  27:MyHardWare/Src/jy61p.c **** 
  28:MyHardWare/Src/jy61p.c **** #include "delay.h"
  29:MyHardWare/Src/jy61p.c **** #include "jy61p.h"
  30:MyHardWare/Src/jy61p.c **** #include "myiic.h"
ARM GAS  C:\Users\asus\AppData\Local\Temp\ccCY7esU.s 			page 2


  31:MyHardWare/Src/jy61p.c **** 
  32:MyHardWare/Src/jy61p.c **** /***********************************************************
  33:MyHardWare/Src/jy61p.c ****  *@fuction	: JY61p_IIC_Init
  34:MyHardWare/Src/jy61p.c ****  *@brief		: JY61p 的软件 iic 的 gpio 初始化
  35:MyHardWare/Src/jy61p.c ****  *@param		: None
  36:MyHardWare/Src/jy61p.c ****  *@return	: None
  37:MyHardWare/Src/jy61p.c ****  *@author	: HongScholar
  38:MyHardWare/Src/jy61p.c ****  *@date		: 2025.04.02
  39:MyHardWare/Src/jy61p.c ****  ***********************************************************/
  40:MyHardWare/Src/jy61p.c **** void JY61p_IIC_Init(void) { IIC_Init(); }
  29              		.loc 1 40 27 view -0
  30              		.cfi_startproc
  31              		@ args = 0, pretend = 0, frame = 0
  32              		@ frame_needed = 0, uses_anonymous_args = 0
  33 0000 08B5     		push	{r3, lr}
  34              	.LCFI0:
  35              		.cfi_def_cfa_offset 8
  36              		.cfi_offset 3, -8
  37              		.cfi_offset 14, -4
  38              		.loc 1 40 29 view .LVU1
  39 0002 FFF7FEFF 		bl	IIC_Init
  40              	.LVL0:
  41              		.loc 1 40 41 is_stmt 0 view .LVU2
  42 0006 08BD     		pop	{r3, pc}
  43              		.cfi_endproc
  44              	.LFE124:
  46              		.section	.text.JY61p_IIC_Start,"ax",%progbits
  47              		.align	1
  48              		.global	JY61p_IIC_Start
  49              		.syntax unified
  50              		.thumb
  51              		.thumb_func
  53              	JY61p_IIC_Start:
  54              	.LFB125:
  41:MyHardWare/Src/jy61p.c **** 
  42:MyHardWare/Src/jy61p.c **** // ... existing code ...
  43:MyHardWare/Src/jy61p.c **** 
  44:MyHardWare/Src/jy61p.c **** /***********************************************************
  45:MyHardWare/Src/jy61p.c ****  *@fuction	: JY61p_IIC_Start
  46:MyHardWare/Src/jy61p.c ****  *@brief		: 产生 MPU6050_IIC 起始信号
  47:MyHardWare/Src/jy61p.c ****  *@param		: None
  48:MyHardWare/Src/jy61p.c ****  *@return	: None
  49:MyHardWare/Src/jy61p.c ****  *@author	: HongScholar
  50:MyHardWare/Src/jy61p.c ****  *@date		: 2025.04.02
  51:MyHardWare/Src/jy61p.c ****  ***********************************************************/
  52:MyHardWare/Src/jy61p.c **** void JY61p_IIC_Start(void) { IIC_Start(); }
  55              		.loc 1 52 28 is_stmt 1 view -0
  56              		.cfi_startproc
  57              		@ args = 0, pretend = 0, frame = 0
  58              		@ frame_needed = 0, uses_anonymous_args = 0
  59 0000 08B5     		push	{r3, lr}
  60              	.LCFI1:
  61              		.cfi_def_cfa_offset 8
  62              		.cfi_offset 3, -8
  63              		.cfi_offset 14, -4
  64              		.loc 1 52 30 view .LVU4
  65 0002 FFF7FEFF 		bl	IIC_Start
ARM GAS  C:\Users\asus\AppData\Local\Temp\ccCY7esU.s 			page 3


  66              	.LVL1:
  67              		.loc 1 52 43 is_stmt 0 view .LVU5
  68 0006 08BD     		pop	{r3, pc}
  69              		.cfi_endproc
  70              	.LFE125:
  72              		.section	.text.JY61p_IIC_Stop,"ax",%progbits
  73              		.align	1
  74              		.global	JY61p_IIC_Stop
  75              		.syntax unified
  76              		.thumb
  77              		.thumb_func
  79              	JY61p_IIC_Stop:
  80              	.LFB126:
  53:MyHardWare/Src/jy61p.c **** 
  54:MyHardWare/Src/jy61p.c **** /***********************************************************
  55:MyHardWare/Src/jy61p.c ****  *@fuction	: JY61p_IIC_Stop
  56:MyHardWare/Src/jy61p.c ****  *@brief		: 产生 JY61p_IIC 停止信号
  57:MyHardWare/Src/jy61p.c ****  *@param		: None
  58:MyHardWare/Src/jy61p.c ****  *@return	: None
  59:MyHardWare/Src/jy61p.c ****  *@author	: HongScholar
  60:MyHardWare/Src/jy61p.c ****  *@date		: 2025.04.02
  61:MyHardWare/Src/jy61p.c ****  ***********************************************************/
  62:MyHardWare/Src/jy61p.c **** void JY61p_IIC_Stop(void) { IIC_Stop(); }
  81              		.loc 1 62 27 is_stmt 1 view -0
  82              		.cfi_startproc
  83              		@ args = 0, pretend = 0, frame = 0
  84              		@ frame_needed = 0, uses_anonymous_args = 0
  85 0000 08B5     		push	{r3, lr}
  86              	.LCFI2:
  87              		.cfi_def_cfa_offset 8
  88              		.cfi_offset 3, -8
  89              		.cfi_offset 14, -4
  90              		.loc 1 62 29 view .LVU7
  91 0002 FFF7FEFF 		bl	IIC_Stop
  92              	.LVL2:
  93              		.loc 1 62 41 is_stmt 0 view .LVU8
  94 0006 08BD     		pop	{r3, pc}
  95              		.cfi_endproc
  96              	.LFE126:
  98              		.section	.text.JY61p_IIC_SendAck,"ax",%progbits
  99              		.align	1
 100              		.global	JY61p_IIC_SendAck
 101              		.syntax unified
 102              		.thumb
 103              		.thumb_func
 105              	JY61p_IIC_SendAck:
 106              	.LVL3:
 107              	.LFB127:
  63:MyHardWare/Src/jy61p.c **** 
  64:MyHardWare/Src/jy61p.c **** /***********************************************************
  65:MyHardWare/Src/jy61p.c ****  *@fuction	: JY61p_IIC_SendAck
  66:MyHardWare/Src/jy61p.c ****  *@brief		: 发送 ACK 应答
  67:MyHardWare/Src/jy61p.c ****  *@param		: None
  68:MyHardWare/Src/jy61p.c ****  *@return	: None
  69:MyHardWare/Src/jy61p.c ****  *@author	: HongScholar
  70:MyHardWare/Src/jy61p.c ****  *@date		: 2025.04.02
  71:MyHardWare/Src/jy61p.c ****  ***********************************************************/
ARM GAS  C:\Users\asus\AppData\Local\Temp\ccCY7esU.s 			page 4


  72:MyHardWare/Src/jy61p.c **** uint8_t JY61p_IIC_SendAck(uint8_t AckBit) {
 108              		.loc 1 72 43 is_stmt 1 view -0
 109              		.cfi_startproc
 110              		@ args = 0, pretend = 0, frame = 0
 111              		@ frame_needed = 0, uses_anonymous_args = 0
 112              		.loc 1 72 43 is_stmt 0 view .LVU10
 113 0000 08B5     		push	{r3, lr}
 114              	.LCFI3:
 115              		.cfi_def_cfa_offset 8
 116              		.cfi_offset 3, -8
 117              		.cfi_offset 14, -4
  73:MyHardWare/Src/jy61p.c ****   if (!AckBit)
 118              		.loc 1 73 3 is_stmt 1 view .LVU11
 119              		.loc 1 73 6 is_stmt 0 view .LVU12
 120 0002 18B9     		cbnz	r0, .L8
  74:MyHardWare/Src/jy61p.c ****     IIC_Ack();
 121              		.loc 1 74 5 is_stmt 1 view .LVU13
 122 0004 FFF7FEFF 		bl	IIC_Ack
 123              	.LVL4:
 124              	.L9:
  75:MyHardWare/Src/jy61p.c ****   else
  76:MyHardWare/Src/jy61p.c ****     IIC_NAck();
  77:MyHardWare/Src/jy61p.c ****   return 0;
 125              		.loc 1 77 3 view .LVU14
  78:MyHardWare/Src/jy61p.c **** }
 126              		.loc 1 78 1 is_stmt 0 view .LVU15
 127 0008 0020     		movs	r0, #0
 128 000a 08BD     		pop	{r3, pc}
 129              	.LVL5:
 130              	.L8:
  76:MyHardWare/Src/jy61p.c ****   return 0;
 131              		.loc 1 76 5 is_stmt 1 view .LVU16
 132 000c FFF7FEFF 		bl	IIC_NAck
 133              	.LVL6:
  76:MyHardWare/Src/jy61p.c ****   return 0;
 134              		.loc 1 76 5 is_stmt 0 view .LVU17
 135 0010 FAE7     		b	.L9
 136              		.cfi_endproc
 137              	.LFE127:
 139              		.section	.text.JY61p_IIC_WaitAck,"ax",%progbits
 140              		.align	1
 141              		.global	JY61p_IIC_WaitAck
 142              		.syntax unified
 143              		.thumb
 144              		.thumb_func
 146              	JY61p_IIC_WaitAck:
 147              	.LFB128:
  79:MyHardWare/Src/jy61p.c **** 
  80:MyHardWare/Src/jy61p.c **** /***********************************************************
  81:MyHardWare/Src/jy61p.c ****  *@fuction	: JY61p_IIC_WaitAck
  82:MyHardWare/Src/jy61p.c ****  *@brief		: 等待 JY61p 应答信号到来
  83:MyHardWare/Src/jy61p.c ****  *@param		: None
  84:MyHardWare/Src/jy61p.c ****  *@return	: 应答位，0:应答;  1:无应答
  85:MyHardWare/Src/jy61p.c ****  *@author	: HongScholar
  86:MyHardWare/Src/jy61p.c ****  *@date		: 2025.04.02
  87:MyHardWare/Src/jy61p.c ****  ***********************************************************/
  88:MyHardWare/Src/jy61p.c **** uint8_t JY61p_IIC_WaitAck(void) { return IIC_Wait_Ack(); }
ARM GAS  C:\Users\asus\AppData\Local\Temp\ccCY7esU.s 			page 5


 148              		.loc 1 88 33 is_stmt 1 view -0
 149              		.cfi_startproc
 150              		@ args = 0, pretend = 0, frame = 0
 151              		@ frame_needed = 0, uses_anonymous_args = 0
 152 0000 08B5     		push	{r3, lr}
 153              	.LCFI4:
 154              		.cfi_def_cfa_offset 8
 155              		.cfi_offset 3, -8
 156              		.cfi_offset 14, -4
 157              		.loc 1 88 35 view .LVU19
 158              		.loc 1 88 42 is_stmt 0 view .LVU20
 159 0002 FFF7FEFF 		bl	IIC_Wait_Ack
 160              	.LVL7:
 161              		.loc 1 88 58 view .LVU21
 162 0006 08BD     		pop	{r3, pc}
 163              		.cfi_endproc
 164              	.LFE128:
 166              		.section	.text.JY61p_IIC_SendByte,"ax",%progbits
 167              		.align	1
 168              		.global	JY61p_IIC_SendByte
 169              		.syntax unified
 170              		.thumb
 171              		.thumb_func
 173              	JY61p_IIC_SendByte:
 174              	.LVL8:
 175              	.LFB129:
  89:MyHardWare/Src/jy61p.c **** 
  90:MyHardWare/Src/jy61p.c **** /***********************************************************
  91:MyHardWare/Src/jy61p.c ****  *@fuction	: JY61p_IIC_SendByte
  92:MyHardWare/Src/jy61p.c ****  *@brief		: JY61p 软件 IIC 发送一个字节
  93:MyHardWare/Src/jy61p.c ****  *@param		: 数据
  94:MyHardWare/Src/jy61p.c ****  *@return	: None
  95:MyHardWare/Src/jy61p.c ****  *@author	: HongScholar
  96:MyHardWare/Src/jy61p.c ****  *@date		: 2025.04.02
  97:MyHardWare/Src/jy61p.c ****  ***********************************************************/
  98:MyHardWare/Src/jy61p.c **** void JY61p_IIC_SendByte(uint8_t dat) { IIC_Send_Byte(dat); }
 176              		.loc 1 98 38 is_stmt 1 view -0
 177              		.cfi_startproc
 178              		@ args = 0, pretend = 0, frame = 0
 179              		@ frame_needed = 0, uses_anonymous_args = 0
 180              		.loc 1 98 38 is_stmt 0 view .LVU23
 181 0000 08B5     		push	{r3, lr}
 182              	.LCFI5:
 183              		.cfi_def_cfa_offset 8
 184              		.cfi_offset 3, -8
 185              		.cfi_offset 14, -4
 186              		.loc 1 98 40 is_stmt 1 view .LVU24
 187 0002 FFF7FEFF 		bl	IIC_Send_Byte
 188              	.LVL9:
 189              		.loc 1 98 60 is_stmt 0 view .LVU25
 190 0006 08BD     		pop	{r3, pc}
 191              		.cfi_endproc
 192              	.LFE129:
 194              		.section	.text.JY61p_IIC_ReceiveByte,"ax",%progbits
 195              		.align	1
 196              		.global	JY61p_IIC_ReceiveByte
 197              		.syntax unified
ARM GAS  C:\Users\asus\AppData\Local\Temp\ccCY7esU.s 			page 6


 198              		.thumb
 199              		.thumb_func
 201              	JY61p_IIC_ReceiveByte:
 202              	.LFB130:
  99:MyHardWare/Src/jy61p.c **** 
 100:MyHardWare/Src/jy61p.c **** /***********************************************************
 101:MyHardWare/Src/jy61p.c ****  *@fuction	: JY61p_IIC_SendByte
 102:MyHardWare/Src/jy61p.c ****  *@brief		: JY61p 软件 IIC 发送一个字节
 103:MyHardWare/Src/jy61p.c ****  *@param		: 数据
 104:MyHardWare/Src/jy61p.c ****  *@return	: None
 105:MyHardWare/Src/jy61p.c ****  *@author	: HongScholar
 106:MyHardWare/Src/jy61p.c ****  *@date		: 2025.04.02
 107:MyHardWare/Src/jy61p.c ****  ***********************************************************/
 108:MyHardWare/Src/jy61p.c **** uint8_t JY61p_IIC_ReceiveByte(void) { return IIC_Read_Byte(1); }
 203              		.loc 1 108 37 is_stmt 1 view -0
 204              		.cfi_startproc
 205              		@ args = 0, pretend = 0, frame = 0
 206              		@ frame_needed = 0, uses_anonymous_args = 0
 207 0000 08B5     		push	{r3, lr}
 208              	.LCFI6:
 209              		.cfi_def_cfa_offset 8
 210              		.cfi_offset 3, -8
 211              		.cfi_offset 14, -4
 212              		.loc 1 108 39 view .LVU27
 213              		.loc 1 108 46 is_stmt 0 view .LVU28
 214 0002 0120     		movs	r0, #1
 215 0004 FFF7FEFF 		bl	IIC_Read_Byte
 216              	.LVL10:
 217              		.loc 1 108 64 view .LVU29
 218 0008 08BD     		pop	{r3, pc}
 219              		.cfi_endproc
 220              	.LFE130:
 222              		.section	.text.JY61p_Write,"ax",%progbits
 223              		.align	1
 224              		.global	JY61p_Write
 225              		.syntax unified
 226              		.thumb
 227              		.thumb_func
 229              	JY61p_Write:
 230              	.LVL11:
 231              	.LFB131:
 109:MyHardWare/Src/jy61p.c **** /**
 110:MyHardWare/Src/jy61p.c ****  * @brief  对接官方i2c_write
 111:MyHardWare/Src/jy61p.c ****  * @retval 0: 读成功
 112:MyHardWare/Src/jy61p.c ****  */
 113:MyHardWare/Src/jy61p.c **** u8 JY61p_Write(u8 addr, u8 reg, u8 len, u8 *buf) {
 232              		.loc 1 113 50 is_stmt 1 view -0
 233              		.cfi_startproc
 234              		@ args = 0, pretend = 0, frame = 0
 235              		@ frame_needed = 0, uses_anonymous_args = 0
 236              		.loc 1 113 50 is_stmt 0 view .LVU31
 237 0000 2DE9F041 		push	{r4, r5, r6, r7, r8, lr}
 238              	.LCFI7:
 239              		.cfi_def_cfa_offset 24
 240              		.cfi_offset 4, -24
 241              		.cfi_offset 5, -20
 242              		.cfi_offset 6, -16
ARM GAS  C:\Users\asus\AppData\Local\Temp\ccCY7esU.s 			page 7


 243              		.cfi_offset 7, -12
 244              		.cfi_offset 8, -8
 245              		.cfi_offset 14, -4
 246 0004 0446     		mov	r4, r0
 247 0006 0F46     		mov	r7, r1
 248 0008 1546     		mov	r5, r2
 249 000a 1E46     		mov	r6, r3
 114:MyHardWare/Src/jy61p.c ****   u8 i;
 250              		.loc 1 114 3 is_stmt 1 view .LVU32
 115:MyHardWare/Src/jy61p.c ****   JY61p_IIC_Start();
 251              		.loc 1 115 3 view .LVU33
 252 000c FFF7FEFF 		bl	JY61p_IIC_Start
 253              	.LVL12:
 116:MyHardWare/Src/jy61p.c ****   JY61p_IIC_SendByte((addr << 1) | 0x00); // 发送器件地址+写命令
 254              		.loc 1 116 3 view .LVU34
 255 0010 6000     		lsls	r0, r4, #1
 256 0012 00F0FE00 		and	r0, r0, #254
 257 0016 FFF7FEFF 		bl	JY61p_IIC_SendByte
 258              	.LVL13:
 117:MyHardWare/Src/jy61p.c ****   if (JY61p_IIC_WaitAck()) {
 259              		.loc 1 117 3 view .LVU35
 260              		.loc 1 117 7 is_stmt 0 view .LVU36
 261 001a FFF7FEFF 		bl	JY61p_IIC_WaitAck
 262              	.LVL14:
 263              		.loc 1 117 6 discriminator 1 view .LVU37
 264 001e 88B9     		cbnz	r0, .L24
 265 0020 8046     		mov	r8, r0
 118:MyHardWare/Src/jy61p.c ****     JY61p_IIC_Stop();
 119:MyHardWare/Src/jy61p.c ****     return 1;
 120:MyHardWare/Src/jy61p.c ****   }
 121:MyHardWare/Src/jy61p.c ****   JY61p_IIC_SendByte(reg);
 266              		.loc 1 121 3 is_stmt 1 view .LVU38
 267 0022 3846     		mov	r0, r7
 268 0024 FFF7FEFF 		bl	JY61p_IIC_SendByte
 269              	.LVL15:
 122:MyHardWare/Src/jy61p.c ****   JY61p_IIC_WaitAck();
 270              		.loc 1 122 3 view .LVU39
 271 0028 FFF7FEFF 		bl	JY61p_IIC_WaitAck
 272              	.LVL16:
 123:MyHardWare/Src/jy61p.c ****   for (i = 0; i < len; i++) {
 273              		.loc 1 123 3 view .LVU40
 274              		.loc 1 123 10 is_stmt 0 view .LVU41
 275 002c 4446     		mov	r4, r8
 276              	.LVL17:
 277              	.L20:
 278              		.loc 1 123 17 is_stmt 1 discriminator 1 view .LVU42
 279 002e AC42     		cmp	r4, r5
 280 0030 14D2     		bcs	.L25
 124:MyHardWare/Src/jy61p.c ****     JY61p_IIC_SendByte(buf[i]);
 281              		.loc 1 124 5 view .LVU43
 282 0032 305D     		ldrb	r0, [r6, r4]	@ zero_extendqisi2
 283 0034 FFF7FEFF 		bl	JY61p_IIC_SendByte
 284              	.LVL18:
 125:MyHardWare/Src/jy61p.c ****     if (JY61p_IIC_WaitAck()) {
 285              		.loc 1 125 5 view .LVU44
 286              		.loc 1 125 9 is_stmt 0 view .LVU45
 287 0038 FFF7FEFF 		bl	JY61p_IIC_WaitAck
ARM GAS  C:\Users\asus\AppData\Local\Temp\ccCY7esU.s 			page 8


 288              	.LVL19:
 289              		.loc 1 125 8 discriminator 1 view .LVU46
 290 003c 48B9     		cbnz	r0, .L26
 123:MyHardWare/Src/jy61p.c ****   for (i = 0; i < len; i++) {
 291              		.loc 1 123 25 is_stmt 1 discriminator 2 view .LVU47
 292 003e 0134     		adds	r4, r4, #1
 293              	.LVL20:
 123:MyHardWare/Src/jy61p.c ****   for (i = 0; i < len; i++) {
 294              		.loc 1 123 25 is_stmt 0 discriminator 2 view .LVU48
 295 0040 E4B2     		uxtb	r4, r4
 296              	.LVL21:
 123:MyHardWare/Src/jy61p.c ****   for (i = 0; i < len; i++) {
 297              		.loc 1 123 25 discriminator 2 view .LVU49
 298 0042 F4E7     		b	.L20
 299              	.LVL22:
 300              	.L24:
 118:MyHardWare/Src/jy61p.c ****     return 1;
 301              		.loc 1 118 5 is_stmt 1 view .LVU50
 302 0044 FFF7FEFF 		bl	JY61p_IIC_Stop
 303              	.LVL23:
 119:MyHardWare/Src/jy61p.c ****   }
 304              		.loc 1 119 5 view .LVU51
 119:MyHardWare/Src/jy61p.c ****   }
 305              		.loc 1 119 12 is_stmt 0 view .LVU52
 306 0048 4FF00108 		mov	r8, #1
 307              	.L19:
 126:MyHardWare/Src/jy61p.c ****       JY61p_IIC_Stop();
 127:MyHardWare/Src/jy61p.c ****       return 1;
 128:MyHardWare/Src/jy61p.c ****     }
 129:MyHardWare/Src/jy61p.c ****   }
 130:MyHardWare/Src/jy61p.c ****   JY61p_IIC_Stop();
 131:MyHardWare/Src/jy61p.c ****   return 0;
 132:MyHardWare/Src/jy61p.c **** }
 308              		.loc 1 132 1 view .LVU53
 309 004c 4046     		mov	r0, r8
 310 004e BDE8F081 		pop	{r4, r5, r6, r7, r8, pc}
 311              	.LVL24:
 312              	.L26:
 126:MyHardWare/Src/jy61p.c ****       JY61p_IIC_Stop();
 313              		.loc 1 126 7 is_stmt 1 view .LVU54
 314 0052 FFF7FEFF 		bl	JY61p_IIC_Stop
 315              	.LVL25:
 127:MyHardWare/Src/jy61p.c ****     }
 316              		.loc 1 127 7 view .LVU55
 127:MyHardWare/Src/jy61p.c ****     }
 317              		.loc 1 127 14 is_stmt 0 view .LVU56
 318 0056 4FF00108 		mov	r8, #1
 319 005a F7E7     		b	.L19
 320              	.L25:
 130:MyHardWare/Src/jy61p.c ****   return 0;
 321              		.loc 1 130 3 is_stmt 1 view .LVU57
 322 005c FFF7FEFF 		bl	JY61p_IIC_Stop
 323              	.LVL26:
 131:MyHardWare/Src/jy61p.c **** }
 324              		.loc 1 131 3 view .LVU58
 131:MyHardWare/Src/jy61p.c **** }
 325              		.loc 1 131 10 is_stmt 0 view .LVU59
ARM GAS  C:\Users\asus\AppData\Local\Temp\ccCY7esU.s 			page 9


 326 0060 F4E7     		b	.L19
 327              		.cfi_endproc
 328              	.LFE131:
 330              		.section	.text.JY61p_Read,"ax",%progbits
 331              		.align	1
 332              		.global	JY61p_Read
 333              		.syntax unified
 334              		.thumb
 335              		.thumb_func
 337              	JY61p_Read:
 338              	.LVL27:
 339              	.LFB132:
 133:MyHardWare/Src/jy61p.c **** 
 134:MyHardWare/Src/jy61p.c **** /**
 135:MyHardWare/Src/jy61p.c ****  * @brief  对接官方dmp库的i2c_read函数
 136:MyHardWare/Src/jy61p.c ****  * @retval 0: 读成功
 137:MyHardWare/Src/jy61p.c ****  */
 138:MyHardWare/Src/jy61p.c **** u8 JY61p_Read(u8 addr, u8 reg, u8 len, u8 *buf) {
 340              		.loc 1 138 49 is_stmt 1 view -0
 341              		.cfi_startproc
 342              		@ args = 0, pretend = 0, frame = 0
 343              		@ frame_needed = 0, uses_anonymous_args = 0
 344              		.loc 1 138 49 is_stmt 0 view .LVU61
 345 0000 F8B5     		push	{r3, r4, r5, r6, r7, lr}
 346              	.LCFI8:
 347              		.cfi_def_cfa_offset 24
 348              		.cfi_offset 3, -24
 349              		.cfi_offset 4, -20
 350              		.cfi_offset 5, -16
 351              		.cfi_offset 6, -12
 352              		.cfi_offset 7, -8
 353              		.cfi_offset 14, -4
 354 0002 0646     		mov	r6, r0
 355 0004 0F46     		mov	r7, r1
 356 0006 1446     		mov	r4, r2
 357 0008 1D46     		mov	r5, r3
 139:MyHardWare/Src/jy61p.c ****   JY61p_IIC_Start();
 358              		.loc 1 139 3 is_stmt 1 view .LVU62
 359 000a FFF7FEFF 		bl	JY61p_IIC_Start
 360              	.LVL28:
 140:MyHardWare/Src/jy61p.c ****   JY61p_IIC_SendByte((addr << 1) | 0x00); // 发送器件地址+写命令
 361              		.loc 1 140 3 view .LVU63
 362 000e 7000     		lsls	r0, r6, #1
 363 0010 00F0FE00 		and	r0, r0, #254
 364 0014 FFF7FEFF 		bl	JY61p_IIC_SendByte
 365              	.LVL29:
 141:MyHardWare/Src/jy61p.c ****   if (JY61p_IIC_WaitAck()) {
 366              		.loc 1 141 3 view .LVU64
 367              		.loc 1 141 7 is_stmt 0 view .LVU65
 368 0018 FFF7FEFF 		bl	JY61p_IIC_WaitAck
 369              	.LVL30:
 370              		.loc 1 141 6 discriminator 1 view .LVU66
 371 001c 78B9     		cbnz	r0, .L35
 142:MyHardWare/Src/jy61p.c ****     JY61p_IIC_Stop();
 143:MyHardWare/Src/jy61p.c ****     return 1;
 144:MyHardWare/Src/jy61p.c ****   }
 145:MyHardWare/Src/jy61p.c ****   JY61p_IIC_SendByte(reg);
ARM GAS  C:\Users\asus\AppData\Local\Temp\ccCY7esU.s 			page 10


 372              		.loc 1 145 3 is_stmt 1 view .LVU67
 373 001e 3846     		mov	r0, r7
 374 0020 FFF7FEFF 		bl	JY61p_IIC_SendByte
 375              	.LVL31:
 146:MyHardWare/Src/jy61p.c ****   JY61p_IIC_WaitAck();
 376              		.loc 1 146 3 view .LVU68
 377 0024 FFF7FEFF 		bl	JY61p_IIC_WaitAck
 378              	.LVL32:
 147:MyHardWare/Src/jy61p.c ****   JY61p_IIC_Start();
 379              		.loc 1 147 3 view .LVU69
 380 0028 FFF7FEFF 		bl	JY61p_IIC_Start
 381              	.LVL33:
 148:MyHardWare/Src/jy61p.c ****   JY61p_IIC_SendByte((addr << 1) | 0x01);
 382              		.loc 1 148 3 view .LVU70
 383              		.loc 1 148 34 is_stmt 0 view .LVU71
 384 002c 7000     		lsls	r0, r6, #1
 385 002e 40F00100 		orr	r0, r0, #1
 386              		.loc 1 148 3 view .LVU72
 387 0032 C0B2     		uxtb	r0, r0
 388 0034 FFF7FEFF 		bl	JY61p_IIC_SendByte
 389              	.LVL34:
 149:MyHardWare/Src/jy61p.c ****   JY61p_IIC_WaitAck();
 390              		.loc 1 149 3 is_stmt 1 view .LVU73
 391 0038 FFF7FEFF 		bl	JY61p_IIC_WaitAck
 392              	.LVL35:
 150:MyHardWare/Src/jy61p.c ****   while (len) {
 393              		.loc 1 150 3 view .LVU74
 394              		.loc 1 150 9 is_stmt 0 view .LVU75
 395 003c 0CE0     		b	.L30
 396              	.L35:
 142:MyHardWare/Src/jy61p.c ****     return 1;
 397              		.loc 1 142 5 is_stmt 1 view .LVU76
 398 003e FFF7FEFF 		bl	JY61p_IIC_Stop
 399              	.LVL36:
 143:MyHardWare/Src/jy61p.c ****   }
 400              		.loc 1 143 5 view .LVU77
 143:MyHardWare/Src/jy61p.c ****   }
 401              		.loc 1 143 12 is_stmt 0 view .LVU78
 402 0042 0120     		movs	r0, #1
 403 0044 15E0     		b	.L29
 404              	.L37:
 151:MyHardWare/Src/jy61p.c ****     if (len == 1) {
 152:MyHardWare/Src/jy61p.c ****       *buf = JY61p_IIC_ReceiveByte();
 405              		.loc 1 152 7 is_stmt 1 view .LVU79
 406              		.loc 1 152 14 is_stmt 0 view .LVU80
 407 0046 FFF7FEFF 		bl	JY61p_IIC_ReceiveByte
 408              	.LVL37:
 409              		.loc 1 152 12 discriminator 1 view .LVU81
 410 004a 2870     		strb	r0, [r5]
 153:MyHardWare/Src/jy61p.c ****       JY61p_IIC_SendAck(1);
 411              		.loc 1 153 7 is_stmt 1 view .LVU82
 412 004c 0120     		movs	r0, #1
 413 004e FFF7FEFF 		bl	JY61p_IIC_SendAck
 414              	.LVL38:
 415              	.L32:
 154:MyHardWare/Src/jy61p.c ****     } else {
 155:MyHardWare/Src/jy61p.c ****       *buf = JY61p_IIC_ReceiveByte(); // 1
ARM GAS  C:\Users\asus\AppData\Local\Temp\ccCY7esU.s 			page 11


 156:MyHardWare/Src/jy61p.c ****       JY61p_IIC_SendAck(0);
 157:MyHardWare/Src/jy61p.c ****     }
 158:MyHardWare/Src/jy61p.c ****     len--;
 416              		.loc 1 158 5 view .LVU83
 417              		.loc 1 158 8 is_stmt 0 view .LVU84
 418 0052 013C     		subs	r4, r4, #1
 419              	.LVL39:
 420              		.loc 1 158 8 view .LVU85
 421 0054 E4B2     		uxtb	r4, r4
 422              	.LVL40:
 159:MyHardWare/Src/jy61p.c ****     buf++;
 423              		.loc 1 159 5 is_stmt 1 view .LVU86
 424              		.loc 1 159 8 is_stmt 0 view .LVU87
 425 0056 0135     		adds	r5, r5, #1
 426              	.LVL41:
 427              	.L30:
 150:MyHardWare/Src/jy61p.c ****     if (len == 1) {
 428              		.loc 1 150 10 is_stmt 1 view .LVU88
 429 0058 44B1     		cbz	r4, .L36
 151:MyHardWare/Src/jy61p.c ****       *buf = JY61p_IIC_ReceiveByte();
 430              		.loc 1 151 5 view .LVU89
 151:MyHardWare/Src/jy61p.c ****       *buf = JY61p_IIC_ReceiveByte();
 431              		.loc 1 151 8 is_stmt 0 view .LVU90
 432 005a 012C     		cmp	r4, #1
 433 005c F3D0     		beq	.L37
 155:MyHardWare/Src/jy61p.c ****       JY61p_IIC_SendAck(0);
 434              		.loc 1 155 7 is_stmt 1 view .LVU91
 155:MyHardWare/Src/jy61p.c ****       JY61p_IIC_SendAck(0);
 435              		.loc 1 155 14 is_stmt 0 view .LVU92
 436 005e FFF7FEFF 		bl	JY61p_IIC_ReceiveByte
 437              	.LVL42:
 155:MyHardWare/Src/jy61p.c ****       JY61p_IIC_SendAck(0);
 438              		.loc 1 155 12 discriminator 1 view .LVU93
 439 0062 2870     		strb	r0, [r5]
 156:MyHardWare/Src/jy61p.c ****     }
 440              		.loc 1 156 7 is_stmt 1 view .LVU94
 441 0064 0020     		movs	r0, #0
 442 0066 FFF7FEFF 		bl	JY61p_IIC_SendAck
 443              	.LVL43:
 444 006a F2E7     		b	.L32
 445              	.L36:
 160:MyHardWare/Src/jy61p.c ****   }
 161:MyHardWare/Src/jy61p.c ****   JY61p_IIC_Stop();
 446              		.loc 1 161 3 view .LVU95
 447 006c FFF7FEFF 		bl	JY61p_IIC_Stop
 448              	.LVL44:
 162:MyHardWare/Src/jy61p.c ****   return 0;
 449              		.loc 1 162 3 view .LVU96
 450              		.loc 1 162 10 is_stmt 0 view .LVU97
 451 0070 2046     		mov	r0, r4
 452              	.LVL45:
 453              	.L29:
 163:MyHardWare/Src/jy61p.c **** }
 454              		.loc 1 163 1 view .LVU98
 455 0072 F8BD     		pop	{r3, r4, r5, r6, r7, pc}
 456              		.loc 1 163 1 view .LVU99
 457              		.cfi_endproc
ARM GAS  C:\Users\asus\AppData\Local\Temp\ccCY7esU.s 			page 12


 458              	.LFE132:
 460              		.section	.text.JY61p_Check,"ax",%progbits
 461              		.align	1
 462              		.global	JY61p_Check
 463              		.syntax unified
 464              		.thumb
 465              		.thumb_func
 467              	JY61p_Check:
 468              	.LFB133:
 164:MyHardWare/Src/jy61p.c **** 
 165:MyHardWare/Src/jy61p.c **** /***********************************************************
 166:MyHardWare/Src/jy61p.c ****  *@fuction	: JY61p_Check
 167:MyHardWare/Src/jy61p.c ****  *@brief		: JY61p 检测是否存在
 168:MyHardWare/Src/jy61p.c ****  *@param		: None
 169:MyHardWare/Src/jy61p.c ****  *@return	: 0: 存在
 170:MyHardWare/Src/jy61p.c ****  *@author	: HongScholar
 171:MyHardWare/Src/jy61p.c ****  *@date		: 2025.04.02
 172:MyHardWare/Src/jy61p.c ****  ***********************************************************/
 173:MyHardWare/Src/jy61p.c **** uint8_t JY61p_Check(void) {
 469              		.loc 1 173 27 is_stmt 1 view -0
 470              		.cfi_startproc
 471              		@ args = 0, pretend = 0, frame = 0
 472              		@ frame_needed = 0, uses_anonymous_args = 0
 473 0000 10B5     		push	{r4, lr}
 474              	.LCFI9:
 475              		.cfi_def_cfa_offset 8
 476              		.cfi_offset 4, -8
 477              		.cfi_offset 14, -4
 174:MyHardWare/Src/jy61p.c ****   uint8_t ack = 0;
 478              		.loc 1 174 3 view .LVU101
 479              	.LVL46:
 175:MyHardWare/Src/jy61p.c ****   JY61p_IIC_Start();
 480              		.loc 1 175 3 view .LVU102
 481 0002 FFF7FEFF 		bl	JY61p_IIC_Start
 482              	.LVL47:
 176:MyHardWare/Src/jy61p.c ****   JY61p_IIC_SendByte(JY61p_DeviceAddr << 1);
 483              		.loc 1 176 3 view .LVU103
 484 0006 A020     		movs	r0, #160
 485 0008 FFF7FEFF 		bl	JY61p_IIC_SendByte
 486              	.LVL48:
 177:MyHardWare/Src/jy61p.c ****   ack = JY61p_IIC_WaitAck();
 487              		.loc 1 177 3 view .LVU104
 488              		.loc 1 177 9 is_stmt 0 view .LVU105
 489 000c FFF7FEFF 		bl	JY61p_IIC_WaitAck
 490              	.LVL49:
 491 0010 0446     		mov	r4, r0
 492              	.LVL50:
 178:MyHardWare/Src/jy61p.c ****   JY61p_IIC_Stop();
 493              		.loc 1 178 3 is_stmt 1 view .LVU106
 494 0012 FFF7FEFF 		bl	JY61p_IIC_Stop
 495              	.LVL51:
 179:MyHardWare/Src/jy61p.c **** 
 180:MyHardWare/Src/jy61p.c ****   return ack;
 496              		.loc 1 180 3 view .LVU107
 181:MyHardWare/Src/jy61p.c **** }
 497              		.loc 1 181 1 is_stmt 0 view .LVU108
 498 0016 2046     		mov	r0, r4
ARM GAS  C:\Users\asus\AppData\Local\Temp\ccCY7esU.s 			page 13


 499 0018 10BD     		pop	{r4, pc}
 500              		.loc 1 181 1 view .LVU109
 501              		.cfi_endproc
 502              	.LFE133:
 504              		.section	.text.JY61p_Init,"ax",%progbits
 505              		.align	1
 506              		.global	JY61p_Init
 507              		.syntax unified
 508              		.thumb
 509              		.thumb_func
 511              	JY61p_Init:
 512              	.LFB123:
  18:MyHardWare/Src/jy61p.c ****   JY61p_IIC_Init();
 513              		.loc 1 18 23 is_stmt 1 view -0
 514              		.cfi_startproc
 515              		@ args = 0, pretend = 0, frame = 0
 516              		@ frame_needed = 0, uses_anonymous_args = 0
 517 0000 08B5     		push	{r3, lr}
 518              	.LCFI10:
 519              		.cfi_def_cfa_offset 8
 520              		.cfi_offset 3, -8
 521              		.cfi_offset 14, -4
  19:MyHardWare/Src/jy61p.c ****   u16 i = 0;
 522              		.loc 1 19 3 view .LVU111
 523 0002 FFF7FEFF 		bl	JY61p_IIC_Init
 524              	.LVL52:
  20:MyHardWare/Src/jy61p.c ****   // 检测 JY61p 是否存在
 525              		.loc 1 20 3 view .LVU112
  22:MyHardWare/Src/jy61p.c ****     i++;
 526              		.loc 1 22 3 view .LVU113
  22:MyHardWare/Src/jy61p.c ****     i++;
 527              		.loc 1 22 24 view .LVU114
  22:MyHardWare/Src/jy61p.c ****     i++;
 528              		.loc 1 22 10 is_stmt 0 view .LVU115
 529 0006 FFF7FEFF 		bl	JY61p_Check
 530              	.LVL53:
  26:MyHardWare/Src/jy61p.c **** 
 531              		.loc 1 26 1 view .LVU116
 532 000a 08BD     		pop	{r3, pc}
 533              		.cfi_endproc
 534              	.LFE123:
 536              		.section	.text.JY61p_Get,"ax",%progbits
 537              		.align	1
 538              		.global	JY61p_Get
 539              		.syntax unified
 540              		.thumb
 541              		.thumb_func
 543              	JY61p_Get:
 544              	.LVL54:
 545              	.LFB134:
 182:MyHardWare/Src/jy61p.c **** 
 183:MyHardWare/Src/jy61p.c **** /***********************************************************
 184:MyHardWare/Src/jy61p.c ****  *@fuction	: JY61p_Get
 185:MyHardWare/Src/jy61p.c ****  *@brief		: JY61p 获取欧拉角和角速度
 186:MyHardWare/Src/jy61p.c ****  *@param		: 加速度, 欧拉角, 角速度
 187:MyHardWare/Src/jy61p.c ****  *@return	: None
 188:MyHardWare/Src/jy61p.c ****  *@author	: HongScholar
ARM GAS  C:\Users\asus\AppData\Local\Temp\ccCY7esU.s 			page 14


 189:MyHardWare/Src/jy61p.c ****  *@date		: 2025.04.02
 190:MyHardWare/Src/jy61p.c ****  ***********************************************************/
 191:MyHardWare/Src/jy61p.c **** void JY61p_Get(Acc_Param *a, EulerAngle_Param *p, Gyro_Param *v) {
 546              		.loc 1 191 66 is_stmt 1 view -0
 547              		.cfi_startproc
 548              		@ args = 0, pretend = 0, frame = 32
 549              		@ frame_needed = 0, uses_anonymous_args = 0
 550              		.loc 1 191 66 is_stmt 0 view .LVU118
 551 0000 70B5     		push	{r4, r5, r6, lr}
 552              	.LCFI11:
 553              		.cfi_def_cfa_offset 16
 554              		.cfi_offset 4, -16
 555              		.cfi_offset 5, -12
 556              		.cfi_offset 6, -8
 557              		.cfi_offset 14, -4
 558 0002 88B0     		sub	sp, sp, #32
 559              	.LCFI12:
 560              		.cfi_def_cfa_offset 48
 561 0004 0646     		mov	r6, r0
 562 0006 0C46     		mov	r4, r1
 563 0008 1546     		mov	r5, r2
 192:MyHardWare/Src/jy61p.c ****   uint8_t tmp[30];
 564              		.loc 1 192 3 is_stmt 1 view .LVU119
 193:MyHardWare/Src/jy61p.c ****   JY61p_Read(JY61p_DeviceAddr, JY61p_AX, 24, tmp);
 565              		.loc 1 193 3 view .LVU120
 566 000a 6B46     		mov	r3, sp
 567 000c 1822     		movs	r2, #24
 568              	.LVL55:
 569              		.loc 1 193 3 is_stmt 0 view .LVU121
 570 000e 3421     		movs	r1, #52
 571              	.LVL56:
 572              		.loc 1 193 3 view .LVU122
 573 0010 5020     		movs	r0, #80
 574              	.LVL57:
 575              		.loc 1 193 3 view .LVU123
 576 0012 FFF7FEFF 		bl	JY61p_Read
 577              	.LVL58:
 194:MyHardWare/Src/jy61p.c **** 
 195:MyHardWare/Src/jy61p.c ****   /**** 加速度 ****/
 196:MyHardWare/Src/jy61p.c ****   a->Ax = ((short)(tmp[1] << 8) | tmp[0]) / 32768.00f * 16;
 578              		.loc 1 196 3 is_stmt 1 view .LVU124
 579              		.loc 1 196 23 is_stmt 0 view .LVU125
 580 0016 9DF80130 		ldrb	r3, [sp, #1]	@ zero_extendqisi2
 581              		.loc 1 196 12 view .LVU126
 582 001a 1B02     		lsls	r3, r3, #8
 583 001c 1BB2     		sxth	r3, r3
 584              		.loc 1 196 38 view .LVU127
 585 001e 9DF80020 		ldrb	r2, [sp]	@ zero_extendqisi2
 586              		.loc 1 196 33 view .LVU128
 587 0022 1343     		orrs	r3, r3, r2
 588 0024 07EE903A 		vmov	s15, r3	@ int
 589              		.loc 1 196 43 view .LVU129
 590 0028 F8EEE77A 		vcvt.f32.s32	s15, s15
 591 002c 9FED4B7A 		vldr.32	s14, .L44
 592 0030 67EE877A 		vmul.f32	s15, s15, s14
 593              		.loc 1 196 55 view .LVU130
 594 0034 F3EE006A 		vmov.f32	s13, #1.6e+1
ARM GAS  C:\Users\asus\AppData\Local\Temp\ccCY7esU.s 			page 15


 595 0038 67EEA67A 		vmul.f32	s15, s15, s13
 596              		.loc 1 196 9 view .LVU131
 597 003c C6ED007A 		vstr.32	s15, [r6]
 197:MyHardWare/Src/jy61p.c ****   a->Ay = ((short)(tmp[3] << 8) | tmp[2]) / 32768.00f * 16;
 598              		.loc 1 197 3 is_stmt 1 view .LVU132
 599              		.loc 1 197 23 is_stmt 0 view .LVU133
 600 0040 9DF80330 		ldrb	r3, [sp, #3]	@ zero_extendqisi2
 601              		.loc 1 197 12 view .LVU134
 602 0044 1B02     		lsls	r3, r3, #8
 603 0046 1BB2     		sxth	r3, r3
 604              		.loc 1 197 38 view .LVU135
 605 0048 9DF80220 		ldrb	r2, [sp, #2]	@ zero_extendqisi2
 606              		.loc 1 197 33 view .LVU136
 607 004c 1343     		orrs	r3, r3, r2
 608 004e 07EE903A 		vmov	s15, r3	@ int
 609              		.loc 1 197 43 view .LVU137
 610 0052 F8EEE77A 		vcvt.f32.s32	s15, s15
 611 0056 67EE877A 		vmul.f32	s15, s15, s14
 612              		.loc 1 197 55 view .LVU138
 613 005a 67EEA67A 		vmul.f32	s15, s15, s13
 614              		.loc 1 197 9 view .LVU139
 615 005e C6ED017A 		vstr.32	s15, [r6, #4]
 198:MyHardWare/Src/jy61p.c ****   a->Az = ((short)(tmp[5] << 8) | tmp[4]) / 32768.00f * 16;
 616              		.loc 1 198 3 is_stmt 1 view .LVU140
 617              		.loc 1 198 23 is_stmt 0 view .LVU141
 618 0062 9DF80530 		ldrb	r3, [sp, #5]	@ zero_extendqisi2
 619              		.loc 1 198 12 view .LVU142
 620 0066 1B02     		lsls	r3, r3, #8
 621 0068 1BB2     		sxth	r3, r3
 622              		.loc 1 198 38 view .LVU143
 623 006a 9DF80420 		ldrb	r2, [sp, #4]	@ zero_extendqisi2
 624              		.loc 1 198 33 view .LVU144
 625 006e 1343     		orrs	r3, r3, r2
 626 0070 07EE903A 		vmov	s15, r3	@ int
 627              		.loc 1 198 43 view .LVU145
 628 0074 F8EEE77A 		vcvt.f32.s32	s15, s15
 629 0078 67EE877A 		vmul.f32	s15, s15, s14
 630              		.loc 1 198 55 view .LVU146
 631 007c 67EEA67A 		vmul.f32	s15, s15, s13
 632              		.loc 1 198 9 view .LVU147
 633 0080 C6ED027A 		vstr.32	s15, [r6, #8]
 199:MyHardWare/Src/jy61p.c **** 
 200:MyHardWare/Src/jy61p.c ****   /**** 角速度 ****/
 201:MyHardWare/Src/jy61p.c ****   v->Gx = ((short)(tmp[7] << 8) | tmp[6]) / 32768.00f * 2000;
 634              		.loc 1 201 3 is_stmt 1 view .LVU148
 635              		.loc 1 201 23 is_stmt 0 view .LVU149
 636 0084 9DF80730 		ldrb	r3, [sp, #7]	@ zero_extendqisi2
 637              		.loc 1 201 12 view .LVU150
 638 0088 1B02     		lsls	r3, r3, #8
 639 008a 1BB2     		sxth	r3, r3
 640              		.loc 1 201 38 view .LVU151
 641 008c 9DF80620 		ldrb	r2, [sp, #6]	@ zero_extendqisi2
 642              		.loc 1 201 33 view .LVU152
 643 0090 1343     		orrs	r3, r3, r2
 644 0092 07EE903A 		vmov	s15, r3	@ int
 645              		.loc 1 201 43 view .LVU153
 646 0096 F8EEE77A 		vcvt.f32.s32	s15, s15
ARM GAS  C:\Users\asus\AppData\Local\Temp\ccCY7esU.s 			page 16


 647 009a 67EE877A 		vmul.f32	s15, s15, s14
 648              		.loc 1 201 55 view .LVU154
 649 009e DFED306A 		vldr.32	s13, .L44+4
 650 00a2 67EEA67A 		vmul.f32	s15, s15, s13
 651              		.loc 1 201 9 view .LVU155
 652 00a6 C5ED007A 		vstr.32	s15, [r5]
 202:MyHardWare/Src/jy61p.c ****   v->Gy = ((short)(tmp[9] << 8) | tmp[8]) / 32768.00f * 2000;
 653              		.loc 1 202 3 is_stmt 1 view .LVU156
 654              		.loc 1 202 23 is_stmt 0 view .LVU157
 655 00aa 9DF80930 		ldrb	r3, [sp, #9]	@ zero_extendqisi2
 656              		.loc 1 202 12 view .LVU158
 657 00ae 1B02     		lsls	r3, r3, #8
 658 00b0 1BB2     		sxth	r3, r3
 659              		.loc 1 202 38 view .LVU159
 660 00b2 9DF80820 		ldrb	r2, [sp, #8]	@ zero_extendqisi2
 661              		.loc 1 202 33 view .LVU160
 662 00b6 1343     		orrs	r3, r3, r2
 663 00b8 07EE903A 		vmov	s15, r3	@ int
 664              		.loc 1 202 43 view .LVU161
 665 00bc F8EEE77A 		vcvt.f32.s32	s15, s15
 666 00c0 67EE877A 		vmul.f32	s15, s15, s14
 667              		.loc 1 202 55 view .LVU162
 668 00c4 67EEA67A 		vmul.f32	s15, s15, s13
 669              		.loc 1 202 9 view .LVU163
 670 00c8 C5ED017A 		vstr.32	s15, [r5, #4]
 203:MyHardWare/Src/jy61p.c ****   v->Gz = ((short)(tmp[11] << 8) | tmp[10]) / 32768.00f * 2000;
 671              		.loc 1 203 3 is_stmt 1 view .LVU164
 672              		.loc 1 203 23 is_stmt 0 view .LVU165
 673 00cc 9DF80B30 		ldrb	r3, [sp, #11]	@ zero_extendqisi2
 674              		.loc 1 203 12 view .LVU166
 675 00d0 1B02     		lsls	r3, r3, #8
 676 00d2 1BB2     		sxth	r3, r3
 677              		.loc 1 203 39 view .LVU167
 678 00d4 9DF80A20 		ldrb	r2, [sp, #10]	@ zero_extendqisi2
 679              		.loc 1 203 34 view .LVU168
 680 00d8 1343     		orrs	r3, r3, r2
 681 00da 07EE903A 		vmov	s15, r3	@ int
 682              		.loc 1 203 45 view .LVU169
 683 00de F8EEE77A 		vcvt.f32.s32	s15, s15
 684 00e2 67EE877A 		vmul.f32	s15, s15, s14
 685              		.loc 1 203 57 view .LVU170
 686 00e6 67EEA67A 		vmul.f32	s15, s15, s13
 687              		.loc 1 203 9 view .LVU171
 688 00ea C5ED027A 		vstr.32	s15, [r5, #8]
 204:MyHardWare/Src/jy61p.c **** 
 205:MyHardWare/Src/jy61p.c ****   /**** JY61p没有 ****/
 206:MyHardWare/Src/jy61p.c ****   //   ((short)(tmp[13]<<8) | tmp[12]);
 207:MyHardWare/Src/jy61p.c ****   //   ((short)(tmp[15]<<8) | tmp[14]);
 208:MyHardWare/Src/jy61p.c ****   //   ((short)(tmp[17]<<8) | tmp[16]);
 209:MyHardWare/Src/jy61p.c **** 
 210:MyHardWare/Src/jy61p.c ****   /**** 欧拉角 ****/
 211:MyHardWare/Src/jy61p.c ****   p->Roll = ((short)(tmp[19] << 8) | tmp[18]) / 32768.00f * 180;
 689              		.loc 1 211 3 is_stmt 1 view .LVU172
 690              		.loc 1 211 25 is_stmt 0 view .LVU173
 691 00ee 9DF81330 		ldrb	r3, [sp, #19]	@ zero_extendqisi2
 692              		.loc 1 211 14 view .LVU174
 693 00f2 1B02     		lsls	r3, r3, #8
ARM GAS  C:\Users\asus\AppData\Local\Temp\ccCY7esU.s 			page 17


 694 00f4 1BB2     		sxth	r3, r3
 695              		.loc 1 211 41 view .LVU175
 696 00f6 9DF81220 		ldrb	r2, [sp, #18]	@ zero_extendqisi2
 697              		.loc 1 211 36 view .LVU176
 698 00fa 1343     		orrs	r3, r3, r2
 699 00fc 07EE903A 		vmov	s15, r3	@ int
 700              		.loc 1 211 47 view .LVU177
 701 0100 F8EEE77A 		vcvt.f32.s32	s15, s15
 702 0104 67EE877A 		vmul.f32	s15, s15, s14
 703              		.loc 1 211 59 view .LVU178
 704 0108 DFED166A 		vldr.32	s13, .L44+8
 705 010c 67EEA67A 		vmul.f32	s15, s15, s13
 706              		.loc 1 211 11 view .LVU179
 707 0110 C4ED007A 		vstr.32	s15, [r4]
 212:MyHardWare/Src/jy61p.c ****   p->Pitch = ((short)(tmp[21] << 8) | tmp[20]) / 32768.00f * 180;
 708              		.loc 1 212 3 is_stmt 1 view .LVU180
 709              		.loc 1 212 26 is_stmt 0 view .LVU181
 710 0114 9DF81530 		ldrb	r3, [sp, #21]	@ zero_extendqisi2
 711              		.loc 1 212 15 view .LVU182
 712 0118 1B02     		lsls	r3, r3, #8
 713 011a 1BB2     		sxth	r3, r3
 714              		.loc 1 212 42 view .LVU183
 715 011c 9DF81420 		ldrb	r2, [sp, #20]	@ zero_extendqisi2
 716              		.loc 1 212 37 view .LVU184
 717 0120 1343     		orrs	r3, r3, r2
 718 0122 07EE903A 		vmov	s15, r3	@ int
 719              		.loc 1 212 48 view .LVU185
 720 0126 F8EEE77A 		vcvt.f32.s32	s15, s15
 721 012a 67EE877A 		vmul.f32	s15, s15, s14
 722              		.loc 1 212 60 view .LVU186
 723 012e 67EEA67A 		vmul.f32	s15, s15, s13
 724              		.loc 1 212 12 view .LVU187
 725 0132 C4ED017A 		vstr.32	s15, [r4, #4]
 213:MyHardWare/Src/jy61p.c ****   p->Yaw = ((short)(tmp[23] << 8) | tmp[22]) / 32768.00f * 180;
 726              		.loc 1 213 3 is_stmt 1 view .LVU188
 727              		.loc 1 213 24 is_stmt 0 view .LVU189
 728 0136 9DF81730 		ldrb	r3, [sp, #23]	@ zero_extendqisi2
 729              		.loc 1 213 13 view .LVU190
 730 013a 1B02     		lsls	r3, r3, #8
 731 013c 1BB2     		sxth	r3, r3
 732              		.loc 1 213 40 view .LVU191
 733 013e 9DF81620 		ldrb	r2, [sp, #22]	@ zero_extendqisi2
 734              		.loc 1 213 35 view .LVU192
 735 0142 1343     		orrs	r3, r3, r2
 736 0144 07EE903A 		vmov	s15, r3	@ int
 737              		.loc 1 213 46 view .LVU193
 738 0148 F8EEE77A 		vcvt.f32.s32	s15, s15
 739 014c 67EE877A 		vmul.f32	s15, s15, s14
 740              		.loc 1 213 58 view .LVU194
 741 0150 67EEA67A 		vmul.f32	s15, s15, s13
 742              		.loc 1 213 10 view .LVU195
 743 0154 C4ED027A 		vstr.32	s15, [r4, #8]
 214:MyHardWare/Src/jy61p.c **** }...
 744              		.loc 1 214 1 view .LVU196
 745 0158 08B0     		add	sp, sp, #32
 746              	.LCFI13:
 747              		.cfi_def_cfa_offset 16
ARM GAS  C:\Users\asus\AppData\Local\Temp\ccCY7esU.s 			page 18


 748              		@ sp needed
 749 015a 70BD     		pop	{r4, r5, r6, pc}
 750              	.LVL59:
 751              	.L45:
 752              		.loc 1 214 1 view .LVU197
 753              		.align	2
 754              	.L44:
 755 015c 00000038 		.word	939524096
 756 0160 0000FA44 		.word	1157234688
 757 0164 00003443 		.word	1127481344
 758              		.cfi_endproc
 759              	.LFE134:
 761              		.global	JY61p_AngleData
 762              		.section	.bss.JY61p_AngleData,"aw",%nobits
 763              		.align	2
 766              	JY61p_AngleData:
 767 0000 00000000 		.space	9
 767      00000000 
 767      00
 768              		.text
 769              	.Letext0:
 770              		.file 2 "C:/Program Files (x86)/Arm GNU Toolchain arm-none-eabi/13.2 Rel1/arm-none-eabi/include/ma
 771              		.file 3 "C:/Program Files (x86)/Arm GNU Toolchain arm-none-eabi/13.2 Rel1/arm-none-eabi/include/sy
 772              		.file 4 "CMSIS/stm32f4xx.h"
 773              		.file 5 "MyHardWare/Inc/jy61p.h"
 774              		.file 6 "MyHardWare/Inc/myiic.h"
 775              		.file 7 "MyHardWare/Inc/delay.h"
ARM GAS  C:\Users\asus\AppData\Local\Temp\ccCY7esU.s 			page 19

