ARM GAS  C:\Users\asus\AppData\Local\Temp\cc9ELHav.s 			page 1


   1              		.cpu cortex-m4
   2              		.arch armv7e-m
   3              		.fpu fpv4-sp-d16
   4              		.eabi_attribute 27, 1
   5              		.eabi_attribute 28, 1
   6              		.eabi_attribute 20, 1
   7              		.eabi_attribute 21, 1
   8              		.eabi_attribute 23, 3
   9              		.eabi_attribute 24, 1
  10              		.eabi_attribute 25, 1
  11              		.eabi_attribute 26, 1
  12              		.eabi_attribute 30, 1
  13              		.eabi_attribute 34, 1
  14              		.eabi_attribute 18, 4
  15              		.file	"led.c"
  16              		.text
  17              	.Ltext0:
  18              		.cfi_sections	.debug_frame
  19              		.file 1 "MyHardWare/Src/led.c"
  20              		.section	.text.led_Init,"ax",%progbits
  21              		.align	1
  22              		.global	led_Init
  23              		.syntax unified
  24              		.thumb
  25              		.thumb_func
  27              	led_Init:
  28              	.LFB123:
   1:MyHardWare/Src/led.c **** #include "led.h"
   2:MyHardWare/Src/led.c **** #include "stm32f4xx.h"
   3:MyHardWare/Src/led.c **** #include "stm32f4xx_gpio.h"
   4:MyHardWare/Src/led.c **** #include "stm32f4xx_rcc.h"
   5:MyHardWare/Src/led.c **** 
   6:MyHardWare/Src/led.c **** void led_Init(void) {
  29              		.loc 1 6 21 view -0
  30              		.cfi_startproc
  31              		@ args = 0, pretend = 0, frame = 8
  32              		@ frame_needed = 0, uses_anonymous_args = 0
  33 0000 30B5     		push	{r4, r5, lr}
  34              	.LCFI0:
  35              		.cfi_def_cfa_offset 12
  36              		.cfi_offset 4, -12
  37              		.cfi_offset 5, -8
  38              		.cfi_offset 14, -4
  39 0002 83B0     		sub	sp, sp, #12
  40              	.LCFI1:
  41              		.cfi_def_cfa_offset 24
   7:MyHardWare/Src/led.c ****   RCC_AHB1PeriphClockCmd(RCC_AHB1Periph_GPIOC, ENABLE);
  42              		.loc 1 7 3 view .LVU1
  43 0004 0121     		movs	r1, #1
  44 0006 0420     		movs	r0, #4
  45 0008 FFF7FEFF 		bl	RCC_AHB1PeriphClockCmd
  46              	.LVL0:
   8:MyHardWare/Src/led.c ****   GPIO_InitTypeDef GPIO_InitStructure;
  47              		.loc 1 8 3 view .LVU2
   9:MyHardWare/Src/led.c ****   GPIO_InitStructure.GPIO_OType = GPIO_OType_PP;
  48              		.loc 1 9 3 view .LVU3
  49              		.loc 1 9 33 is_stmt 0 view .LVU4
ARM GAS  C:\Users\asus\AppData\Local\Temp\cc9ELHav.s 			page 2


  50 000c 0023     		movs	r3, #0
  51 000e 8DF80630 		strb	r3, [sp, #6]
  10:MyHardWare/Src/led.c ****   GPIO_InitStructure.GPIO_Mode = GPIO_Mode_OUT;
  52              		.loc 1 10 3 is_stmt 1 view .LVU5
  53              		.loc 1 10 32 is_stmt 0 view .LVU6
  54 0012 0122     		movs	r2, #1
  55 0014 8DF80420 		strb	r2, [sp, #4]
  11:MyHardWare/Src/led.c ****   GPIO_InitStructure.GPIO_Pin = GPIO_Pin_13;
  56              		.loc 1 11 3 is_stmt 1 view .LVU7
  57              		.loc 1 11 31 is_stmt 0 view .LVU8
  58 0018 4FF40055 		mov	r5, #8192
  59 001c 0095     		str	r5, [sp]
  12:MyHardWare/Src/led.c ****   GPIO_InitStructure.GPIO_Speed = GPIO_Low_Speed;
  60              		.loc 1 12 3 is_stmt 1 view .LVU9
  61              		.loc 1 12 33 is_stmt 0 view .LVU10
  62 001e 8DF80530 		strb	r3, [sp, #5]
  13:MyHardWare/Src/led.c ****   GPIO_Init(GPIOC, &GPIO_InitStructure);
  63              		.loc 1 13 3 is_stmt 1 view .LVU11
  64 0022 054C     		ldr	r4, .L3
  65 0024 6946     		mov	r1, sp
  66 0026 2046     		mov	r0, r4
  67 0028 FFF7FEFF 		bl	GPIO_Init
  68              	.LVL1:
  14:MyHardWare/Src/led.c **** 
  15:MyHardWare/Src/led.c ****   // 初始化时默认熄灭 LED
  16:MyHardWare/Src/led.c ****   GPIO_SetBits(GPIOC, GPIO_Pin_13);
  69              		.loc 1 16 3 view .LVU12
  70 002c 2946     		mov	r1, r5
  71 002e 2046     		mov	r0, r4
  72 0030 FFF7FEFF 		bl	GPIO_SetBits
  73              	.LVL2:
  17:MyHardWare/Src/led.c **** }
  74              		.loc 1 17 1 is_stmt 0 view .LVU13
  75 0034 03B0     		add	sp, sp, #12
  76              	.LCFI2:
  77              		.cfi_def_cfa_offset 12
  78              		@ sp needed
  79 0036 30BD     		pop	{r4, r5, pc}
  80              	.L4:
  81              		.align	2
  82              	.L3:
  83 0038 00080240 		.word	1073874944
  84              		.cfi_endproc
  85              	.LFE123:
  87              		.section	.text.LED_On,"ax",%progbits
  88              		.align	1
  89              		.global	LED_On
  90              		.syntax unified
  91              		.thumb
  92              		.thumb_func
  94              	LED_On:
  95              	.LFB124:
  18:MyHardWare/Src/led.c **** 
  19:MyHardWare/Src/led.c **** /**
  20:MyHardWare/Src/led.c ****  * @brief  点亮 LED
  21:MyHardWare/Src/led.c ****  *         PC13 引脚输出低电平，LED 导通点亮
  22:MyHardWare/Src/led.c ****  */
ARM GAS  C:\Users\asus\AppData\Local\Temp\cc9ELHav.s 			page 3


  23:MyHardWare/Src/led.c **** void LED_On(void) { GPIO_ResetBits(GPIOC, GPIO_Pin_13); }
  96              		.loc 1 23 19 is_stmt 1 view -0
  97              		.cfi_startproc
  98              		@ args = 0, pretend = 0, frame = 0
  99              		@ frame_needed = 0, uses_anonymous_args = 0
 100 0000 08B5     		push	{r3, lr}
 101              	.LCFI3:
 102              		.cfi_def_cfa_offset 8
 103              		.cfi_offset 3, -8
 104              		.cfi_offset 14, -4
 105              		.loc 1 23 21 view .LVU15
 106 0002 4FF40051 		mov	r1, #8192
 107 0006 0248     		ldr	r0, .L7
 108 0008 FFF7FEFF 		bl	GPIO_ResetBits
 109              	.LVL3:
 110              		.loc 1 23 57 is_stmt 0 view .LVU16
 111 000c 08BD     		pop	{r3, pc}
 112              	.L8:
 113 000e 00BF     		.align	2
 114              	.L7:
 115 0010 00080240 		.word	1073874944
 116              		.cfi_endproc
 117              	.LFE124:
 119              		.section	.text.LED_Off,"ax",%progbits
 120              		.align	1
 121              		.global	LED_Off
 122              		.syntax unified
 123              		.thumb
 124              		.thumb_func
 126              	LED_Off:
 127              	.LFB125:
  24:MyHardWare/Src/led.c **** 
  25:MyHardWare/Src/led.c **** /**
  26:MyHardWare/Src/led.c ****  * @brief  熄灭 LED
  27:MyHardWare/Src/led.c ****  *         PC13 引脚输出高电平，LED 截止熄灭
  28:MyHardWare/Src/led.c ****  */
  29:MyHardWare/Src/led.c **** void LED_Off(void) { GPIO_SetBits(GPIOC, GPIO_Pin_13); }
 128              		.loc 1 29 20 is_stmt 1 view -0
 129              		.cfi_startproc
 130              		@ args = 0, pretend = 0, frame = 0
 131              		@ frame_needed = 0, uses_anonymous_args = 0
 132 0000 08B5     		push	{r3, lr}
 133              	.LCFI4:
 134              		.cfi_def_cfa_offset 8
 135              		.cfi_offset 3, -8
 136              		.cfi_offset 14, -4
 137              		.loc 1 29 22 view .LVU18
 138 0002 4FF40051 		mov	r1, #8192
 139 0006 0248     		ldr	r0, .L11
 140 0008 FFF7FEFF 		bl	GPIO_SetBits
 141              	.LVL4:
 142              		.loc 1 29 56 is_stmt 0 view .LVU19
 143 000c 08BD     		pop	{r3, pc}
 144              	.L12:
 145 000e 00BF     		.align	2
 146              	.L11:
 147 0010 00080240 		.word	1073874944
ARM GAS  C:\Users\asus\AppData\Local\Temp\cc9ELHav.s 			page 4


 148              		.cfi_endproc
 149              	.LFE125:
 151              		.section	.text.LED_Toggle,"ax",%progbits
 152              		.align	1
 153              		.global	LED_Toggle
 154              		.syntax unified
 155              		.thumb
 156              		.thumb_func
 158              	LED_Toggle:
 159              	.LFB126:
  30:MyHardWare/Src/led.c **** 
  31:MyHardWare/Src/led.c **** /**
  32:MyHardWare/Src/led.c ****  * @brief  翻转 LED 状态
  33:MyHardWare/Src/led.c ****  *         如果当前是点亮状态则熄灭，如果当前是熄灭状态则点亮
  34:MyHardWare/Src/led.c ****  */
  35:MyHardWare/Src/led.c **** void LED_Toggle(void) { GPIOC->ODR ^= GPIO_Pin_13; }...
 160              		.loc 1 35 23 is_stmt 1 view -0
 161              		.cfi_startproc
 162              		@ args = 0, pretend = 0, frame = 0
 163              		@ frame_needed = 0, uses_anonymous_args = 0
 164              		@ link register save eliminated.
 165              		.loc 1 35 25 view .LVU21
 166              		.loc 1 35 30 is_stmt 0 view .LVU22
 167 0000 024A     		ldr	r2, .L14
 168 0002 5369     		ldr	r3, [r2, #20]
 169              		.loc 1 35 36 view .LVU23
 170 0004 83F40053 		eor	r3, r3, #8192
 171 0008 5361     		str	r3, [r2, #20]
 172              		.loc 1 35 52 view .LVU24
 173 000a 7047     		bx	lr
 174              	.L15:
 175              		.align	2
 176              	.L14:
 177 000c 00080240 		.word	1073874944
 178              		.cfi_endproc
 179              	.LFE126:
 181              		.text
 182              	.Letext0:
 183              		.file 2 "C:/Program Files (x86)/Arm GNU Toolchain arm-none-eabi/13.2 Rel1/arm-none-eabi/include/ma
 184              		.file 3 "C:/Program Files (x86)/Arm GNU Toolchain arm-none-eabi/13.2 Rel1/arm-none-eabi/include/sy
 185              		.file 4 "CMSIS/stm32f4xx.h"
 186              		.file 5 "Lib/StdPeriphs/inc/stm32f4xx_gpio.h"
 187              		.file 6 "Lib/StdPeriphs/inc/stm32f4xx_rcc.h"
ARM GAS  C:\Users\asus\AppData\Local\Temp\cc9ELHav.s 			page 5

