ARM GAS  C:\Users\asus\AppData\Local\Temp\cclk8osa.s 			page 1


   1              		.cpu cortex-m4
   2              		.arch armv7e-m
   3              		.fpu fpv4-sp-d16
   4              		.eabi_attribute 27, 1
   5              		.eabi_attribute 28, 1
   6              		.eabi_attribute 20, 1
   7              		.eabi_attribute 21, 1
   8              		.eabi_attribute 23, 3
   9              		.eabi_attribute 24, 1
  10              		.eabi_attribute 25, 1
  11              		.eabi_attribute 26, 1
  12              		.eabi_attribute 30, 1
  13              		.eabi_attribute 34, 1
  14              		.eabi_attribute 18, 4
  15              		.file	"main.c"
  16              		.text
  17              	.Ltext0:
  18              		.cfi_sections	.debug_frame
  19              		.file 1 "USER/Src/main.c"
  20              		.section	.rodata.my_console_logger.str1.4,"aMS",%progbits,1
  21              		.align	2
  22              	.LC0:
  23 0000 2573205B 		.ascii	"%s [%s]: %s\000"
  23      25735D3A 
  23      20257300 
  24              		.section	.text.my_console_logger,"ax",%progbits
  25              		.align	1
  26              		.global	my_console_logger
  27              		.syntax unified
  28              		.thumb
  29              		.thumb_func
  31              	my_console_logger:
  32              	.LVL0:
  33              	.LFB126:
   1:USER/Src/main.c **** #include "delay.h"
   2:USER/Src/main.c **** #include "encoder.h" // 编码器模块
   3:USER/Src/main.c **** #include "led.h"
   4:USER/Src/main.c **** #include "motor.h"
   5:USER/Src/main.c **** #include "pid_speed.h" // 添加速度环PID控制器头文件
   6:USER/Src/main.c **** #include "rtc.h"
   7:USER/Src/main.c **** #include "stm32f4xx_gpio.h"
   8:USER/Src/main.c **** #include "stm32f4xx_usart.h"
   9:USER/Src/main.c **** #include "task.h" // 任务调度模块
  10:USER/Src/main.c **** #include "ulog.h"
  11:USER/Src/main.c **** #include "usart.h"
  12:USER/Src/main.c **** #include <stdint.h>
  13:USER/Src/main.c **** #include <stdio.h>
  14:USER/Src/main.c **** #include <stm32f4xx.h>
  15:USER/Src/main.c **** #include <string.h>
  16:USER/Src/main.c **** 
  17:USER/Src/main.c **** // 删除外部声明，让pid_speed模块内部管理实例
  18:USER/Src/main.c **** // Deleted:extern Speed_PID_Controller_t Speed_PID_Right; // 右轮速度PID控制器
  19:USER/Src/main.c **** // Deleted:extern Speed_PID_Controller_t Speed_PID_Left;  // 左轮速度PID控制器
  20:USER/Src/main.c **** 
  21:USER/Src/main.c **** void my_console_logger(ulog_level_t severity, const char *msg) {
  34              		.loc 1 21 64 view -0
  35              		.cfi_startproc
ARM GAS  C:\Users\asus\AppData\Local\Temp\cclk8osa.s 			page 2


  36              		@ args = 0, pretend = 0, frame = 0
  37              		@ frame_needed = 0, uses_anonymous_args = 0
  38              		.loc 1 21 64 is_stmt 0 view .LVU1
  39 0000 70B5     		push	{r4, r5, r6, lr}
  40              	.LCFI0:
  41              		.cfi_def_cfa_offset 16
  42              		.cfi_offset 4, -16
  43              		.cfi_offset 5, -12
  44              		.cfi_offset 6, -8
  45              		.cfi_offset 14, -4
  46 0002 0646     		mov	r6, r0
  47 0004 0D46     		mov	r5, r1
  22:USER/Src/main.c ****   printf("%s [%s]: %s",
  48              		.loc 1 22 3 is_stmt 1 view .LVU2
  49 0006 FFF7FEFF 		bl	RTC_GetNowTime
  50              	.LVL1:
  51              		.loc 1 22 3 is_stmt 0 view .LVU3
  52 000a 0446     		mov	r4, r0
  53              		.loc 1 22 3 discriminator 1 view .LVU4
  54 000c 3046     		mov	r0, r6
  55 000e FFF7FEFF 		bl	ulog_level_name
  56              	.LVL2:
  57 0012 0246     		mov	r2, r0
  58              		.loc 1 22 3 discriminator 2 view .LVU5
  59 0014 2B46     		mov	r3, r5
  60 0016 2146     		mov	r1, r4
  61 0018 0148     		ldr	r0, .L3
  62 001a FFF7FEFF 		bl	printf
  63              	.LVL3:
  23:USER/Src/main.c ****          RTC_GetNowTime(), // user defined function
  24:USER/Src/main.c ****          ulog_level_name(severity), msg);
  25:USER/Src/main.c **** }
  64              		.loc 1 25 1 view .LVU6
  65 001e 70BD     		pop	{r4, r5, r6, pc}
  66              	.LVL4:
  67              	.L4:
  68              		.loc 1 25 1 view .LVU7
  69              		.align	2
  70              	.L3:
  71 0020 00000000 		.word	.LC0
  72              		.cfi_endproc
  73              	.LFE126:
  75              		.section	.text.speed_control_task,"ax",%progbits
  76              		.align	1
  77              		.global	speed_control_task
  78              		.syntax unified
  79              		.thumb
  80              		.thumb_func
  82              	speed_control_task:
  83              	.LFB127:
  26:USER/Src/main.c **** 
  27:USER/Src/main.c **** // 10ms周期的速度环PID控制任务
  28:USER/Src/main.c **** void speed_control_task(void) {
  84              		.loc 1 28 31 is_stmt 1 view -0
  85              		.cfi_startproc
  86              		@ args = 0, pretend = 0, frame = 0
  87              		@ frame_needed = 0, uses_anonymous_args = 0
ARM GAS  C:\Users\asus\AppData\Local\Temp\cclk8osa.s 			page 3


  88 0000 08B5     		push	{r3, lr}
  89              	.LCFI1:
  90              		.cfi_def_cfa_offset 8
  91              		.cfi_offset 3, -8
  92              		.cfi_offset 14, -4
  29:USER/Src/main.c ****   // 更新右轮速度环PID控制器
  30:USER/Src/main.c ****   Speed_PID_Update(&Speed_PID_Right);
  93              		.loc 1 30 3 view .LVU9
  94 0002 0348     		ldr	r0, .L7
  95 0004 FFF7FEFF 		bl	Speed_PID_Update
  96              	.LVL5:
  31:USER/Src/main.c **** 
  32:USER/Src/main.c ****   // 更新左轮速度环PID控制器
  33:USER/Src/main.c ****   Speed_PID_Update(&Speed_PID_Left);
  97              		.loc 1 33 3 view .LVU10
  98 0008 0248     		ldr	r0, .L7+4
  99 000a FFF7FEFF 		bl	Speed_PID_Update
 100              	.LVL6:
  34:USER/Src/main.c **** }
 101              		.loc 1 34 1 is_stmt 0 view .LVU11
 102 000e 08BD     		pop	{r3, pc}
 103              	.L8:
 104              		.align	2
 105              	.L7:
 106 0010 00000000 		.word	Speed_PID_Right
 107 0014 00000000 		.word	Speed_PID_Left
 108              		.cfi_endproc
 109              	.LFE127:
 111              		.section	.text.motor_test,"ax",%progbits
 112              		.align	1
 113              		.global	motor_test
 114              		.syntax unified
 115              		.thumb
 116              		.thumb_func
 118              	motor_test:
 119              	.LFB128:
  35:USER/Src/main.c **** 
  36:USER/Src/main.c **** void motor_test(void) {
 120              		.loc 1 36 23 is_stmt 1 view -0
 121              		.cfi_startproc
 122              		@ args = 0, pretend = 0, frame = 0
 123              		@ frame_needed = 0, uses_anonymous_args = 0
 124 0000 08B5     		push	{r3, lr}
 125              	.LCFI2:
 126              		.cfi_def_cfa_offset 8
 127              		.cfi_offset 3, -8
 128              		.cfi_offset 14, -4
  37:USER/Src/main.c ****   Motor_SetSpeed(MOTOR_LEFT, 3250);  // 左电机正转，速度 4000
 129              		.loc 1 37 3 view .LVU13
 130 0002 40F6B241 		movw	r1, #3250
 131 0006 0120     		movs	r0, #1
 132 0008 FFF7FEFF 		bl	Motor_SetSpeed
 133              	.LVL7:
  38:USER/Src/main.c ****   Motor_SetSpeed(MOTOR_RIGHT, 3250); // 右电机正转，速度 4000
 134              		.loc 1 38 3 view .LVU14
 135 000c 40F6B241 		movw	r1, #3250
 136 0010 0020     		movs	r0, #0
ARM GAS  C:\Users\asus\AppData\Local\Temp\cclk8osa.s 			page 4


 137 0012 FFF7FEFF 		bl	Motor_SetSpeed
 138              	.LVL8:
  39:USER/Src/main.c ****   Motor_SetDirection(MOTOR_LEFT, MOTOR_DIR_FORWARD);
 139              		.loc 1 39 3 view .LVU15
 140 0016 0121     		movs	r1, #1
 141 0018 0846     		mov	r0, r1
 142 001a FFF7FEFF 		bl	Motor_SetDirection
 143              	.LVL9:
  40:USER/Src/main.c ****   Motor_SetDirection(MOTOR_RIGHT, MOTOR_DIR_FORWARD);
 144              		.loc 1 40 3 view .LVU16
 145 001e 0121     		movs	r1, #1
 146 0020 0020     		movs	r0, #0
 147 0022 FFF7FEFF 		bl	Motor_SetDirection
 148              	.LVL10:
  41:USER/Src/main.c **** 
  42:USER/Src/main.c ****   // 更新电机状态，将配置应用到硬件
  43:USER/Src/main.c ****   Motor_Update(MOTOR_LEFT);
 149              		.loc 1 43 3 view .LVU17
 150 0026 0120     		movs	r0, #1
 151 0028 FFF7FEFF 		bl	Motor_Update
 152              	.LVL11:
  44:USER/Src/main.c ****   Motor_Update(MOTOR_RIGHT);
 153              		.loc 1 44 3 view .LVU18
 154 002c 0020     		movs	r0, #0
 155 002e FFF7FEFF 		bl	Motor_Update
 156              	.LVL12:
  45:USER/Src/main.c **** }
 157              		.loc 1 45 1 is_stmt 0 view .LVU19
 158 0032 08BD     		pop	{r3, pc}
 159              		.cfi_endproc
 160              	.LFE128:
 162              		.section	.rodata.main.str1.4,"aMS",%progbits,1
 163              		.align	2
 164              	.LC1:
 165 0000 68656C6C 		.ascii	"hello world\015\000"
 165      6F20776F 
 165      726C640D 
 165      00
 166 000d 000000   		.align	2
 167              	.LC2:
 168 0010 74686973 		.ascii	"this is %d:\015\012\000"
 168      20697320 
 168      25643A0D 
 168      0A00
 169              		.global	__aeabi_f2d
 170 001e 0000     		.align	2
 171              	.LC3:
 172 0020 52696768 		.ascii	"Right Encoder - Count: %d, speed: %.2f m/s\015\012\000"
 172      7420456E 
 172      636F6465 
 172      72202D20 
 172      436F756E 
 173 004d 000000   		.align	2
 174              	.LC4:
 175 0050 4C656674 		.ascii	"Left Encoder - Count: %d, speed: %.2f m/s\015\012\000"
 175      20456E63 
 175      6F646572 
ARM GAS  C:\Users\asus\AppData\Local\Temp\cclk8osa.s 			page 5


 175      202D2043 
 175      6F756E74 
 176              		.align	2
 177              	.LC5:
 178 007c 0D00     		.ascii	"\015\000"
 179              		.section	.text.main,"ax",%progbits
 180              		.align	1
 181              		.global	main
 182              		.syntax unified
 183              		.thumb
 184              		.thumb_func
 186              	main:
 187              	.LFB129:
  46:USER/Src/main.c **** 
  47:USER/Src/main.c **** int main() {
 188              		.loc 1 47 12 is_stmt 1 view -0
 189              		.cfi_startproc
 190              		@ args = 0, pretend = 0, frame = 112
 191              		@ frame_needed = 0, uses_anonymous_args = 0
 192 0000 10B5     		push	{r4, lr}
 193              	.LCFI3:
 194              		.cfi_def_cfa_offset 8
 195              		.cfi_offset 4, -8
 196              		.cfi_offset 14, -4
 197 0002 9CB0     		sub	sp, sp, #112
 198              	.LCFI4:
 199              		.cfi_def_cfa_offset 120
  48:USER/Src/main.c ****   int arg = 42;
 200              		.loc 1 48 3 view .LVU21
 201              	.LVL13:
  49:USER/Src/main.c ****   led_Init();
 202              		.loc 1 49 3 view .LVU22
 203 0004 FFF7FEFF 		bl	led_Init
 204              	.LVL14:
  50:USER/Src/main.c ****   LED_Off();
 205              		.loc 1 50 3 view .LVU23
 206 0008 FFF7FEFF 		bl	LED_Off
 207              	.LVL15:
  51:USER/Src/main.c ****   Motor_Driver_Init();
 208              		.loc 1 51 3 view .LVU24
 209 000c FFF7FEFF 		bl	Motor_Driver_Init
 210              	.LVL16:
  52:USER/Src/main.c **** 
  53:USER/Src/main.c ****   // 初始化编码器模块
  54:USER/Src/main.c ****   Encoder_Driver_Init();
 211              		.loc 1 54 3 view .LVU25
 212 0010 FFF7FEFF 		bl	Encoder_Driver_Init
 213              	.LVL17:
  55:USER/Src/main.c **** 
  56:USER/Src/main.c ****   // 初始化任务调度系统
  57:USER/Src/main.c ****   // Task_Init();
  58:USER/Src/main.c ****   /*
  59:USER/Src/main.c **** 
  60:USER/Src/main.c ****     // 初始化速度环PID控制器
  61:USER/Src/main.c ****     // 右轮: 关联ENCODER_RIGHT编码器和MOTOR_RIGHT电机
  62:USER/Src/main.c ****     Speed_PID_Init(&Speed_PID_Right, ENCODER_RIGHT, MOTOR_RIGHT,
  63:USER/Src/main.c ****                    SPEED_PID_KP_DEFAULT, SPEED_PID_KI_DEFAULT,
ARM GAS  C:\Users\asus\AppData\Local\Temp\cclk8osa.s 			page 6


  64:USER/Src/main.c ****                    SPEED_PID_KD_DEFAULT);
  65:USER/Src/main.c **** 
  66:USER/Src/main.c ****     // 左轮: 关联ENCODER_LEFT编码器和MOTOR_LEFT电机
  67:USER/Src/main.c ****     Speed_PID_Init(&Speed_PID_Left, ENCODER_LEFT, MOTOR_LEFT,
  68:USER/Src/main.c ****                    SPEED_PID_KP_DEFAULT, SPEED_PID_KI_DEFAULT,
  69:USER/Src/main.c ****                    SPEED_PID_KD_DEFAULT);
  70:USER/Src/main.c **** 
  71:USER/Src/main.c ****     // 设置目标速度（例如0.5m/s）
  72:USER/Src/main.c ****     Speed_PID_SetTargetSpeed(&Speed_PID_Right, 0.5f);
  73:USER/Src/main.c ****     Speed_PID_SetTargetSpeed(&Speed_PID_Left, 0.5f);
  74:USER/Src/main.c **** 
  75:USER/Src/main.c ****     // 启用速度环PID控制
  76:USER/Src/main.c ****     Speed_PID_Enable(&Speed_PID_Right);
  77:USER/Src/main.c ****     Speed_PID_Enable(&Speed_PID_Left);
  78:USER/Src/main.c **** 
  79:USER/Src/main.c ****     // 添加10ms周期的速度控制任务
  80:USER/Src/main.c ****     add_task(speed_control_task, SPEED_PID_SAMPLE_PERIOD_MS);
  81:USER/Src/main.c ****     */
  82:USER/Src/main.c **** 
  83:USER/Src/main.c ****   USART1_Init();
 214              		.loc 1 83 3 view .LVU26
 215 0014 FFF7FEFF 		bl	USART1_Init
 216              	.LVL18:
  84:USER/Src/main.c ****   printf("hello world\r\n");
 217              		.loc 1 84 3 view .LVU27
 218 0018 2248     		ldr	r0, .L14
 219 001a FFF7FEFF 		bl	puts
 220              	.LVL19:
  85:USER/Src/main.c **** 
  86:USER/Src/main.c ****   delay_init();
 221              		.loc 1 86 3 view .LVU28
 222 001e FFF7FEFF 		bl	delay_init
 223              	.LVL20:
  87:USER/Src/main.c ****   Encoder_Data_t encoder_data;
 224              		.loc 1 87 3 view .LVU29
  88:USER/Src/main.c ****   uint32_t count = 0;
 225              		.loc 1 88 3 view .LVU30
  89:USER/Src/main.c ****   motor_test();
 226              		.loc 1 89 3 view .LVU31
 227 0022 FFF7FEFF 		bl	motor_test
 228              	.LVL21:
  88:USER/Src/main.c ****   uint32_t count = 0;
 229              		.loc 1 88 12 is_stmt 0 view .LVU32
 230 0026 0024     		movs	r4, #0
 231              	.LVL22:
 232              	.L12:
  90:USER/Src/main.c ****   while (1) {
 233              		.loc 1 90 3 is_stmt 1 view .LVU33
  91:USER/Src/main.c ****     GPIO_ToggleBits(GPIOC, 13);
 234              		.loc 1 91 5 view .LVU34
 235 0028 0D21     		movs	r1, #13
 236 002a 1F48     		ldr	r0, .L14+4
 237 002c FFF7FEFF 		bl	GPIO_ToggleBits
 238              	.LVL23:
  92:USER/Src/main.c ****     delay_ms(100);
 239              		.loc 1 92 5 view .LVU35
 240 0030 6420     		movs	r0, #100
ARM GAS  C:\Users\asus\AppData\Local\Temp\cclk8osa.s 			page 7


 241 0032 FFF7FEFF 		bl	delay_ms
 242              	.LVL24:
  93:USER/Src/main.c ****     printf("this is %d:\r\n", count);
 243              		.loc 1 93 5 view .LVU36
 244 0036 2146     		mov	r1, r4
 245 0038 1C48     		ldr	r0, .L14+8
 246 003a FFF7FEFF 		bl	printf
 247              	.LVL25:
  94:USER/Src/main.c ****     encoder_data = Encoder_GetData(ENCODER_RIGHT);
 248              		.loc 1 94 5 view .LVU37
 249              		.loc 1 94 20 is_stmt 0 view .LVU38
 250 003e 0021     		movs	r1, #0
 251 0040 0FA8     		add	r0, sp, #60
 252 0042 FFF7FEFF 		bl	Encoder_GetData
 253              	.LVL26:
  95:USER/Src/main.c ****     printf("Right Encoder - Count: %d, speed: %.2f m/s\r\n", encoder_data.count,
 254              		.loc 1 95 5 is_stmt 1 view .LVU39
 255 0046 1598     		ldr	r0, [sp, #84]	@ float
 256 0048 FFF7FEFF 		bl	__aeabi_f2d
 257              	.LVL27:
 258 004c 0246     		mov	r2, r0
 259 004e 0B46     		mov	r3, r1
 260 0050 0F99     		ldr	r1, [sp, #60]
 261 0052 1748     		ldr	r0, .L14+12
 262 0054 FFF7FEFF 		bl	printf
 263              	.LVL28:
  96:USER/Src/main.c ****            encoder_data.speed_m_s);
  97:USER/Src/main.c ****     encoder_data = Encoder_GetData(ENCODER_LEFT);
 264              		.loc 1 97 5 view .LVU40
 265              		.loc 1 97 20 is_stmt 0 view .LVU41
 266 0058 0121     		movs	r1, #1
 267 005a 6846     		mov	r0, sp
 268 005c FFF7FEFF 		bl	Encoder_GetData
 269              	.LVL29:
 270 0060 0DF13C0C 		add	ip, sp, #60
 271 0064 EE46     		mov	lr, sp
 272 0066 BEE80F00 		ldmia	lr!, {r0, r1, r2, r3}
 273 006a ACE80F00 		stmia	ip!, {r0, r1, r2, r3}
 274 006e BEE80F00 		ldmia	lr!, {r0, r1, r2, r3}
 275 0072 ACE80F00 		stmia	ip!, {r0, r1, r2, r3}
 276 0076 BEE80F00 		ldmia	lr!, {r0, r1, r2, r3}
 277 007a ACE80F00 		stmia	ip!, {r0, r1, r2, r3}
 278 007e DEF80030 		ldr	r3, [lr]
 279 0082 CCF80030 		str	r3, [ip]
  98:USER/Src/main.c ****     printf("Left Encoder - Count: %d, speed: %.2f m/s\r\n", encoder_data.count,
 280              		.loc 1 98 5 is_stmt 1 view .LVU42
 281 0086 1598     		ldr	r0, [sp, #84]	@ float
 282 0088 FFF7FEFF 		bl	__aeabi_f2d
 283              	.LVL30:
 284 008c 0246     		mov	r2, r0
 285 008e 0B46     		mov	r3, r1
 286 0090 0F99     		ldr	r1, [sp, #60]
 287 0092 0848     		ldr	r0, .L14+16
 288 0094 FFF7FEFF 		bl	printf
 289              	.LVL31:
  99:USER/Src/main.c ****            encoder_data.speed_m_s);
 100:USER/Src/main.c ****     printf("\r\n");
ARM GAS  C:\Users\asus\AppData\Local\Temp\cclk8osa.s 			page 8


 290              		.loc 1 100 5 view .LVU43
 291 0098 0748     		ldr	r0, .L14+20
 292 009a FFF7FEFF 		bl	puts
 293              	.LVL32:
 101:USER/Src/main.c ****     count++;
 294              		.loc 1 101 5 discriminator 1 view .LVU44
 295              		.loc 1 101 10 is_stmt 0 discriminator 1 view .LVU45
 296 009e 0134     		adds	r4, r4, #1
 297              	.LVL33:
  90:USER/Src/main.c ****     GPIO_ToggleBits(GPIOC, 13);
 298              		.loc 1 90 9 is_stmt 1 view .LVU46
 299 00a0 C2E7     		b	.L12
 300              	.L15:
 301 00a2 00BF     		.align	2
 302              	.L14:
 303 00a4 00000000 		.word	.LC1
 304 00a8 00080240 		.word	1073874944
 305 00ac 10000000 		.word	.LC2
 306 00b0 20000000 		.word	.LC3
 307 00b4 50000000 		.word	.LC4
 308 00b8 7C000000 		.word	.LC5
 309              		.cfi_endproc
 310              	.LFE129:
 312              		.text
 313              	.Letext0:
 314              		.file 2 "C:/Program Files (x86)/Arm GNU Toolchain arm-none-eabi/13.2 Rel1/arm-none-eabi/include/ma
 315              		.file 3 "C:/Program Files (x86)/Arm GNU Toolchain arm-none-eabi/13.2 Rel1/arm-none-eabi/include/sy
 316              		.file 4 "CMSIS/stm32f4xx.h"
 317              		.file 5 "MyHardWare/Inc/encoder.h"
 318              		.file 6 "MyHardWare/Inc/motor.h"
 319              		.file 7 "MyHardWare/Inc/pid_speed.h"
 320              		.file 8 "MyHardWare/Inc/ulog.h"
 321              		.file 9 "MyHardWare/Inc/delay.h"
 322              		.file 10 "Lib/StdPeriphs/inc/stm32f4xx_gpio.h"
 323              		.file 11 "MyHardWare/Inc/usart.h"
 324              		.file 12 "MyHardWare/Inc/led.h"
 325              		.file 13 "C:/Program Files (x86)/Arm GNU Toolchain arm-none-eabi/13.2 Rel1/arm-none-eabi/include/s
 326              		.file 14 "MyHardWare/Inc/rtc.h"
 327              		.file 15 "<built-in>"
ARM GAS  C:\Users\asus\AppData\Local\Temp\cclk8osa.s 			page 9


DEFINED SYMBOLS
                            *ABS*:00000000 main.c
C:\Users\asus\AppData\Local\Temp\cclk8osa.s:21     .rodata.my_console_logger.str1.4:00000000 $d
C:\Users\asus\AppData\Local\Temp\cclk8osa.s:25     .text.my_console_logger:00000000 $t
C:\Users\asus\AppData\Local\Temp\cclk8osa.s:31     .text.my_console_logger:00000000 my_console_logger
C:\Users\asus\AppData\Local\Temp\cclk8osa.s:71     .text.my_console_logger:00000020 $d
C:\Users\asus\AppData\Local\Temp\cclk8osa.s:76     .text.speed_control_task:00000000 $t
C:\Users\asus\AppData\Local\Temp\cclk8osa.s:82     .text.speed_control_task:00000000 speed_control_task
C:\Users\asus\AppData\Local\Temp\cclk8osa.s:106    .text.speed_control_task:00000010 $d
C:\Users\asus\AppData\Local\Temp\cclk8osa.s:112    .text.motor_test:00000000 $t
C:\Users\asus\AppData\Local\Temp\cclk8osa.s:118    .text.motor_test:00000000 motor_test
C:\Users\asus\AppData\Local\Temp\cclk8osa.s:163    .rodata.main.str1.4:00000000 $d
C:\Users\asus\AppData\Local\Temp\cclk8osa.s:180    .text.main:00000000 $t
C:\Users\asus\AppData\Local\Temp\cclk8osa.s:186    .text.main:00000000 main
C:\Users\asus\AppData\Local\Temp\cclk8osa.s:303    .text.main:000000a4 $d

UNDEFINED SYMBOLS
RTC_GetNowTime
ulog_level_name
printf
Speed_PID_Update
Speed_PID_Right
Speed_PID_Left
Motor_SetSpeed
Motor_SetDirection
Motor_Update
__aeabi_f2d
led_Init
LED_Off
Motor_Driver_Init
Encoder_Driver_Init
USART1_Init
puts
delay_init
GPIO_ToggleBits
delay_ms
Encoder_GetData
