ARM GAS  C:\Users\asus\AppData\Local\Temp\ccZFpV1F.s 			page 1


   1              		.cpu cortex-m4
   2              		.arch armv7e-m
   3              		.fpu fpv4-sp-d16
   4              		.eabi_attribute 27, 1
   5              		.eabi_attribute 28, 1
   6              		.eabi_attribute 20, 1
   7              		.eabi_attribute 21, 1
   8              		.eabi_attribute 23, 3
   9              		.eabi_attribute 24, 1
  10              		.eabi_attribute 25, 1
  11              		.eabi_attribute 26, 1
  12              		.eabi_attribute 30, 1
  13              		.eabi_attribute 34, 1
  14              		.eabi_attribute 18, 4
  15              		.file	"motor.c"
  16              		.text
  17              	.Ltext0:
  18              		.cfi_sections	.debug_frame
  19              		.file 1 "MyHardWare/Src/motor.c"
  20              		.section	.text.Motor_TIM_Init,"ax",%progbits
  21              		.align	1
  22              		.syntax unified
  23              		.thumb
  24              		.thumb_func
  26              	Motor_TIM_Init:
  27              	.LVL0:
  28              	.LFB129:
   1:MyHardWare/Src/motor.c **** /**
   2:MyHardWare/Src/motor.c ****  * @file motor.c
   3:MyHardWare/Src/motor.c ****  * @brief з”өжңәPWMй©ұеҠЁе®һзҺ°ж–Үд»¶ - жҷәиғҪиҪҰдё“з”ЁпјҲйқўеҗ‘еҜ№иұЎйЈҺж јпјү
   4:MyHardWare/Src/motor.c ****  * @version 2.0
   5:MyHardWare/Src/motor.c ****  * @date 2026-03-04
   6:MyHardWare/Src/motor.c ****  */
   7:MyHardWare/Src/motor.c **** 
   8:MyHardWare/Src/motor.c **** #include "motor.h"
   9:MyHardWare/Src/motor.c **** #include "stddef.h"
  10:MyHardWare/Src/motor.c **** #include "stm32f4xx_gpio.h"
  11:MyHardWare/Src/motor.c **** #include "stm32f4xx_tim.h"
  12:MyHardWare/Src/motor.c **** 
  13:MyHardWare/Src/motor.c **** /* ==================== е…ЁеұҖз”өжңәе®һдҫӢе®ҡд№ү ==================== */
  14:MyHardWare/Src/motor.c **** // еӣӣй©ұжЁЎејҸз”өжңәе®һдҫӢ
  15:MyHardWare/Src/motor.c **** #ifdef QUAD_MOTOR_DRIVE
  16:MyHardWare/Src/motor.c **** Motor_Class_t Motor_FR = {0};
  17:MyHardWare/Src/motor.c **** Motor_Class_t Motor_FL = {0};
  18:MyHardWare/Src/motor.c **** Motor_Class_t Motor_BR = {0};
  19:MyHardWare/Src/motor.c **** Motor_Class_t Motor_BL = {0};
  20:MyHardWare/Src/motor.c **** #else
  21:MyHardWare/Src/motor.c **** // еҸҢй©ұжЁЎејҸз”өжңәе®һдҫӢ
  22:MyHardWare/Src/motor.c **** static Motor_Class_t Motor_Left = {0, MOTOR_DIR_STOP, MOTOR_LEFT,
  23:MyHardWare/Src/motor.c ****                                    MOTOR_FL_PWM_TIM, MOTOR_FL_PWM_CHANNEL};
  24:MyHardWare/Src/motor.c **** static Motor_Class_t Motor_Right = {0, MOTOR_DIR_STOP, MOTOR_RIGHT,
  25:MyHardWare/Src/motor.c ****                                     MOTOR_FR_PWM_TIM, MOTOR_FR_PWM_CHANNEL};
  26:MyHardWare/Src/motor.c **** #endif
  27:MyHardWare/Src/motor.c **** 
  28:MyHardWare/Src/motor.c **** /* ==================== з§ҒжңүеҮҪж•°еЈ°жҳҺ ==================== */
  29:MyHardWare/Src/motor.c **** static void Motor_GPIO_Init(void);
  30:MyHardWare/Src/motor.c **** static void Motor_TIM_Init(TIM_TypeDef *tim, uint32_t tim_clk);
ARM GAS  C:\Users\asus\AppData\Local\Temp\ccZFpV1F.s 			page 2


  31:MyHardWare/Src/motor.c **** static void Motor_TIM_Channel_Init(TIM_TypeDef *tim, uint16_t channel);
  32:MyHardWare/Src/motor.c **** 
  33:MyHardWare/Src/motor.c **** //* ==================== йҖҡз”ЁеҮҪж•°пјҡMotorж“ҚжҺ§ ==================== */
  34:MyHardWare/Src/motor.c **** /**
  35:MyHardWare/Src/motor.c ****  * @brief йҖҡз”Ёз”өжңәйҖҹеәҰи®ҫзҪ®еҮҪж•°
  36:MyHardWare/Src/motor.c ****  * @param motor з”өжңә ID (MOTOR_FR/MOTOR_FL/MOTOR_BR/MOTOR_BL жҲ–
  37:MyHardWare/Src/motor.c ****  * MOTOR_RIGHT/MOTOR_LEFT)
  38:MyHardWare/Src/motor.c ****  * @param speed йҖҹеәҰеҖј (-MOTOR_PWM_MAX_DUTY ~ +MOTOR_PWM_MAX_DUTY)
  39:MyHardWare/Src/motor.c ****  *              жӯЈеҖјпјҡжӯЈиҪ¬пјҢиҙҹеҖјпјҡеҸҚиҪ¬HпјҢ0 пјҡеҒңжӯў
  40:MyHardWare/Src/motor.c ****  *
  41:MyHardWare/Src/motor.c ****  * @note жӯӨеҮҪж•°д»…дҝ®ж”№з”өжңәе®һдҫӢзҡ„ _speed жҲҗе‘ҳеҸҳйҮҸпјҢдёҚзӣҙжҺҘж“ҚдҪңзЎ¬д»¶,
  42:MyHardWare/Src/motor.c ****  * speedжңҖеҘҪдёҚиҰҒдј е…ҘиҙҹеҖјпјҢдј е…ҘиҙҹеҖјзҗҶи®әдёҠе°ұиҰҒеҺ»ж”№motorзҡ„directionеҸҳйҮҸпјҢжҡӮдё
  43:MyHardWare/Src/motor.c ****  */
  44:MyHardWare/Src/motor.c **** void Motor_SetSpeed(Motor_Id_e motor, int16_t speed) {
  45:MyHardWare/Src/motor.c ****   Motor_Class_t *inst = NULL;
  46:MyHardWare/Src/motor.c **** 
  47:MyHardWare/Src/motor.c **** #ifdef QUAD_MOTOR_DRIVE
  48:MyHardWare/Src/motor.c ****   switch (motor) {
  49:MyHardWare/Src/motor.c ****   case MOTOR_FR:
  50:MyHardWare/Src/motor.c ****     inst = &Motor_FR;
  51:MyHardWare/Src/motor.c ****     break;
  52:MyHardWare/Src/motor.c ****   case MOTOR_FL:
  53:MyHardWare/Src/motor.c ****     inst = &Motor_FL;
  54:MyHardWare/Src/motor.c ****     break;
  55:MyHardWare/Src/motor.c ****   case MOTOR_BR:
  56:MyHardWare/Src/motor.c ****     inst = &Motor_BR;
  57:MyHardWare/Src/motor.c ****     break;
  58:MyHardWare/Src/motor.c ****   case MOTOR_BL:
  59:MyHardWare/Src/motor.c ****     inst = &Motor_BL;
  60:MyHardWare/Src/motor.c ****     break;
  61:MyHardWare/Src/motor.c ****   default:
  62:MyHardWare/Src/motor.c ****     return;
  63:MyHardWare/Src/motor.c ****   }
  64:MyHardWare/Src/motor.c **** #else
  65:MyHardWare/Src/motor.c ****   switch (motor) {
  66:MyHardWare/Src/motor.c ****   case MOTOR_RIGHT:
  67:MyHardWare/Src/motor.c ****     inst = &Motor_Right;
  68:MyHardWare/Src/motor.c ****     break;
  69:MyHardWare/Src/motor.c ****   case MOTOR_LEFT:
  70:MyHardWare/Src/motor.c ****     inst = &Motor_Left;
  71:MyHardWare/Src/motor.c ****     break;
  72:MyHardWare/Src/motor.c ****   default:
  73:MyHardWare/Src/motor.c ****     return;
  74:MyHardWare/Src/motor.c ****   }
  75:MyHardWare/Src/motor.c **** #endif
  76:MyHardWare/Src/motor.c **** 
  77:MyHardWare/Src/motor.c ****   // йҷҗеҲ¶йҖҹеәҰиҢғеӣҙ
  78:MyHardWare/Src/motor.c ****   if (speed > MOTOR_PWM_MAX_DUTY) {
  79:MyHardWare/Src/motor.c ****     speed = MOTOR_PWM_MAX_DUTY;
  80:MyHardWare/Src/motor.c ****   } else if (speed < -MOTOR_PWM_MAX_DUTY) {
  81:MyHardWare/Src/motor.c ****     speed = -MOTOR_PWM_MAX_DUTY;
  82:MyHardWare/Src/motor.c ****   }
  83:MyHardWare/Src/motor.c **** 
  84:MyHardWare/Src/motor.c ****   // жӣҙж–°йҖҹеәҰеҸҳйҮҸ
  85:MyHardWare/Src/motor.c ****   inst->_speed = speed;
  86:MyHardWare/Src/motor.c **** }
  87:MyHardWare/Src/motor.c **** 
ARM GAS  C:\Users\asus\AppData\Local\Temp\ccZFpV1F.s 			page 3


  88:MyHardWare/Src/motor.c **** /**
  89:MyHardWare/Src/motor.c ****  * @brief йҖҡз”Ёз”өжңәж–№еҗ‘и®ҫзҪ®еҮҪж•°
  90:MyHardWare/Src/motor.c ****  * @param motor з”өжңә ID
  91:MyHardWare/Src/motor.c ****  * @param dir ж–№еҗ‘
  92:MyHardWare/Src/motor.c ****  * (MOTOR_DIR_FORWARD/MOTOR_DIR_BACKWARD/MOTOR_DIR_STOP/MOTOR_DIR_BRAKE)
  93:MyHardWare/Src/motor.c ****  *
  94:MyHardWare/Src/motor.c ****  * @note жӯӨеҮҪж•°д»…дҝ®ж”№з”өжңәе®һдҫӢзҡ„ _direction жҲҗе‘ҳеҸҳйҮҸпјҢдёҚзӣҙжҺҘж“ҚдҪңзЎ¬д»¶
  95:MyHardWare/Src/motor.c ****  */
  96:MyHardWare/Src/motor.c **** void Motor_SetDirection(Motor_Id_e motor, Motor_Direction_e dir) {
  97:MyHardWare/Src/motor.c ****   Motor_Class_t *inst = NULL;
  98:MyHardWare/Src/motor.c **** 
  99:MyHardWare/Src/motor.c **** #ifdef QUAD_MOTOR_DRIVE
 100:MyHardWare/Src/motor.c ****   switch (motor) {
 101:MyHardWare/Src/motor.c ****   case MOTOR_FR:
 102:MyHardWare/Src/motor.c ****     inst = &Motor_FR;
 103:MyHardWare/Src/motor.c ****     break;
 104:MyHardWare/Src/motor.c ****   case MOTOR_FL:
 105:MyHardWare/Src/motor.c ****     inst = &Motor_FL;
 106:MyHardWare/Src/motor.c ****     break;
 107:MyHardWare/Src/motor.c ****   case MOTOR_BR:
 108:MyHardWare/Src/motor.c ****     inst = &Motor_BR;
 109:MyHardWare/Src/motor.c ****     break;
 110:MyHardWare/Src/motor.c ****   case MOTOR_BL:
 111:MyHardWare/Src/motor.c ****     inst = &Motor_BL;
 112:MyHardWare/Src/motor.c ****     break;
 113:MyHardWare/Src/motor.c ****   default:
 114:MyHardWare/Src/motor.c ****     return;
 115:MyHardWare/Src/motor.c ****   }
 116:MyHardWare/Src/motor.c **** #else
 117:MyHardWare/Src/motor.c ****   switch (motor) {
 118:MyHardWare/Src/motor.c ****   case MOTOR_RIGHT:
 119:MyHardWare/Src/motor.c ****     inst = &Motor_Right;
 120:MyHardWare/Src/motor.c ****     break;
 121:MyHardWare/Src/motor.c ****   case MOTOR_LEFT:
 122:MyHardWare/Src/motor.c ****     inst = &Motor_Left;
 123:MyHardWare/Src/motor.c ****     break;
 124:MyHardWare/Src/motor.c ****   default:
 125:MyHardWare/Src/motor.c ****     return;
 126:MyHardWare/Src/motor.c ****   }
 127:MyHardWare/Src/motor.c **** #endif
 128:MyHardWare/Src/motor.c **** 
 129:MyHardWare/Src/motor.c ****   // жӣҙж–°ж–№еҗ‘еҸҳйҮҸ
 130:MyHardWare/Src/motor.c ****   inst->_direction = dir;
 131:MyHardWare/Src/motor.c **** }
 132:MyHardWare/Src/motor.c **** 
 133:MyHardWare/Src/motor.c **** /**
 134:MyHardWare/Src/motor.c ****  * @brief йҖҡз”Ёз”өжңәзЎ¬д»¶жӣҙж–°еҮҪж•°
 135:MyHardWare/Src/motor.c ****  * @param motor з”өжңә ID
 136:MyHardWare/Src/motor.c ****  *
 137:MyHardWare/Src/motor.c ****  * @details ж №жҚ®з”өжңәе®һдҫӢзҡ„ _speed е’Ң _direction жҲҗе‘ҳеҸҳйҮҸжӣҙж–°зЎ¬д»¶зҠ¶жҖҒпјҡ
 138:MyHardWare/Src/motor.c ****  *          1. ж №жҚ® _direction и®ҫзҪ® GPIO ж–№еҗ‘жҺ§еҲ¶еј•и„ҡ
 139:MyHardWare/Src/motor.c ****  *          2. ж №жҚ® |_speed| и®ҫзҪ® PWM еҚ з©әжҜ”
 140:MyHardWare/Src/motor.c ****  *
 141:MyHardWare/Src/motor.c ****  * @note и°ғз”ЁжӯӨеҮҪж•°еүҚеә”е…Ҳи°ғз”Ё Motor_SetSpeed е’Ң/жҲ– Motor_SetDirection
 142:MyHardWare/Src/motor.c ****  */
 143:MyHardWare/Src/motor.c **** void Motor_Update(Motor_Id_e motor) {
 144:MyHardWare/Src/motor.c ****   Motor_Class_t *inst = NULL;
ARM GAS  C:\Users\asus\AppData\Local\Temp\ccZFpV1F.s 			page 4


 145:MyHardWare/Src/motor.c **** 
 146:MyHardWare/Src/motor.c **** #ifdef QUAD_MOTOR_DRIVE
 147:MyHardWare/Src/motor.c ****   switch (motor) {
 148:MyHardWare/Src/motor.c ****   case MOTOR_FR:
 149:MyHardWare/Src/motor.c ****     inst = &Motor_FR;
 150:MyHardWare/Src/motor.c ****     break;
 151:MyHardWare/Src/motor.c ****   case MOTOR_FL:
 152:MyHardWare/Src/motor.c ****     inst = &Motor_FL;
 153:MyHardWare/Src/motor.c ****     break;
 154:MyHardWare/Src/motor.c ****   case MOTOR_BR:
 155:MyHardWare/Src/motor.c ****     inst = &Motor_BR;
 156:MyHardWare/Src/motor.c ****     break;
 157:MyHardWare/Src/motor.c ****   case MOTOR_BL:
 158:MyHardWare/Src/motor.c ****     inst = &Motor_BL;
 159:MyHardWare/Src/motor.c ****     break;
 160:MyHardWare/Src/motor.c ****   default:
 161:MyHardWare/Src/motor.c ****     return;
 162:MyHardWare/Src/motor.c ****   }
 163:MyHardWare/Src/motor.c **** #else
 164:MyHardWare/Src/motor.c ****   switch (motor) {
 165:MyHardWare/Src/motor.c ****   case MOTOR_RIGHT:
 166:MyHardWare/Src/motor.c ****     inst = &Motor_Right;
 167:MyHardWare/Src/motor.c ****     break;
 168:MyHardWare/Src/motor.c ****   case MOTOR_LEFT:
 169:MyHardWare/Src/motor.c ****     inst = &Motor_Left;
 170:MyHardWare/Src/motor.c ****     break;
 171:MyHardWare/Src/motor.c ****   default:
 172:MyHardWare/Src/motor.c ****     return;
 173:MyHardWare/Src/motor.c ****   }
 174:MyHardWare/Src/motor.c **** #endif
 175:MyHardWare/Src/motor.c **** 
 176:MyHardWare/Src/motor.c ****   // ж №жҚ® direction и®ҫзҪ® GPIO
 177:MyHardWare/Src/motor.c ****   GPIO_TypeDef *dir_port;
 178:MyHardWare/Src/motor.c ****   uint16_t dir1_pin, dir2_pin;
 179:MyHardWare/Src/motor.c **** 
 180:MyHardWare/Src/motor.c **** #ifdef QUAD_MOTOR_DRIVE
 181:MyHardWare/Src/motor.c ****   switch (motor) {
 182:MyHardWare/Src/motor.c ****   case MOTOR_FR:
 183:MyHardWare/Src/motor.c ****     dir_port = MOTOR_FR_DIR_PORT;
 184:MyHardWare/Src/motor.c ****     dir1_pin = MOTOR_FR_DIR1_PIN;
 185:MyHardWare/Src/motor.c ****     dir2_pin = MOTOR_FR_DIR2_PIN;
 186:MyHardWare/Src/motor.c ****     break;
 187:MyHardWare/Src/motor.c ****   case MOTOR_FL:
 188:MyHardWare/Src/motor.c ****     dir_port = MOTOR_FL_DIR_PORT;
 189:MyHardWare/Src/motor.c ****     dir1_pin = MOTOR_FL_DIR1_PIN;
 190:MyHardWare/Src/motor.c ****     dir2_pin = MOTOR_FL_DIR2_PIN;
 191:MyHardWare/Src/motor.c ****     break;
 192:MyHardWare/Src/motor.c ****   case MOTOR_BR:
 193:MyHardWare/Src/motor.c ****     dir_port = MOTOR_BR_DIR_PORT;
 194:MyHardWare/Src/motor.c ****     dir1_pin = MOTOR_BR_DIR1_PIN;
 195:MyHardWare/Src/motor.c ****     dir2_pin = MOTOR_BR_DIR2_PIN;
 196:MyHardWare/Src/motor.c ****     break;
 197:MyHardWare/Src/motor.c ****   case MOTOR_BL:
 198:MyHardWare/Src/motor.c ****     dir_port = MOTOR_BL_DIR_PORT;
 199:MyHardWare/Src/motor.c ****     dir1_pin = MOTOR_BL_DIR1_PIN;
 200:MyHardWare/Src/motor.c ****     dir2_pin = MOTOR_BL_DIR2_PIN;
 201:MyHardWare/Src/motor.c ****     break;
ARM GAS  C:\Users\asus\AppData\Local\Temp\ccZFpV1F.s 			page 5


 202:MyHardWare/Src/motor.c ****   default:
 203:MyHardWare/Src/motor.c ****     return;
 204:MyHardWare/Src/motor.c ****   }
 205:MyHardWare/Src/motor.c **** #else
 206:MyHardWare/Src/motor.c ****   if (motor == MOTOR_RIGHT) {
 207:MyHardWare/Src/motor.c ****     dir_port = MOTOR_FR_DIR_PORT;
 208:MyHardWare/Src/motor.c ****     dir1_pin = MOTOR_FR_DIR1_PIN;
 209:MyHardWare/Src/motor.c ****     dir2_pin = MOTOR_FR_DIR2_PIN;
 210:MyHardWare/Src/motor.c ****   } else if (motor == MOTOR_LEFT) {
 211:MyHardWare/Src/motor.c ****     dir_port = MOTOR_FL_DIR_PORT;
 212:MyHardWare/Src/motor.c ****     dir1_pin = MOTOR_FL_DIR1_PIN;
 213:MyHardWare/Src/motor.c ****     dir2_pin = MOTOR_FL_DIR2_PIN;
 214:MyHardWare/Src/motor.c ****   } else {
 215:MyHardWare/Src/motor.c ****     return;
 216:MyHardWare/Src/motor.c ****   }
 217:MyHardWare/Src/motor.c **** #endif
 218:MyHardWare/Src/motor.c **** 
 219:MyHardWare/Src/motor.c ****   // жү§иЎҢж–№еҗ‘жҺ§еҲ¶
 220:MyHardWare/Src/motor.c ****   switch (inst->_direction) {
 221:MyHardWare/Src/motor.c ****   case MOTOR_DIR_FORWARD:
 222:MyHardWare/Src/motor.c ****     GPIO_ResetBits(dir_port, dir1_pin);
 223:MyHardWare/Src/motor.c ****     GPIO_SetBits(dir_port, dir2_pin);
 224:MyHardWare/Src/motor.c ****     break;
 225:MyHardWare/Src/motor.c ****   case MOTOR_DIR_BACKWARD:
 226:MyHardWare/Src/motor.c ****     GPIO_SetBits(dir_port, dir1_pin);
 227:MyHardWare/Src/motor.c ****     GPIO_ResetBits(dir_port, dir2_pin);
 228:MyHardWare/Src/motor.c ****     break;
 229:MyHardWare/Src/motor.c ****   case MOTOR_DIR_STOP:
 230:MyHardWare/Src/motor.c ****     GPIO_ResetBits(dir_port, dir1_pin | dir2_pin);
 231:MyHardWare/Src/motor.c ****     break;
 232:MyHardWare/Src/motor.c ****   case MOTOR_DIR_BRAKE:
 233:MyHardWare/Src/motor.c ****     GPIO_SetBits(dir_port, dir1_pin | dir2_pin);
 234:MyHardWare/Src/motor.c ****     break;
 235:MyHardWare/Src/motor.c ****   }
 236:MyHardWare/Src/motor.c **** 
 237:MyHardWare/Src/motor.c ****   // ж №жҚ® speed з»қеҜ№еҖји®ҫзҪ® PWM еҚ з©әжҜ”
 238:MyHardWare/Src/motor.c ****   uint16_t duty =
 239:MyHardWare/Src/motor.c ****       (inst->_speed >= 0) ? (uint16_t)inst->_speed : (uint16_t)(-inst->_speed);
 240:MyHardWare/Src/motor.c ****   if (duty > MOTOR_PWM_MAX_DUTY)
 241:MyHardWare/Src/motor.c ****     duty = MOTOR_PWM_MAX_DUTY;
 242:MyHardWare/Src/motor.c **** 
 243:MyHardWare/Src/motor.c **** #ifdef QUAD_MOTOR_DRIVE
 244:MyHardWare/Src/motor.c ****   switch (motor) {
 245:MyHardWare/Src/motor.c ****   case MOTOR_FR:
 246:MyHardWare/Src/motor.c ****   case MOTOR_BR:
 247:MyHardWare/Src/motor.c ****     TIM_SetCompare1(inst->tim, duty);
 248:MyHardWare/Src/motor.c ****     break;
 249:MyHardWare/Src/motor.c ****   case MOTOR_FL:
 250:MyHardWare/Src/motor.c ****   case MOTOR_BL:
 251:MyHardWare/Src/motor.c ****     TIM_SetCompare2(inst->tim, duty);
 252:MyHardWare/Src/motor.c ****     break;
 253:MyHardWare/Src/motor.c ****   }
 254:MyHardWare/Src/motor.c **** #else
 255:MyHardWare/Src/motor.c ****   if (motor == MOTOR_RIGHT) {
 256:MyHardWare/Src/motor.c ****     TIM_SetCompare1(inst->tim, duty);
 257:MyHardWare/Src/motor.c ****   } else if (motor == MOTOR_LEFT) {
 258:MyHardWare/Src/motor.c ****     TIM_SetCompare3(inst->tim, duty);
ARM GAS  C:\Users\asus\AppData\Local\Temp\ccZFpV1F.s 			page 6


 259:MyHardWare/Src/motor.c ****   }
 260:MyHardWare/Src/motor.c **** #endif
 261:MyHardWare/Src/motor.c **** }
 262:MyHardWare/Src/motor.c **** 
 263:MyHardWare/Src/motor.c **** /**
 264:MyHardWare/Src/motor.c ****  * @brief йҖҡз”ЁеҚ•дёӘз”өжңәеҒңжӯўеҮҪж•°
 265:MyHardWare/Src/motor.c ****  * @param motor з”өжңә ID (MOTOR_FR/MOTOR_FL/MOTOR_BR/MOTOR_BL жҲ–
 266:MyHardWare/Src/motor.c ****  * MOTOR_RIGHT/MOTOR_LEFT)
 267:MyHardWare/Src/motor.c ****  *
 268:MyHardWare/Src/motor.c ****  * @details е°Ҷз”өжңәзҡ„йҖҹеәҰи®ҫзҪ®дёә 0пјҢж–№еҗ‘и®ҫзҪ®дёә STOP
 269:MyHardWare/Src/motor.c ****  *           зӣҙжҺҘж“ҚдҪңзЎ¬д»¶пјҢзЎ®дҝқжңҖеҝ«е“Қеә”
 270:MyHardWare/Src/motor.c ****  */
 271:MyHardWare/Src/motor.c **** void Motor_Stop(Motor_Id_e motor) {
 272:MyHardWare/Src/motor.c ****   Motor_Class_t *inst = NULL;
 273:MyHardWare/Src/motor.c ****   GPIO_TypeDef *dir_port;
 274:MyHardWare/Src/motor.c ****   uint16_t dir1_pin, dir2_pin;
 275:MyHardWare/Src/motor.c ****   TIM_TypeDef *pwm_tim;
 276:MyHardWare/Src/motor.c ****   uint16_t pwm_channel;
 277:MyHardWare/Src/motor.c **** 
 278:MyHardWare/Src/motor.c **** #ifdef QUAD_MOTOR_DRIVE
 279:MyHardWare/Src/motor.c ****   switch (motor) {
 280:MyHardWare/Src/motor.c ****   case MOTOR_FR:
 281:MyHardWare/Src/motor.c ****     inst = &Motor_FR;
 282:MyHardWare/Src/motor.c ****     dir_port = MOTOR_FR_DIR_PORT;
 283:MyHardWare/Src/motor.c ****     dir1_pin = MOTOR_FR_DIR1_PIN;
 284:MyHardWare/Src/motor.c ****     dir2_pin = MOTOR_FR_DIR2_PIN;
 285:MyHardWare/Src/motor.c ****     pwm_tim = MOTOR_FR_PWM_TIM;
 286:MyHardWare/Src/motor.c ****     pwm_channel = MOTOR_FR_PWM_CHANNEL;
 287:MyHardWare/Src/motor.c ****     break;
 288:MyHardWare/Src/motor.c ****   case MOTOR_FL:
 289:MyHardWare/Src/motor.c ****     inst = &Motor_FL;
 290:MyHardWare/Src/motor.c ****     dir_port = MOTOR_FL_DIR_PORT;
 291:MyHardWare/Src/motor.c ****     dir1_pin = MOTOR_FL_DIR1_PIN;
 292:MyHardWare/Src/motor.c ****     dir2_pin = MOTOR_FL_DIR2_PIN;
 293:MyHardWare/Src/motor.c ****     pwm_tim = MOTOR_FL_PWM_TIM;
 294:MyHardWare/Src/motor.c ****     pwm_channel = MOTOR_FL_PWM_CHANNEL;
 295:MyHardWare/Src/motor.c ****     break;
 296:MyHardWare/Src/motor.c ****   case MOTOR_BR:
 297:MyHardWare/Src/motor.c ****     inst = &Motor_BR;
 298:MyHardWare/Src/motor.c ****     dir_port = MOTOR_BR_DIR_PORT;
 299:MyHardWare/Src/motor.c ****     dir1_pin = MOTOR_BR_DIR1_PIN;
 300:MyHardWare/Src/motor.c ****     dir2_pin = MOTOR_BR_DIR2_PIN;
 301:MyHardWare/Src/motor.c ****     pwm_tim = MOTOR_BR_PWM_TIM;
 302:MyHardWare/Src/motor.c ****     pwm_channel = MOTOR_BR_PWM_CHANNEL;
 303:MyHardWare/Src/motor.c ****     break;
 304:MyHardWare/Src/motor.c ****   case MOTOR_BL:
 305:MyHardWare/Src/motor.c ****     inst = &Motor_BL;
 306:MyHardWare/Src/motor.c ****     dir_port = MOTOR_BL_DIR_PORT;
 307:MyHardWare/Src/motor.c ****     dir1_pin = MOTOR_BL_DIR1_PIN;
 308:MyHardWare/Src/motor.c ****     dir2_pin = MOTOR_BL_DIR2_PIN;
 309:MyHardWare/Src/motor.c ****     pwm_tim = MOTOR_BL_PWM_TIM;
 310:MyHardWare/Src/motor.c ****     pwm_channel = MOTOR_BL_PWM_CHANNEL;
 311:MyHardWare/Src/motor.c ****     break;
 312:MyHardWare/Src/motor.c ****   default:
 313:MyHardWare/Src/motor.c ****     return;
 314:MyHardWare/Src/motor.c ****   }
 315:MyHardWare/Src/motor.c **** #else
ARM GAS  C:\Users\asus\AppData\Local\Temp\ccZFpV1F.s 			page 7


 316:MyHardWare/Src/motor.c ****   switch (motor) {
 317:MyHardWare/Src/motor.c ****   case MOTOR_RIGHT:
 318:MyHardWare/Src/motor.c ****     inst = &Motor_Right;
 319:MyHardWare/Src/motor.c ****     dir_port = MOTOR_FR_DIR_PORT;
 320:MyHardWare/Src/motor.c ****     dir1_pin = MOTOR_FR_DIR1_PIN;
 321:MyHardWare/Src/motor.c ****     dir2_pin = MOTOR_FR_DIR2_PIN;
 322:MyHardWare/Src/motor.c ****     pwm_tim = MOTOR_FR_PWM_TIM;
 323:MyHardWare/Src/motor.c ****     pwm_channel = MOTOR_FR_PWM_CHANNEL;
 324:MyHardWare/Src/motor.c ****     break;
 325:MyHardWare/Src/motor.c ****   case MOTOR_LEFT:
 326:MyHardWare/Src/motor.c ****     inst = &Motor_Left;
 327:MyHardWare/Src/motor.c ****     dir_port = MOTOR_FL_DIR_PORT;
 328:MyHardWare/Src/motor.c ****     dir1_pin = MOTOR_FL_DIR1_PIN;
 329:MyHardWare/Src/motor.c ****     dir2_pin = MOTOR_FL_DIR2_PIN;
 330:MyHardWare/Src/motor.c ****     pwm_tim = MOTOR_FL_PWM_TIM;
 331:MyHardWare/Src/motor.c ****     pwm_channel = MOTOR_FL_PWM_CHANNEL;
 332:MyHardWare/Src/motor.c ****     break;
 333:MyHardWare/Src/motor.c ****   default:
 334:MyHardWare/Src/motor.c ****     return;
 335:MyHardWare/Src/motor.c ****   }
 336:MyHardWare/Src/motor.c **** #endif
 337:MyHardWare/Src/motor.c **** 
 338:MyHardWare/Src/motor.c ****   // жӣҙж–°зҠ¶жҖҒеҸҳйҮҸ
 339:MyHardWare/Src/motor.c ****   inst->_speed = 0;
 340:MyHardWare/Src/motor.c ****   inst->_direction = MOTOR_DIR_STOP;
 341:MyHardWare/Src/motor.c **** 
 342:MyHardWare/Src/motor.c ****   // зӣҙжҺҘе…ій—ӯ PWM иҫ“еҮәпјҲеҚ з©әжҜ”и®ҫдёә 0пјү
 343:MyHardWare/Src/motor.c ****   if (pwm_channel == TIM_Channel_1) {
 344:MyHardWare/Src/motor.c ****     TIM_SetCompare1(pwm_tim, 0);
 345:MyHardWare/Src/motor.c ****   } else if (pwm_channel == TIM_Channel_2) {
 346:MyHardWare/Src/motor.c ****     TIM_SetCompare2(pwm_tim, 0);
 347:MyHardWare/Src/motor.c ****   }
 348:MyHardWare/Src/motor.c **** 
 349:MyHardWare/Src/motor.c ****   // зӣҙжҺҘи®ҫзҪ® GPIO дёәеҒңжӯўзҠ¶жҖҒпјҲдёӨдёӘж–№еҗ‘еј•и„ҡйғҪдёәдҪҺз”өе№іпјү
 350:MyHardWare/Src/motor.c ****   GPIO_ResetBits(dir_port, dir1_pin | dir2_pin);
 351:MyHardWare/Src/motor.c **** }
 352:MyHardWare/Src/motor.c **** 
 353:MyHardWare/Src/motor.c **** /**
 354:MyHardWare/Src/motor.c ****  * @brief йҖҡз”ЁеҚ•дёӘз”өжңәеҲ№иҪҰеҮҪж•°
 355:MyHardWare/Src/motor.c ****  * @param motor з”өжңә ID (MOTOR_FR/MOTOR_FL/MOTOR_BR/MOTOR_BL жҲ–
 356:MyHardWare/Src/motor.c ****  * MOTOR_RIGHT/MOTOR_LEFT)
 357:MyHardWare/Src/motor.c ****  *
 358:MyHardWare/Src/motor.c ****  * @details е°Ҷз”өжңәзҡ„йҖҹеәҰи®ҫзҪ®дёә 0пјҢж–№еҗ‘и®ҫзҪ®дёә BRAKEпјҲиғҪиҖ—еҲ¶еҠЁпјү
 359:MyHardWare/Src/motor.c ****  *           зӣҙжҺҘж“ҚдҪңзЎ¬д»¶пјҢзЎ®дҝқжңҖеҝ«е“Қеә”
 360:MyHardWare/Src/motor.c ****  */
 361:MyHardWare/Src/motor.c **** void Motor_Brake(Motor_Id_e motor) {
 362:MyHardWare/Src/motor.c ****   Motor_Class_t *inst = NULL;
 363:MyHardWare/Src/motor.c ****   GPIO_TypeDef *dir_port;
 364:MyHardWare/Src/motor.c ****   uint16_t dir1_pin, dir2_pin;
 365:MyHardWare/Src/motor.c ****   TIM_TypeDef *pwm_tim;
 366:MyHardWare/Src/motor.c ****   uint16_t pwm_channel;
 367:MyHardWare/Src/motor.c **** 
 368:MyHardWare/Src/motor.c **** #ifdef QUAD_MOTOR_DRIVE
 369:MyHardWare/Src/motor.c ****   switch (motor) {
 370:MyHardWare/Src/motor.c ****   case MOTOR_FR:
 371:MyHardWare/Src/motor.c ****     inst = &Motor_FR;
 372:MyHardWare/Src/motor.c ****     dir_port = MOTOR_FR_DIR_PORT;
ARM GAS  C:\Users\asus\AppData\Local\Temp\ccZFpV1F.s 			page 8


 373:MyHardWare/Src/motor.c ****     dir1_pin = MOTOR_FR_DIR1_PIN;
 374:MyHardWare/Src/motor.c ****     dir2_pin = MOTOR_FR_DIR2_PIN;
 375:MyHardWare/Src/motor.c ****     pwm_tim = MOTOR_FR_PWM_TIM;
 376:MyHardWare/Src/motor.c ****     pwm_channel = MOTOR_FR_PWM_CHANNEL;
 377:MyHardWare/Src/motor.c ****     break;
 378:MyHardWare/Src/motor.c ****   case MOTOR_FL:
 379:MyHardWare/Src/motor.c ****     inst = &Motor_FL;
 380:MyHardWare/Src/motor.c ****     dir_port = MOTOR_FL_DIR_PORT;
 381:MyHardWare/Src/motor.c ****     dir1_pin = MOTOR_FL_DIR1_PIN;
 382:MyHardWare/Src/motor.c ****     dir2_pin = MOTOR_FL_DIR2_PIN;
 383:MyHardWare/Src/motor.c ****     pwm_tim = MOTOR_FL_PWM_TIM;
 384:MyHardWare/Src/motor.c ****     pwm_channel = MOTOR_FL_PWM_CHANNEL;
 385:MyHardWare/Src/motor.c ****     break;
 386:MyHardWare/Src/motor.c ****   case MOTOR_BR:
 387:MyHardWare/Src/motor.c ****     inst = &Motor_BR;
 388:MyHardWare/Src/motor.c ****     dir_port = MOTOR_BR_DIR_PORT;
 389:MyHardWare/Src/motor.c ****     dir1_pin = MOTOR_BR_DIR1_PIN;
 390:MyHardWare/Src/motor.c ****     dir2_pin = MOTOR_BR_DIR2_PIN;
 391:MyHardWare/Src/motor.c ****     pwm_tim = MOTOR_BR_PWM_TIM;
 392:MyHardWare/Src/motor.c ****     pwm_channel = MOTOR_BR_PWM_CHANNEL;
 393:MyHardWare/Src/motor.c ****     break;
 394:MyHardWare/Src/motor.c ****   case MOTOR_BL:
 395:MyHardWare/Src/motor.c ****     inst = &Motor_BL;
 396:MyHardWare/Src/motor.c ****     dir_port = MOTOR_BL_DIR_PORT;
 397:MyHardWare/Src/motor.c ****     dir1_pin = MOTOR_BL_DIR1_PIN;
 398:MyHardWare/Src/motor.c ****     dir2_pin = MOTOR_BL_DIR2_PIN;
 399:MyHardWare/Src/motor.c ****     pwm_tim = MOTOR_BL_PWM_TIM;
 400:MyHardWare/Src/motor.c ****     pwm_channel = MOTOR_BL_PWM_CHANNEL;
 401:MyHardWare/Src/motor.c ****     break;
 402:MyHardWare/Src/motor.c ****   default:
 403:MyHardWare/Src/motor.c ****     return;
 404:MyHardWare/Src/motor.c ****   }
 405:MyHardWare/Src/motor.c **** #else
 406:MyHardWare/Src/motor.c ****   switch (motor) {
 407:MyHardWare/Src/motor.c ****   case MOTOR_RIGHT:
 408:MyHardWare/Src/motor.c ****     inst = &Motor_Right;
 409:MyHardWare/Src/motor.c ****     dir_port = MOTOR_FR_DIR_PORT;
 410:MyHardWare/Src/motor.c ****     dir1_pin = MOTOR_FR_DIR1_PIN;
 411:MyHardWare/Src/motor.c ****     dir2_pin = MOTOR_FR_DIR2_PIN;
 412:MyHardWare/Src/motor.c ****     pwm_tim = MOTOR_FR_PWM_TIM;
 413:MyHardWare/Src/motor.c ****     pwm_channel = MOTOR_FR_PWM_CHANNEL;
 414:MyHardWare/Src/motor.c ****     break;
 415:MyHardWare/Src/motor.c ****   case MOTOR_LEFT:
 416:MyHardWare/Src/motor.c ****     inst = &Motor_Left;
 417:MyHardWare/Src/motor.c ****     dir_port = MOTOR_FL_DIR_PORT;
 418:MyHardWare/Src/motor.c ****     dir1_pin = MOTOR_FL_DIR1_PIN;
 419:MyHardWare/Src/motor.c ****     dir2_pin = MOTOR_FL_DIR2_PIN;
 420:MyHardWare/Src/motor.c ****     pwm_tim = MOTOR_FL_PWM_TIM;
 421:MyHardWare/Src/motor.c ****     pwm_channel = MOTOR_FL_PWM_CHANNEL;
 422:MyHardWare/Src/motor.c ****     break;
 423:MyHardWare/Src/motor.c ****   default:
 424:MyHardWare/Src/motor.c ****     return;
 425:MyHardWare/Src/motor.c ****   }
 426:MyHardWare/Src/motor.c **** #endif
 427:MyHardWare/Src/motor.c **** 
 428:MyHardWare/Src/motor.c ****   // жӣҙж–°зҠ¶жҖҒеҸҳйҮҸ
 429:MyHardWare/Src/motor.c ****   inst->_speed = 0;
ARM GAS  C:\Users\asus\AppData\Local\Temp\ccZFpV1F.s 			page 9


 430:MyHardWare/Src/motor.c ****   inst->_direction = MOTOR_DIR_BRAKE;
 431:MyHardWare/Src/motor.c **** 
 432:MyHardWare/Src/motor.c ****   // зӣҙжҺҘе…ій—ӯ PWM иҫ“еҮәпјҲеҚ з©әжҜ”и®ҫдёә 0пјү
 433:MyHardWare/Src/motor.c ****   if (pwm_channel == TIM_Channel_1) {
 434:MyHardWare/Src/motor.c ****     TIM_SetCompare1(pwm_tim, 0);
 435:MyHardWare/Src/motor.c ****   } else if (pwm_channel == TIM_Channel_2) {
 436:MyHardWare/Src/motor.c ****     TIM_SetCompare2(pwm_tim, 0);
 437:MyHardWare/Src/motor.c ****   }
 438:MyHardWare/Src/motor.c **** 
 439:MyHardWare/Src/motor.c ****   // зӣҙжҺҘи®ҫзҪ® GPIO дёәеҲ№иҪҰзҠ¶жҖҒпјҲдёӨдёӘж–№еҗ‘еј•и„ҡйғҪдёәй«ҳз”өе№іпјү
 440:MyHardWare/Src/motor.c ****   GPIO_SetBits(dir_port, dir1_pin | dir2_pin);
 441:MyHardWare/Src/motor.c **** }
 442:MyHardWare/Src/motor.c **** 
 443:MyHardWare/Src/motor.c **** //* ==================== з§ҒжңүеҮҪж•°пјҡзЎ¬д»¶еҲқе§ӢеҢ– ==================== */
 444:MyHardWare/Src/motor.c **** 
 445:MyHardWare/Src/motor.c **** /**
 446:MyHardWare/Src/motor.c ****  * @brief еҲқе§ӢеҢ–жүҖжңүз”өжңәзҡ„ GPIO еј•и„ҡ
 447:MyHardWare/Src/motor.c ****  * @note  ж №жҚ®зј–иҜ‘й…ҚзҪ® (QUAD_MOTOR_DRIVE) дёҖж¬ЎжҖ§еҲқе§ӢеҢ–жүҖжңүйңҖиҰҒзҡ„ GPIO
 448:MyHardWare/Src/motor.c ****  */
 449:MyHardWare/Src/motor.c **** static void Motor_GPIO_Init(void) {
 450:MyHardWare/Src/motor.c ****   GPIO_InitTypeDef GPIO_InitStructure;
 451:MyHardWare/Src/motor.c **** 
 452:MyHardWare/Src/motor.c **** #ifdef QUAD_MOTOR_DRIVE
 453:MyHardWare/Src/motor.c ****   // ==================== еӣӣй©ұжЁЎејҸпјҡеҲқе§ӢеҢ–жүҖжңү 4 дёӘз”өжңә GPIO
 454:MyHardWare/Src/motor.c ****   // ====================
 455:MyHardWare/Src/motor.c **** 
 456:MyHardWare/Src/motor.c ****   // --- еүҚеҸіз”өжңә (MOTOR_FR) - TIM1_CH1 ---
 457:MyHardWare/Src/motor.c ****   RCC_AHB1PeriphClockCmd(MOTOR_FR_PWM_CLK, ENABLE);
 458:MyHardWare/Src/motor.c ****   RCC_AHB1PeriphClockCmd(MOTOR_FR_DIR_CLK, ENABLE);
 459:MyHardWare/Src/motor.c **** 
 460:MyHardWare/Src/motor.c ****   GPIO_InitStructure.GPIO_Pin = MOTOR_FR_PWM_PIN;
 461:MyHardWare/Src/motor.c ****   GPIO_InitStructure.GPIO_Mode = GPIO_Mode_AF;
 462:MyHardWare/Src/motor.c ****   GPIO_InitStructure.GPIO_Speed = GPIO_Speed_100MHz;
 463:MyHardWare/Src/motor.c ****   GPIO_InitStructure.GPIO_OType = GPIO_OType_PP;
 464:MyHardWare/Src/motor.c ****   GPIO_InitStructure.GPIO_PuPd = GPIO_PuPd_UP;
 465:MyHardWare/Src/motor.c ****   GPIO_Init(MOTOR_FR_PWM_PORT, &GPIO_InitStructure);
 466:MyHardWare/Src/motor.c ****   GPIO_PinAFConfig(MOTOR_FR_PWM_PORT, GPIO_PinSource9, MOTOR_FR_PWM_AF);
 467:MyHardWare/Src/motor.c **** 
 468:MyHardWare/Src/motor.c ****   GPIO_InitStructure.GPIO_Pin = MOTOR_FR_DIR1_PIN | MOTOR_FR_DIR2_PIN;
 469:MyHardWare/Src/motor.c ****   GPIO_InitStructure.GPIO_Mode = GPIO_Mode_OUT;
 470:MyHardWare/Src/motor.c ****   GPIO_InitStructure.GPIO_Speed = GPIO_Speed_50MHz;
 471:MyHardWare/Src/motor.c ****   GPIO_InitStructure.GPIO_OType = GPIO_OType_PP;
 472:MyHardWare/Src/motor.c ****   GPIO_InitStructure.GPIO_PuPd = GPIO_PuPd_NOPULL;
 473:MyHardWare/Src/motor.c ****   GPIO_Init(MOTOR_FR_DIR_PORT, &GPIO_InitStructure);
 474:MyHardWare/Src/motor.c ****   GPIO_ResetBits(MOTOR_FR_DIR_PORT, MOTOR_FR_DIR1_PIN | MOTOR_FR_DIR2_PIN);
 475:MyHardWare/Src/motor.c **** 
 476:MyHardWare/Src/motor.c ****   // --- еүҚе·Ұз”өжңә (MOTOR_FL) - TIM1_CH2 ---
 477:MyHardWare/Src/motor.c ****   RCC_AHB1PeriphClockCmd(MOTOR_FL_PWM_CLK, ENABLE);
 478:MyHardWare/Src/motor.c ****   RCC_AHB1PeriphClockCmd(MOTOR_FL_DIR_CLK, ENABLE);
 479:MyHardWare/Src/motor.c **** 
 480:MyHardWare/Src/motor.c ****   GPIO_InitStructure.GPIO_Pin = MOTOR_FL_PWM_PIN;
 481:MyHardWare/Src/motor.c ****   GPIO_InitStructure.GPIO_Mode = GPIO_Mode_AF;
 482:MyHardWare/Src/motor.c ****   GPIO_InitStructure.GPIO_Speed = GPIO_Speed_100MHz;
 483:MyHardWare/Src/motor.c ****   GPIO_InitStructure.GPIO_OType = GPIO_OType_PP;
 484:MyHardWare/Src/motor.c ****   GPIO_InitStructure.GPIO_PuPd = GPIO_PuPd_UP;
 485:MyHardWare/Src/motor.c ****   GPIO_Init(MOTOR_FL_PWM_PORT, &GPIO_InitStructure);
 486:MyHardWare/Src/motor.c ****   GPIO_PinAFConfig(MOTOR_FL_PWM_PORT, GPIO_PinSource11, MOTOR_FL_PWM_AF);
ARM GAS  C:\Users\asus\AppData\Local\Temp\ccZFpV1F.s 			page 10


 487:MyHardWare/Src/motor.c **** 
 488:MyHardWare/Src/motor.c ****   GPIO_InitStructure.GPIO_Pin = MOTOR_FL_DIR1_PIN | MOTOR_FL_DIR2_PIN;
 489:MyHardWare/Src/motor.c ****   GPIO_InitStructure.GPIO_Mode = GPIO_Mode_OUT;
 490:MyHardWare/Src/motor.c ****   GPIO_InitStructure.GPIO_Speed = GPIO_Speed_50MHz;
 491:MyHardWare/Src/motor.c ****   GPIO_InitStructure.GPIO_OType = GPIO_OType_PP;
 492:MyHardWare/Src/motor.c ****   GPIO_InitStructure.GPIO_PuPd = GPIO_PuPd_NOPULL;
 493:MyHardWare/Src/motor.c ****   GPIO_Init(MOTOR_FL_DIR_PORT, &GPIO_InitStructure);
 494:MyHardWare/Src/motor.c ****   GPIO_ResetBits(MOTOR_FL_DIR_PORT, MOTOR_FL_DIR1_PIN | MOTOR_FL_DIR2_PIN);
 495:MyHardWare/Src/motor.c **** 
 496:MyHardWare/Src/motor.c ****   // --- еҗҺеҸіз”өжңә (MOTOR_BR) - TIM8_CH1 ---
 497:MyHardWare/Src/motor.c ****   RCC_AHB1PeriphClockCmd(MOTOR_BR_PWM_CLK, ENABLE);
 498:MyHardWare/Src/motor.c ****   RCC_AHB1PeriphClockCmd(MOTOR_BR_DIR_CLK, ENABLE);
 499:MyHardWare/Src/motor.c **** 
 500:MyHardWare/Src/motor.c ****   GPIO_InitStructure.GPIO_Pin = MOTOR_BR_PWM_PIN;
 501:MyHardWare/Src/motor.c ****   GPIO_InitStructure.GPIO_Mode = GPIO_Mode_AF;
 502:MyHardWare/Src/motor.c ****   GPIO_InitStructure.GPIO_Speed = GPIO_Speed_100MHz;
 503:MyHardWare/Src/motor.c ****   GPIO_InitStructure.GPIO_OType = GPIO_OType_PP;
 504:MyHardWare/Src/motor.c ****   GPIO_InitStructure.GPIO_PuPd = GPIO_PuPd_UP;
 505:MyHardWare/Src/motor.c ****   GPIO_Init(MOTOR_BR_PWM_PORT, &GPIO_InitStructure);
 506:MyHardWare/Src/motor.c ****   GPIO_PinAFConfig(MOTOR_BR_PWM_PORT, GPIO_PinSource6, MOTOR_BR_PWM_AF);
 507:MyHardWare/Src/motor.c **** 
 508:MyHardWare/Src/motor.c ****   GPIO_InitStructure.GPIO_Pin = MOTOR_BR_DIR1_PIN | MOTOR_BR_DIR2_PIN;
 509:MyHardWare/Src/motor.c ****   GPIO_InitStructure.GPIO_Mode = GPIO_Mode_OUT;
 510:MyHardWare/Src/motor.c ****   GPIO_InitStructure.GPIO_Speed = GPIO_Speed_50MHz;
 511:MyHardWare/Src/motor.c ****   GPIO_InitStructure.GPIO_OType = GPIO_OType_PP;
 512:MyHardWare/Src/motor.c ****   GPIO_InitStructure.GPIO_PuPd = GPIO_PuPd_NOPULL;
 513:MyHardWare/Src/motor.c ****   GPIO_Init(MOTOR_BR_DIR_PORT, &GPIO_InitStructure);
 514:MyHardWare/Src/motor.c ****   GPIO_ResetBits(MOTOR_BR_DIR_PORT, MOTOR_BR_DIR1_PIN | MOTOR_BR_DIR2_PIN);
 515:MyHardWare/Src/motor.c **** 
 516:MyHardWare/Src/motor.c ****   // --- еҗҺе·Ұз”өжңә (MOTOR_BL) - TIM8_CH2 ---
 517:MyHardWare/Src/motor.c ****   RCC_AHB1PeriphClockCmd(MOTOR_BL_PWM_CLK, ENABLE);
 518:MyHardWare/Src/motor.c ****   RCC_AHB1PeriphClockCmd(MOTOR_BL_DIR_CLK, ENABLE);
 519:MyHardWare/Src/motor.c **** 
 520:MyHardWare/Src/motor.c ****   GPIO_InitStructure.GPIO_Pin = MOTOR_BL_PWM_PIN;
 521:MyHardWare/Src/motor.c ****   GPIO_InitStructure.GPIO_Mode = GPIO_Mode_AF;
 522:MyHardWare/Src/motor.c ****   GPIO_InitStructure.GPIO_Speed = GPIO_Speed_100MHz;
 523:MyHardWare/Src/motor.c ****   GPIO_InitStructure.GPIO_OType = GPIO_OType_PP;
 524:MyHardWare/Src/motor.c ****   GPIO_InitStructure.GPIO_PuPd = GPIO_PuPd_UP;
 525:MyHardWare/Src/motor.c ****   GPIO_Init(MOTOR_BL_PWM_PORT, &GPIO_InitStructure);
 526:MyHardWare/Src/motor.c ****   GPIO_PinAFConfig(MOTOR_BL_PWM_PORT, GPIO_PinSource7, MOTOR_BL_PWM_AF);
 527:MyHardWare/Src/motor.c **** 
 528:MyHardWare/Src/motor.c ****   GPIO_InitStructure.GPIO_Pin = MOTOR_BL_DIR1_PIN | MOTOR_BL_DIR2_PIN;
 529:MyHardWare/Src/motor.c ****   GPIO_InitStructure.GPIO_Mode = GPIO_Mode_OUT;
 530:MyHardWare/Src/motor.c ****   GPIO_InitStructure.GPIO_Speed = GPIO_Speed_50MHz;
 531:MyHardWare/Src/motor.c ****   GPIO_InitStructure.GPIO_OType = GPIO_OType_PP;
 532:MyHardWare/Src/motor.c ****   GPIO_InitStructure.GPIO_PuPd = GPIO_PuPd_NOPULL;
 533:MyHardWare/Src/motor.c ****   GPIO_Init(MOTOR_BL_DIR_PORT, &GPIO_InitStructure);
 534:MyHardWare/Src/motor.c ****   GPIO_ResetBits(MOTOR_BL_DIR_PORT, MOTOR_BL_DIR1_PIN | MOTOR_BL_DIR2_PIN);
 535:MyHardWare/Src/motor.c **** 
 536:MyHardWare/Src/motor.c **** #else
 537:MyHardWare/Src/motor.c ****   // ==================== еҸҢй©ұжЁЎејҸпјҡд»…еҲқе§ӢеҢ–еүҚиҪ® 2 дёӘз”өжңә GPIO
 538:MyHardWare/Src/motor.c ****   // ====================
 539:MyHardWare/Src/motor.c **** 
 540:MyHardWare/Src/motor.c ****   // --- еҸіз”өжңә (MOTOR_RIGHT) - дҪҝз”ЁеүҚеҸізЎ¬д»¶ TIM1_CH1 ---
 541:MyHardWare/Src/motor.c ****   RCC_AHB1PeriphClockCmd(MOTOR_FR_PWM_CLK, ENABLE);
 542:MyHardWare/Src/motor.c ****   RCC_AHB1PeriphClockCmd(MOTOR_FR_DIR_CLK, ENABLE);
 543:MyHardWare/Src/motor.c **** 
ARM GAS  C:\Users\asus\AppData\Local\Temp\ccZFpV1F.s 			page 11


 544:MyHardWare/Src/motor.c ****   GPIO_InitStructure.GPIO_Pin = MOTOR_FR_PWM_PIN;
 545:MyHardWare/Src/motor.c ****   GPIO_InitStructure.GPIO_Mode = GPIO_Mode_AF;
 546:MyHardWare/Src/motor.c ****   GPIO_InitStructure.GPIO_Speed = GPIO_Speed_100MHz;
 547:MyHardWare/Src/motor.c ****   GPIO_InitStructure.GPIO_OType = GPIO_OType_PP;
 548:MyHardWare/Src/motor.c ****   GPIO_InitStructure.GPIO_PuPd = GPIO_PuPd_UP;
 549:MyHardWare/Src/motor.c ****   GPIO_Init(MOTOR_FR_PWM_PORT, &GPIO_InitStructure);
 550:MyHardWare/Src/motor.c ****   GPIO_PinAFConfig(MOTOR_FR_PWM_PORT, GPIO_PinSource9, MOTOR_FR_PWM_AF);
 551:MyHardWare/Src/motor.c **** 
 552:MyHardWare/Src/motor.c ****   GPIO_InitStructure.GPIO_Pin = MOTOR_FR_DIR1_PIN | MOTOR_FR_DIR2_PIN;
 553:MyHardWare/Src/motor.c ****   GPIO_InitStructure.GPIO_Mode = GPIO_Mode_OUT;
 554:MyHardWare/Src/motor.c ****   GPIO_InitStructure.GPIO_Speed = GPIO_Speed_50MHz;
 555:MyHardWare/Src/motor.c ****   GPIO_InitStructure.GPIO_OType = GPIO_OType_PP;
 556:MyHardWare/Src/motor.c ****   GPIO_InitStructure.GPIO_PuPd = GPIO_PuPd_NOPULL;
 557:MyHardWare/Src/motor.c ****   GPIO_Init(MOTOR_FR_DIR_PORT, &GPIO_InitStructure);
 558:MyHardWare/Src/motor.c ****   GPIO_ResetBits(MOTOR_FR_DIR_PORT, MOTOR_FR_DIR1_PIN | MOTOR_FR_DIR2_PIN);
 559:MyHardWare/Src/motor.c **** 
 560:MyHardWare/Src/motor.c ****   // --- е·Ұз”өжңә (MOTOR_LEFT) - дҪҝз”ЁеүҚе·ҰзЎ¬д»¶ TIM1_CH2 ---
 561:MyHardWare/Src/motor.c ****   RCC_AHB1PeriphClockCmd(MOTOR_FL_PWM_CLK, ENABLE);
 562:MyHardWare/Src/motor.c ****   RCC_AHB1PeriphClockCmd(MOTOR_FL_DIR_CLK, ENABLE);
 563:MyHardWare/Src/motor.c **** 
 564:MyHardWare/Src/motor.c ****   GPIO_InitStructure.GPIO_Pin = MOTOR_FL_PWM_PIN;
 565:MyHardWare/Src/motor.c ****   GPIO_InitStructure.GPIO_Mode = GPIO_Mode_AF;
 566:MyHardWare/Src/motor.c ****   GPIO_InitStructure.GPIO_Speed = GPIO_Speed_100MHz;
 567:MyHardWare/Src/motor.c ****   GPIO_InitStructure.GPIO_OType = GPIO_OType_PP;
 568:MyHardWare/Src/motor.c ****   GPIO_InitStructure.GPIO_PuPd = GPIO_PuPd_UP;
 569:MyHardWare/Src/motor.c ****   GPIO_Init(MOTOR_FL_PWM_PORT, &GPIO_InitStructure);
 570:MyHardWare/Src/motor.c ****   GPIO_PinAFConfig(MOTOR_FL_PWM_PORT, GPIO_PinSource13, MOTOR_FL_PWM_AF);
 571:MyHardWare/Src/motor.c **** 
 572:MyHardWare/Src/motor.c ****   GPIO_InitStructure.GPIO_Pin = MOTOR_FL_DIR1_PIN | MOTOR_FL_DIR2_PIN;
 573:MyHardWare/Src/motor.c ****   GPIO_InitStructure.GPIO_Mode = GPIO_Mode_OUT;
 574:MyHardWare/Src/motor.c ****   GPIO_InitStructure.GPIO_Speed = GPIO_Speed_50MHz;
 575:MyHardWare/Src/motor.c ****   GPIO_InitStructure.GPIO_OType = GPIO_OType_PP;
 576:MyHardWare/Src/motor.c ****   GPIO_InitStructure.GPIO_PuPd = GPIO_PuPd_NOPULL;
 577:MyHardWare/Src/motor.c ****   GPIO_Init(MOTOR_FL_DIR_PORT, &GPIO_InitStructure);
 578:MyHardWare/Src/motor.c ****   GPIO_ResetBits(MOTOR_FL_DIR_PORT, MOTOR_FL_DIR1_PIN | MOTOR_FL_DIR2_PIN);
 579:MyHardWare/Src/motor.c **** #endif
 580:MyHardWare/Src/motor.c **** }
 581:MyHardWare/Src/motor.c **** 
 582:MyHardWare/Src/motor.c **** /**
 583:MyHardWare/Src/motor.c ****  * @brief еҲқе§ӢеҢ–е®ҡж—¶еҷЁж—¶еҹәеҚ•е…ғ
 584:MyHardWare/Src/motor.c ****  * @param tim е®ҡж—¶еҷЁжҢҮй’Ҳ
 585:MyHardWare/Src/motor.c ****  * @param tim_clk е®ҡж—¶еҷЁж—¶й’ҹRCC
 586:MyHardWare/Src/motor.c ****  */
 587:MyHardWare/Src/motor.c **** static void Motor_TIM_Init(TIM_TypeDef *tim, uint32_t tim_clk) {
  29              		.loc 1 587 64 view -0
  30              		.cfi_startproc
  31              		@ args = 0, pretend = 0, frame = 16
  32              		@ frame_needed = 0, uses_anonymous_args = 0
  33              		.loc 1 587 64 is_stmt 0 view .LVU1
  34 0000 10B5     		push	{r4, lr}
  35              	.LCFI0:
  36              		.cfi_def_cfa_offset 8
  37              		.cfi_offset 4, -8
  38              		.cfi_offset 14, -4
  39 0002 84B0     		sub	sp, sp, #16
  40              	.LCFI1:
  41              		.cfi_def_cfa_offset 24
ARM GAS  C:\Users\asus\AppData\Local\Temp\ccZFpV1F.s 			page 12


  42 0004 0446     		mov	r4, r0
  43 0006 0846     		mov	r0, r1
  44              	.LVL1:
 588:MyHardWare/Src/motor.c ****   TIM_TimeBaseInitTypeDef TIM_TimeBaseStructure;
  45              		.loc 1 588 3 is_stmt 1 view .LVU2
 589:MyHardWare/Src/motor.c **** 
 590:MyHardWare/Src/motor.c ****   // дҪҝиғҪе®ҡж—¶еҷЁж—¶й’ҹ
 591:MyHardWare/Src/motor.c ****   RCC_APB2PeriphClockCmd(tim_clk, ENABLE);
  46              		.loc 1 591 3 view .LVU3
  47 0008 0121     		movs	r1, #1
  48              	.LVL2:
  49              		.loc 1 591 3 is_stmt 0 view .LVU4
  50 000a FFF7FEFF 		bl	RCC_APB2PeriphClockCmd
  51              	.LVL3:
 592:MyHardWare/Src/motor.c **** 
 593:MyHardWare/Src/motor.c ****   // е®ҡж—¶еҷЁж—¶еҹәй…ҚзҪ® - 20kHz PWM
 594:MyHardWare/Src/motor.c ****   // 168MHz / (0+1) / (8399+1) = 20kHz
 595:MyHardWare/Src/motor.c ****   TIM_TimeBaseStructure.TIM_Period = MOTOR_PWM_PERIOD;
  52              		.loc 1 595 3 is_stmt 1 view .LVU5
  53              		.loc 1 595 36 is_stmt 0 view .LVU6
  54 000e 42F2CF03 		movw	r3, #8399
  55 0012 0293     		str	r3, [sp, #8]
 596:MyHardWare/Src/motor.c ****   TIM_TimeBaseStructure.TIM_Prescaler = MOTOR_PWM_PRESCALER;
  56              		.loc 1 596 3 is_stmt 1 view .LVU7
  57              		.loc 1 596 39 is_stmt 0 view .LVU8
  58 0014 0023     		movs	r3, #0
  59 0016 ADF80430 		strh	r3, [sp, #4]	@ movhi
 597:MyHardWare/Src/motor.c ****   TIM_TimeBaseStructure.TIM_ClockDivision = 0;
  60              		.loc 1 597 3 is_stmt 1 view .LVU9
  61              		.loc 1 597 43 is_stmt 0 view .LVU10
  62 001a ADF80C30 		strh	r3, [sp, #12]	@ movhi
 598:MyHardWare/Src/motor.c ****   TIM_TimeBaseStructure.TIM_CounterMode = TIM_CounterMode_Up;
  63              		.loc 1 598 3 is_stmt 1 view .LVU11
  64              		.loc 1 598 41 is_stmt 0 view .LVU12
  65 001e ADF80630 		strh	r3, [sp, #6]	@ movhi
 599:MyHardWare/Src/motor.c ****   TIM_TimeBaseInit(tim, &TIM_TimeBaseStructure);
  66              		.loc 1 599 3 is_stmt 1 view .LVU13
  67 0022 01A9     		add	r1, sp, #4
  68 0024 2046     		mov	r0, r4
  69 0026 FFF7FEFF 		bl	TIM_TimeBaseInit
  70              	.LVL4:
 600:MyHardWare/Src/motor.c ****   TIM_ARRPreloadConfig(tim, ENABLE);
  71              		.loc 1 600 3 view .LVU14
  72 002a 0121     		movs	r1, #1
  73 002c 2046     		mov	r0, r4
  74 002e FFF7FEFF 		bl	TIM_ARRPreloadConfig
  75              	.LVL5:
 601:MyHardWare/Src/motor.c **** }
  76              		.loc 1 601 1 is_stmt 0 view .LVU15
  77 0032 04B0     		add	sp, sp, #16
  78              	.LCFI2:
  79              		.cfi_def_cfa_offset 8
  80              		@ sp needed
  81 0034 10BD     		pop	{r4, pc}
  82              		.loc 1 601 1 view .LVU16
  83              		.cfi_endproc
  84              	.LFE129:
ARM GAS  C:\Users\asus\AppData\Local\Temp\ccZFpV1F.s 			page 13


  86              		.section	.text.Motor_TIM_Channel_Init,"ax",%progbits
  87              		.align	1
  88              		.syntax unified
  89              		.thumb
  90              		.thumb_func
  92              	Motor_TIM_Channel_Init:
  93              	.LVL6:
  94              	.LFB130:
 602:MyHardWare/Src/motor.c **** 
 603:MyHardWare/Src/motor.c **** /**
 604:MyHardWare/Src/motor.c ****  * @brief еҲқе§ӢеҢ–е®ҡж—¶еҷЁPWMйҖҡйҒ“
 605:MyHardWare/Src/motor.c ****  * @param tim е®ҡж—¶еҷЁжҢҮй’Ҳ
 606:MyHardWare/Src/motor.c ****  * @param channel PWMйҖҡйҒ“
 607:MyHardWare/Src/motor.c ****  */
 608:MyHardWare/Src/motor.c **** static void Motor_TIM_Channel_Init(TIM_TypeDef *tim, uint16_t channel) {
  95              		.loc 1 608 72 is_stmt 1 view -0
  96              		.cfi_startproc
  97              		@ args = 0, pretend = 0, frame = 24
  98              		@ frame_needed = 0, uses_anonymous_args = 0
  99              		.loc 1 608 72 is_stmt 0 view .LVU18
 100 0000 10B5     		push	{r4, lr}
 101              	.LCFI3:
 102              		.cfi_def_cfa_offset 8
 103              		.cfi_offset 4, -8
 104              		.cfi_offset 14, -4
 105 0002 86B0     		sub	sp, sp, #24
 106              	.LCFI4:
 107              		.cfi_def_cfa_offset 32
 108 0004 0446     		mov	r4, r0
 609:MyHardWare/Src/motor.c ****   TIM_OCInitTypeDef TIM_OCInitStructure;
 109              		.loc 1 609 3 is_stmt 1 view .LVU19
 610:MyHardWare/Src/motor.c ****   TIM_OCInitStructure.TIM_OCMode = TIM_OCMode_PWM1;
 110              		.loc 1 610 3 view .LVU20
 111              		.loc 1 610 34 is_stmt 0 view .LVU21
 112 0006 6023     		movs	r3, #96
 113 0008 ADF80430 		strh	r3, [sp, #4]	@ movhi
 611:MyHardWare/Src/motor.c ****   TIM_OCInitStructure.TIM_OutputState = TIM_OutputState_Enable;
 114              		.loc 1 611 3 is_stmt 1 view .LVU22
 115              		.loc 1 611 39 is_stmt 0 view .LVU23
 116 000c 0123     		movs	r3, #1
 117 000e ADF80630 		strh	r3, [sp, #6]	@ movhi
 612:MyHardWare/Src/motor.c ****   TIM_OCInitStructure.TIM_OutputNState = TIM_OutputNState_Enable;
 118              		.loc 1 612 3 is_stmt 1 view .LVU24
 119              		.loc 1 612 40 is_stmt 0 view .LVU25
 120 0012 0423     		movs	r3, #4
 121 0014 ADF80830 		strh	r3, [sp, #8]	@ movhi
 613:MyHardWare/Src/motor.c ****   TIM_OCInitStructure.TIM_Pulse = 0;
 122              		.loc 1 613 3 is_stmt 1 view .LVU26
 123              		.loc 1 613 33 is_stmt 0 view .LVU27
 124 0018 0023     		movs	r3, #0
 125 001a 0393     		str	r3, [sp, #12]
 614:MyHardWare/Src/motor.c ****   TIM_OCInitStructure.TIM_OCPolarity = TIM_OCPolarity_High;
 126              		.loc 1 614 3 is_stmt 1 view .LVU28
 127              		.loc 1 614 38 is_stmt 0 view .LVU29
 128 001c ADF81030 		strh	r3, [sp, #16]	@ movhi
 615:MyHardWare/Src/motor.c ****   TIM_OCInitStructure.TIM_OCNPolarity = TIM_OCNPolarity_High;
 129              		.loc 1 615 3 is_stmt 1 view .LVU30
ARM GAS  C:\Users\asus\AppData\Local\Temp\ccZFpV1F.s 			page 14


 130              		.loc 1 615 39 is_stmt 0 view .LVU31
 131 0020 ADF81230 		strh	r3, [sp, #18]	@ movhi
 616:MyHardWare/Src/motor.c ****   TIM_OCInitStructure.TIM_OCIdleState = TIM_OCIdleState_Reset;
 132              		.loc 1 616 3 is_stmt 1 view .LVU32
 133              		.loc 1 616 39 is_stmt 0 view .LVU33
 134 0024 ADF81430 		strh	r3, [sp, #20]	@ movhi
 617:MyHardWare/Src/motor.c ****   TIM_OCInitStructure.TIM_OCNIdleState = TIM_OCNIdleState_Reset;
 135              		.loc 1 617 3 is_stmt 1 view .LVU34
 136              		.loc 1 617 40 is_stmt 0 view .LVU35
 137 0028 ADF81630 		strh	r3, [sp, #22]	@ movhi
 618:MyHardWare/Src/motor.c **** 
 619:MyHardWare/Src/motor.c ****   switch (channel) {
 138              		.loc 1 619 3 is_stmt 1 view .LVU36
 139 002c 0C29     		cmp	r1, #12
 140 002e 0FD8     		bhi	.L3
 141 0030 DFE801F0 		tbb	[pc, r1]
 142              	.L6:
 143 0034 07       		.byte	(.L9-.L6)/2
 144 0035 0E       		.byte	(.L3-.L6)/2
 145 0036 0E       		.byte	(.L3-.L6)/2
 146 0037 0E       		.byte	(.L3-.L6)/2
 147 0038 10       		.byte	(.L8-.L6)/2
 148 0039 0E       		.byte	(.L3-.L6)/2
 149 003a 0E       		.byte	(.L3-.L6)/2
 150 003b 0E       		.byte	(.L3-.L6)/2
 151 003c 18       		.byte	(.L7-.L6)/2
 152 003d 0E       		.byte	(.L3-.L6)/2
 153 003e 0E       		.byte	(.L3-.L6)/2
 154 003f 0E       		.byte	(.L3-.L6)/2
 155 0040 20       		.byte	(.L5-.L6)/2
 156 0041 00       		.p2align 1
 157              	.L9:
 620:MyHardWare/Src/motor.c ****   case TIM_Channel_1:
 621:MyHardWare/Src/motor.c ****     TIM_OC1Init(tim, &TIM_OCInitStructure);
 158              		.loc 1 621 5 view .LVU37
 159 0042 01A9     		add	r1, sp, #4
 160              	.LVL7:
 161              		.loc 1 621 5 is_stmt 0 view .LVU38
 162 0044 FFF7FEFF 		bl	TIM_OC1Init
 163              	.LVL8:
 622:MyHardWare/Src/motor.c ****     TIM_OC1PreloadConfig(tim, TIM_OCPreload_Enable);
 164              		.loc 1 622 5 is_stmt 1 view .LVU39
 165 0048 0821     		movs	r1, #8
 166 004a 2046     		mov	r0, r4
 167 004c FFF7FEFF 		bl	TIM_OC1PreloadConfig
 168              	.LVL9:
 623:MyHardWare/Src/motor.c ****     break;
 169              		.loc 1 623 5 view .LVU40
 170              	.L3:
 624:MyHardWare/Src/motor.c ****   case TIM_Channel_2:
 625:MyHardWare/Src/motor.c ****     TIM_OC2Init(tim, &TIM_OCInitStructure);
 626:MyHardWare/Src/motor.c ****     TIM_OC2PreloadConfig(tim, TIM_OCPreload_Enable);
 627:MyHardWare/Src/motor.c ****     break;
 628:MyHardWare/Src/motor.c ****   case TIM_Channel_3:
 629:MyHardWare/Src/motor.c ****     TIM_OC3Init(tim, &TIM_OCInitStructure);
 630:MyHardWare/Src/motor.c ****     TIM_OC3PreloadConfig(tim, TIM_OCPreload_Enable);
 631:MyHardWare/Src/motor.c ****     break;
ARM GAS  C:\Users\asus\AppData\Local\Temp\ccZFpV1F.s 			page 15


 632:MyHardWare/Src/motor.c ****   case TIM_Channel_4:
 633:MyHardWare/Src/motor.c ****     TIM_OC4Init(tim, &TIM_OCInitStructure);
 634:MyHardWare/Src/motor.c ****     TIM_OC4PreloadConfig(tim, TIM_OCPreload_Enable);
 635:MyHardWare/Src/motor.c ****     break;
 636:MyHardWare/Src/motor.c ****   }
 637:MyHardWare/Src/motor.c **** }
 171              		.loc 1 637 1 is_stmt 0 view .LVU41
 172 0050 06B0     		add	sp, sp, #24
 173              	.LCFI5:
 174              		.cfi_remember_state
 175              		.cfi_def_cfa_offset 8
 176              		@ sp needed
 177 0052 10BD     		pop	{r4, pc}
 178              	.LVL10:
 179              	.L8:
 180              	.LCFI6:
 181              		.cfi_restore_state
 625:MyHardWare/Src/motor.c ****     TIM_OC2PreloadConfig(tim, TIM_OCPreload_Enable);
 182              		.loc 1 625 5 is_stmt 1 view .LVU42
 183 0054 01A9     		add	r1, sp, #4
 184              	.LVL11:
 625:MyHardWare/Src/motor.c ****     TIM_OC2PreloadConfig(tim, TIM_OCPreload_Enable);
 185              		.loc 1 625 5 is_stmt 0 view .LVU43
 186 0056 FFF7FEFF 		bl	TIM_OC2Init
 187              	.LVL12:
 626:MyHardWare/Src/motor.c ****     break;
 188              		.loc 1 626 5 is_stmt 1 view .LVU44
 189 005a 0821     		movs	r1, #8
 190 005c 2046     		mov	r0, r4
 191 005e FFF7FEFF 		bl	TIM_OC2PreloadConfig
 192              	.LVL13:
 627:MyHardWare/Src/motor.c ****   case TIM_Channel_3:
 193              		.loc 1 627 5 view .LVU45
 194 0062 F5E7     		b	.L3
 195              	.LVL14:
 196              	.L7:
 629:MyHardWare/Src/motor.c ****     TIM_OC3PreloadConfig(tim, TIM_OCPreload_Enable);
 197              		.loc 1 629 5 view .LVU46
 198 0064 01A9     		add	r1, sp, #4
 199              	.LVL15:
 629:MyHardWare/Src/motor.c ****     TIM_OC3PreloadConfig(tim, TIM_OCPreload_Enable);
 200              		.loc 1 629 5 is_stmt 0 view .LVU47
 201 0066 FFF7FEFF 		bl	TIM_OC3Init
 202              	.LVL16:
 630:MyHardWare/Src/motor.c ****     break;
 203              		.loc 1 630 5 is_stmt 1 view .LVU48
 204 006a 0821     		movs	r1, #8
 205 006c 2046     		mov	r0, r4
 206 006e FFF7FEFF 		bl	TIM_OC3PreloadConfig
 207              	.LVL17:
 631:MyHardWare/Src/motor.c ****   case TIM_Channel_4:
 208              		.loc 1 631 5 view .LVU49
 209 0072 EDE7     		b	.L3
 210              	.LVL18:
 211              	.L5:
 633:MyHardWare/Src/motor.c ****     TIM_OC4PreloadConfig(tim, TIM_OCPreload_Enable);
 212              		.loc 1 633 5 view .LVU50
ARM GAS  C:\Users\asus\AppData\Local\Temp\ccZFpV1F.s 			page 16


 213 0074 01A9     		add	r1, sp, #4
 214              	.LVL19:
 633:MyHardWare/Src/motor.c ****     TIM_OC4PreloadConfig(tim, TIM_OCPreload_Enable);
 215              		.loc 1 633 5 is_stmt 0 view .LVU51
 216 0076 FFF7FEFF 		bl	TIM_OC4Init
 217              	.LVL20:
 634:MyHardWare/Src/motor.c ****     break;
 218              		.loc 1 634 5 is_stmt 1 view .LVU52
 219 007a 0821     		movs	r1, #8
 220 007c 2046     		mov	r0, r4
 221 007e FFF7FEFF 		bl	TIM_OC4PreloadConfig
 222              	.LVL21:
 635:MyHardWare/Src/motor.c ****   }
 223              		.loc 1 635 5 view .LVU53
 224              		.loc 1 637 1 is_stmt 0 view .LVU54
 225 0082 E5E7     		b	.L3
 226              		.cfi_endproc
 227              	.LFE130:
 229              		.section	.text.Motor_GPIO_Init,"ax",%progbits
 230              		.align	1
 231              		.syntax unified
 232              		.thumb
 233              		.thumb_func
 235              	Motor_GPIO_Init:
 236              	.LFB128:
 449:MyHardWare/Src/motor.c ****   GPIO_InitTypeDef GPIO_InitStructure;
 237              		.loc 1 449 35 is_stmt 1 view -0
 238              		.cfi_startproc
 239              		@ args = 0, pretend = 0, frame = 8
 240              		@ frame_needed = 0, uses_anonymous_args = 0
 241 0000 2DE9F043 		push	{r4, r5, r6, r7, r8, r9, lr}
 242              	.LCFI7:
 243              		.cfi_def_cfa_offset 28
 244              		.cfi_offset 4, -28
 245              		.cfi_offset 5, -24
 246              		.cfi_offset 6, -20
 247              		.cfi_offset 7, -16
 248              		.cfi_offset 8, -12
 249              		.cfi_offset 9, -8
 250              		.cfi_offset 14, -4
 251 0004 83B0     		sub	sp, sp, #12
 252              	.LCFI8:
 253              		.cfi_def_cfa_offset 40
 450:MyHardWare/Src/motor.c **** 
 254              		.loc 1 450 3 view .LVU56
 541:MyHardWare/Src/motor.c ****   RCC_AHB1PeriphClockCmd(MOTOR_FR_DIR_CLK, ENABLE);
 255              		.loc 1 541 3 view .LVU57
 256 0006 0121     		movs	r1, #1
 257 0008 1020     		movs	r0, #16
 258 000a FFF7FEFF 		bl	RCC_AHB1PeriphClockCmd
 259              	.LVL22:
 542:MyHardWare/Src/motor.c **** 
 260              		.loc 1 542 3 view .LVU58
 261 000e 0121     		movs	r1, #1
 262 0010 1020     		movs	r0, #16
 263 0012 FFF7FEFF 		bl	RCC_AHB1PeriphClockCmd
 264              	.LVL23:
ARM GAS  C:\Users\asus\AppData\Local\Temp\ccZFpV1F.s 			page 17


 544:MyHardWare/Src/motor.c ****   GPIO_InitStructure.GPIO_Mode = GPIO_Mode_AF;
 265              		.loc 1 544 3 view .LVU59
 544:MyHardWare/Src/motor.c ****   GPIO_InitStructure.GPIO_Mode = GPIO_Mode_AF;
 266              		.loc 1 544 31 is_stmt 0 view .LVU60
 267 0016 4FF40073 		mov	r3, #512
 268 001a 0093     		str	r3, [sp]
 545:MyHardWare/Src/motor.c ****   GPIO_InitStructure.GPIO_Speed = GPIO_Speed_100MHz;
 269              		.loc 1 545 3 is_stmt 1 view .LVU61
 545:MyHardWare/Src/motor.c ****   GPIO_InitStructure.GPIO_Speed = GPIO_Speed_100MHz;
 270              		.loc 1 545 32 is_stmt 0 view .LVU62
 271 001c 0227     		movs	r7, #2
 272 001e 8DF80470 		strb	r7, [sp, #4]
 546:MyHardWare/Src/motor.c ****   GPIO_InitStructure.GPIO_OType = GPIO_OType_PP;
 273              		.loc 1 546 3 is_stmt 1 view .LVU63
 546:MyHardWare/Src/motor.c ****   GPIO_InitStructure.GPIO_OType = GPIO_OType_PP;
 274              		.loc 1 546 33 is_stmt 0 view .LVU64
 275 0022 4FF00308 		mov	r8, #3
 276 0026 8DF80580 		strb	r8, [sp, #5]
 547:MyHardWare/Src/motor.c ****   GPIO_InitStructure.GPIO_PuPd = GPIO_PuPd_UP;
 277              		.loc 1 547 3 is_stmt 1 view .LVU65
 547:MyHardWare/Src/motor.c ****   GPIO_InitStructure.GPIO_PuPd = GPIO_PuPd_UP;
 278              		.loc 1 547 33 is_stmt 0 view .LVU66
 279 002a 0026     		movs	r6, #0
 280 002c 8DF80660 		strb	r6, [sp, #6]
 548:MyHardWare/Src/motor.c ****   GPIO_Init(MOTOR_FR_PWM_PORT, &GPIO_InitStructure);
 281              		.loc 1 548 3 is_stmt 1 view .LVU67
 548:MyHardWare/Src/motor.c ****   GPIO_Init(MOTOR_FR_PWM_PORT, &GPIO_InitStructure);
 282              		.loc 1 548 32 is_stmt 0 view .LVU68
 283 0030 0125     		movs	r5, #1
 284 0032 8DF80750 		strb	r5, [sp, #7]
 549:MyHardWare/Src/motor.c ****   GPIO_PinAFConfig(MOTOR_FR_PWM_PORT, GPIO_PinSource9, MOTOR_FR_PWM_AF);
 285              		.loc 1 549 3 is_stmt 1 view .LVU69
 286 0036 284C     		ldr	r4, .L14
 287 0038 6946     		mov	r1, sp
 288 003a 2046     		mov	r0, r4
 289 003c FFF7FEFF 		bl	GPIO_Init
 290              	.LVL24:
 550:MyHardWare/Src/motor.c **** 
 291              		.loc 1 550 3 view .LVU70
 292 0040 2A46     		mov	r2, r5
 293 0042 0921     		movs	r1, #9
 294 0044 2046     		mov	r0, r4
 295 0046 FFF7FEFF 		bl	GPIO_PinAFConfig
 296              	.LVL25:
 552:MyHardWare/Src/motor.c ****   GPIO_InitStructure.GPIO_Mode = GPIO_Mode_OUT;
 297              		.loc 1 552 3 view .LVU71
 552:MyHardWare/Src/motor.c ****   GPIO_InitStructure.GPIO_Mode = GPIO_Mode_OUT;
 298              		.loc 1 552 31 is_stmt 0 view .LVU72
 299 004a 4FF44069 		mov	r9, #3072
 300 004e CDF80090 		str	r9, [sp]
 553:MyHardWare/Src/motor.c ****   GPIO_InitStructure.GPIO_Speed = GPIO_Speed_50MHz;
 301              		.loc 1 553 3 is_stmt 1 view .LVU73
 553:MyHardWare/Src/motor.c ****   GPIO_InitStructure.GPIO_Speed = GPIO_Speed_50MHz;
 302              		.loc 1 553 32 is_stmt 0 view .LVU74
 303 0052 8DF80450 		strb	r5, [sp, #4]
 554:MyHardWare/Src/motor.c ****   GPIO_InitStructure.GPIO_OType = GPIO_OType_PP;
 304              		.loc 1 554 3 is_stmt 1 view .LVU75
ARM GAS  C:\Users\asus\AppData\Local\Temp\ccZFpV1F.s 			page 18


 554:MyHardWare/Src/motor.c ****   GPIO_InitStructure.GPIO_OType = GPIO_OType_PP;
 305              		.loc 1 554 33 is_stmt 0 view .LVU76
 306 0056 8DF80570 		strb	r7, [sp, #5]
 555:MyHardWare/Src/motor.c ****   GPIO_InitStructure.GPIO_PuPd = GPIO_PuPd_NOPULL;
 307              		.loc 1 555 3 is_stmt 1 view .LVU77
 555:MyHardWare/Src/motor.c ****   GPIO_InitStructure.GPIO_PuPd = GPIO_PuPd_NOPULL;
 308              		.loc 1 555 33 is_stmt 0 view .LVU78
 309 005a 8DF80660 		strb	r6, [sp, #6]
 556:MyHardWare/Src/motor.c ****   GPIO_Init(MOTOR_FR_DIR_PORT, &GPIO_InitStructure);
 310              		.loc 1 556 3 is_stmt 1 view .LVU79
 556:MyHardWare/Src/motor.c ****   GPIO_Init(MOTOR_FR_DIR_PORT, &GPIO_InitStructure);
 311              		.loc 1 556 32 is_stmt 0 view .LVU80
 312 005e 8DF80760 		strb	r6, [sp, #7]
 557:MyHardWare/Src/motor.c ****   GPIO_ResetBits(MOTOR_FR_DIR_PORT, MOTOR_FR_DIR1_PIN | MOTOR_FR_DIR2_PIN);
 313              		.loc 1 557 3 is_stmt 1 view .LVU81
 314 0062 6946     		mov	r1, sp
 315 0064 2046     		mov	r0, r4
 316 0066 FFF7FEFF 		bl	GPIO_Init
 317              	.LVL26:
 558:MyHardWare/Src/motor.c **** 
 318              		.loc 1 558 3 view .LVU82
 319 006a 4946     		mov	r1, r9
 320 006c 2046     		mov	r0, r4
 321 006e FFF7FEFF 		bl	GPIO_ResetBits
 322              	.LVL27:
 561:MyHardWare/Src/motor.c ****   RCC_AHB1PeriphClockCmd(MOTOR_FL_DIR_CLK, ENABLE);
 323              		.loc 1 561 3 view .LVU83
 324 0072 2946     		mov	r1, r5
 325 0074 1020     		movs	r0, #16
 326 0076 FFF7FEFF 		bl	RCC_AHB1PeriphClockCmd
 327              	.LVL28:
 562:MyHardWare/Src/motor.c **** 
 328              		.loc 1 562 3 view .LVU84
 329 007a 2946     		mov	r1, r5
 330 007c 1020     		movs	r0, #16
 331 007e FFF7FEFF 		bl	RCC_AHB1PeriphClockCmd
 332              	.LVL29:
 564:MyHardWare/Src/motor.c ****   GPIO_InitStructure.GPIO_Mode = GPIO_Mode_AF;
 333              		.loc 1 564 3 view .LVU85
 564:MyHardWare/Src/motor.c ****   GPIO_InitStructure.GPIO_Mode = GPIO_Mode_AF;
 334              		.loc 1 564 31 is_stmt 0 view .LVU86
 335 0082 4FF40053 		mov	r3, #8192
 336 0086 0093     		str	r3, [sp]
 565:MyHardWare/Src/motor.c ****   GPIO_InitStructure.GPIO_Speed = GPIO_Speed_100MHz;
 337              		.loc 1 565 3 is_stmt 1 view .LVU87
 565:MyHardWare/Src/motor.c ****   GPIO_InitStructure.GPIO_Speed = GPIO_Speed_100MHz;
 338              		.loc 1 565 32 is_stmt 0 view .LVU88
 339 0088 8DF80470 		strb	r7, [sp, #4]
 566:MyHardWare/Src/motor.c ****   GPIO_InitStructure.GPIO_OType = GPIO_OType_PP;
 340              		.loc 1 566 3 is_stmt 1 view .LVU89
 566:MyHardWare/Src/motor.c ****   GPIO_InitStructure.GPIO_OType = GPIO_OType_PP;
 341              		.loc 1 566 33 is_stmt 0 view .LVU90
 342 008c 8DF80580 		strb	r8, [sp, #5]
 567:MyHardWare/Src/motor.c ****   GPIO_InitStructure.GPIO_PuPd = GPIO_PuPd_UP;
 343              		.loc 1 567 3 is_stmt 1 view .LVU91
 567:MyHardWare/Src/motor.c ****   GPIO_InitStructure.GPIO_PuPd = GPIO_PuPd_UP;
 344              		.loc 1 567 33 is_stmt 0 view .LVU92
ARM GAS  C:\Users\asus\AppData\Local\Temp\ccZFpV1F.s 			page 19


 345 0090 8DF80660 		strb	r6, [sp, #6]
 568:MyHardWare/Src/motor.c ****   GPIO_Init(MOTOR_FL_PWM_PORT, &GPIO_InitStructure);
 346              		.loc 1 568 3 is_stmt 1 view .LVU93
 568:MyHardWare/Src/motor.c ****   GPIO_Init(MOTOR_FL_PWM_PORT, &GPIO_InitStructure);
 347              		.loc 1 568 32 is_stmt 0 view .LVU94
 348 0094 8DF80750 		strb	r5, [sp, #7]
 569:MyHardWare/Src/motor.c ****   GPIO_PinAFConfig(MOTOR_FL_PWM_PORT, GPIO_PinSource13, MOTOR_FL_PWM_AF);
 349              		.loc 1 569 3 is_stmt 1 view .LVU95
 350 0098 6946     		mov	r1, sp
 351 009a 2046     		mov	r0, r4
 352 009c FFF7FEFF 		bl	GPIO_Init
 353              	.LVL30:
 570:MyHardWare/Src/motor.c **** 
 354              		.loc 1 570 3 view .LVU96
 355 00a0 2A46     		mov	r2, r5
 356 00a2 0D21     		movs	r1, #13
 357 00a4 2046     		mov	r0, r4
 358 00a6 FFF7FEFF 		bl	GPIO_PinAFConfig
 359              	.LVL31:
 572:MyHardWare/Src/motor.c ****   GPIO_InitStructure.GPIO_Mode = GPIO_Mode_OUT;
 360              		.loc 1 572 3 view .LVU97
 572:MyHardWare/Src/motor.c ****   GPIO_InitStructure.GPIO_Mode = GPIO_Mode_OUT;
 361              		.loc 1 572 31 is_stmt 0 view .LVU98
 362 00aa 4FF4A048 		mov	r8, #20480
 363 00ae CDF80080 		str	r8, [sp]
 573:MyHardWare/Src/motor.c ****   GPIO_InitStructure.GPIO_Speed = GPIO_Speed_50MHz;
 364              		.loc 1 573 3 is_stmt 1 view .LVU99
 573:MyHardWare/Src/motor.c ****   GPIO_InitStructure.GPIO_Speed = GPIO_Speed_50MHz;
 365              		.loc 1 573 32 is_stmt 0 view .LVU100
 366 00b2 8DF80450 		strb	r5, [sp, #4]
 574:MyHardWare/Src/motor.c ****   GPIO_InitStructure.GPIO_OType = GPIO_OType_PP;
 367              		.loc 1 574 3 is_stmt 1 view .LVU101
 574:MyHardWare/Src/motor.c ****   GPIO_InitStructure.GPIO_OType = GPIO_OType_PP;
 368              		.loc 1 574 33 is_stmt 0 view .LVU102
 369 00b6 8DF80570 		strb	r7, [sp, #5]
 575:MyHardWare/Src/motor.c ****   GPIO_InitStructure.GPIO_PuPd = GPIO_PuPd_NOPULL;
 370              		.loc 1 575 3 is_stmt 1 view .LVU103
 575:MyHardWare/Src/motor.c ****   GPIO_InitStructure.GPIO_PuPd = GPIO_PuPd_NOPULL;
 371              		.loc 1 575 33 is_stmt 0 view .LVU104
 372 00ba 8DF80660 		strb	r6, [sp, #6]
 576:MyHardWare/Src/motor.c ****   GPIO_Init(MOTOR_FL_DIR_PORT, &GPIO_InitStructure);
 373              		.loc 1 576 3 is_stmt 1 view .LVU105
 576:MyHardWare/Src/motor.c ****   GPIO_Init(MOTOR_FL_DIR_PORT, &GPIO_InitStructure);
 374              		.loc 1 576 32 is_stmt 0 view .LVU106
 375 00be 8DF80760 		strb	r6, [sp, #7]
 577:MyHardWare/Src/motor.c ****   GPIO_ResetBits(MOTOR_FL_DIR_PORT, MOTOR_FL_DIR1_PIN | MOTOR_FL_DIR2_PIN);
 376              		.loc 1 577 3 is_stmt 1 view .LVU107
 377 00c2 6946     		mov	r1, sp
 378 00c4 2046     		mov	r0, r4
 379 00c6 FFF7FEFF 		bl	GPIO_Init
 380              	.LVL32:
 578:MyHardWare/Src/motor.c **** #endif
 381              		.loc 1 578 3 view .LVU108
 382 00ca 4146     		mov	r1, r8
 383 00cc 2046     		mov	r0, r4
 384 00ce FFF7FEFF 		bl	GPIO_ResetBits
 385              	.LVL33:
ARM GAS  C:\Users\asus\AppData\Local\Temp\ccZFpV1F.s 			page 20


 580:MyHardWare/Src/motor.c **** 
 386              		.loc 1 580 1 is_stmt 0 view .LVU109
 387 00d2 03B0     		add	sp, sp, #12
 388              	.LCFI9:
 389              		.cfi_def_cfa_offset 28
 390              		@ sp needed
 391 00d4 BDE8F083 		pop	{r4, r5, r6, r7, r8, r9, pc}
 392              	.L15:
 393              		.align	2
 394              	.L14:
 395 00d8 00100240 		.word	1073876992
 396              		.cfi_endproc
 397              	.LFE128:
 399              		.section	.text.Motor_SetSpeed,"ax",%progbits
 400              		.align	1
 401              		.global	Motor_SetSpeed
 402              		.syntax unified
 403              		.thumb
 404              		.thumb_func
 406              	Motor_SetSpeed:
 407              	.LVL34:
 408              	.LFB123:
  44:MyHardWare/Src/motor.c ****   Motor_Class_t *inst = NULL;
 409              		.loc 1 44 54 is_stmt 1 view -0
 410              		.cfi_startproc
 411              		@ args = 0, pretend = 0, frame = 0
 412              		@ frame_needed = 0, uses_anonymous_args = 0
 413              		@ link register save eliminated.
  45:MyHardWare/Src/motor.c **** 
 414              		.loc 1 45 3 view .LVU111
  65:MyHardWare/Src/motor.c ****   case MOTOR_RIGHT:
 415              		.loc 1 65 3 view .LVU112
 416 0000 18B1     		cbz	r0, .L20
 417 0002 0128     		cmp	r0, #1
 418 0004 0ED1     		bne	.L16
  70:MyHardWare/Src/motor.c ****     break;
 419              		.loc 1 70 10 is_stmt 0 view .LVU113
 420 0006 084B     		ldr	r3, .L23
 421 0008 00E0     		b	.L17
 422              	.L20:
  65:MyHardWare/Src/motor.c ****   case MOTOR_RIGHT:
 423              		.loc 1 65 3 view .LVU114
 424 000a 084B     		ldr	r3, .L23+4
 425              	.L17:
 426              	.LVL35:
  78:MyHardWare/Src/motor.c ****     speed = MOTOR_PWM_MAX_DUTY;
 427              		.loc 1 78 3 is_stmt 1 view .LVU115
  78:MyHardWare/Src/motor.c ****     speed = MOTOR_PWM_MAX_DUTY;
 428              		.loc 1 78 6 is_stmt 0 view .LVU116
 429 000c 42F2CF02 		movw	r2, #8399
 430 0010 9142     		cmp	r1, r2
 431 0012 04DC     		bgt	.L21
  80:MyHardWare/Src/motor.c ****     speed = -MOTOR_PWM_MAX_DUTY;
 432              		.loc 1 80 10 is_stmt 1 view .LVU117
  80:MyHardWare/Src/motor.c ****     speed = -MOTOR_PWM_MAX_DUTY;
 433              		.loc 1 80 13 is_stmt 0 view .LVU118
 434 0014 064A     		ldr	r2, .L23+8
ARM GAS  C:\Users\asus\AppData\Local\Temp\ccZFpV1F.s 			page 21


 435 0016 9142     		cmp	r1, r2
 436 0018 03DA     		bge	.L19
  81:MyHardWare/Src/motor.c ****   }
 437              		.loc 1 81 11 view .LVU119
 438 001a 0549     		ldr	r1, .L23+8
 439              	.LVL36:
  81:MyHardWare/Src/motor.c ****   }
 440              		.loc 1 81 11 view .LVU120
 441 001c 01E0     		b	.L19
 442              	.LVL37:
 443              	.L21:
  79:MyHardWare/Src/motor.c ****   } else if (speed < -MOTOR_PWM_MAX_DUTY) {
 444              		.loc 1 79 11 view .LVU121
 445 001e 42F2CF01 		movw	r1, #8399
 446              	.LVL38:
 447              	.L19:
  85:MyHardWare/Src/motor.c **** }
 448              		.loc 1 85 3 is_stmt 1 view .LVU122
  85:MyHardWare/Src/motor.c **** }
 449              		.loc 1 85 16 is_stmt 0 view .LVU123
 450 0022 1980     		strh	r1, [r3]	@ movhi
 451              	.LVL39:
 452              	.L16:
  86:MyHardWare/Src/motor.c **** 
 453              		.loc 1 86 1 view .LVU124
 454 0024 7047     		bx	lr
 455              	.L24:
 456 0026 00BF     		.align	2
 457              	.L23:
 458 0028 00000000 		.word	Motor_Left
 459 002c 00000000 		.word	Motor_Right
 460 0030 31DFFFFF 		.word	-8399
 461              		.cfi_endproc
 462              	.LFE123:
 464              		.section	.text.Motor_SetDirection,"ax",%progbits
 465              		.align	1
 466              		.global	Motor_SetDirection
 467              		.syntax unified
 468              		.thumb
 469              		.thumb_func
 471              	Motor_SetDirection:
 472              	.LVL40:
 473              	.LFB124:
  96:MyHardWare/Src/motor.c ****   Motor_Class_t *inst = NULL;
 474              		.loc 1 96 66 is_stmt 1 view -0
 475              		.cfi_startproc
 476              		@ args = 0, pretend = 0, frame = 0
 477              		@ frame_needed = 0, uses_anonymous_args = 0
 478              		@ link register save eliminated.
  97:MyHardWare/Src/motor.c **** 
 479              		.loc 1 97 3 view .LVU126
 117:MyHardWare/Src/motor.c ****   case MOTOR_RIGHT:
 480              		.loc 1 117 3 view .LVU127
 481 0000 18B1     		cbz	r0, .L28
 482 0002 0128     		cmp	r0, #1
 483 0004 03D1     		bne	.L25
 122:MyHardWare/Src/motor.c ****     break;
ARM GAS  C:\Users\asus\AppData\Local\Temp\ccZFpV1F.s 			page 22


 484              		.loc 1 122 10 is_stmt 0 view .LVU128
 485 0006 024B     		ldr	r3, .L29
 486 0008 00E0     		b	.L26
 487              	.L28:
 117:MyHardWare/Src/motor.c ****   case MOTOR_RIGHT:
 488              		.loc 1 117 3 view .LVU129
 489 000a 024B     		ldr	r3, .L29+4
 490              	.L26:
 491              	.LVL41:
 130:MyHardWare/Src/motor.c **** }
 492              		.loc 1 130 3 is_stmt 1 view .LVU130
 130:MyHardWare/Src/motor.c **** }
 493              		.loc 1 130 20 is_stmt 0 view .LVU131
 494 000c 9970     		strb	r1, [r3, #2]
 495              	.LVL42:
 496              	.L25:
 131:MyHardWare/Src/motor.c **** 
 497              		.loc 1 131 1 view .LVU132
 498 000e 7047     		bx	lr
 499              	.L30:
 500              		.align	2
 501              	.L29:
 502 0010 00000000 		.word	Motor_Left
 503 0014 00000000 		.word	Motor_Right
 504              		.cfi_endproc
 505              	.LFE124:
 507              		.section	.text.Motor_Update,"ax",%progbits
 508              		.align	1
 509              		.global	Motor_Update
 510              		.syntax unified
 511              		.thumb
 512              		.thumb_func
 514              	Motor_Update:
 515              	.LVL43:
 516              	.LFB125:
 143:MyHardWare/Src/motor.c ****   Motor_Class_t *inst = NULL;
 517              		.loc 1 143 37 is_stmt 1 view -0
 518              		.cfi_startproc
 519              		@ args = 0, pretend = 0, frame = 0
 520              		@ frame_needed = 0, uses_anonymous_args = 0
 143:MyHardWare/Src/motor.c ****   Motor_Class_t *inst = NULL;
 521              		.loc 1 143 37 is_stmt 0 view .LVU134
 522 0000 F8B5     		push	{r3, r4, r5, r6, r7, lr}
 523              	.LCFI10:
 524              		.cfi_def_cfa_offset 24
 525              		.cfi_offset 3, -24
 526              		.cfi_offset 4, -20
 527              		.cfi_offset 5, -16
 528              		.cfi_offset 6, -12
 529              		.cfi_offset 7, -8
 530              		.cfi_offset 14, -4
 144:MyHardWare/Src/motor.c **** 
 531              		.loc 1 144 3 is_stmt 1 view .LVU135
 532              	.LVL44:
 164:MyHardWare/Src/motor.c ****   case MOTOR_RIGHT:
 533              		.loc 1 164 3 view .LVU136
 534 0002 0446     		mov	r4, r0
ARM GAS  C:\Users\asus\AppData\Local\Temp\ccZFpV1F.s 			page 23


 535 0004 40B1     		cbz	r0, .L44
 536 0006 0128     		cmp	r0, #1
 537 0008 27D1     		bne	.L31
 169:MyHardWare/Src/motor.c ****     break;
 538              		.loc 1 169 5 view .LVU137
 539              	.LVL45:
 170:MyHardWare/Src/motor.c ****   default:
 540              		.loc 1 170 5 view .LVU138
 177:MyHardWare/Src/motor.c ****   uint16_t dir1_pin, dir2_pin;
 541              		.loc 1 177 3 view .LVU139
 178:MyHardWare/Src/motor.c **** 
 542              		.loc 1 178 3 view .LVU140
 206:MyHardWare/Src/motor.c ****     dir_port = MOTOR_FR_DIR_PORT;
 543              		.loc 1 206 3 view .LVU141
 210:MyHardWare/Src/motor.c ****     dir_port = MOTOR_FL_DIR_PORT;
 544              		.loc 1 210 10 view .LVU142
 210:MyHardWare/Src/motor.c ****     dir_port = MOTOR_FL_DIR_PORT;
 545              		.loc 1 210 13 is_stmt 0 view .LVU143
 546 000a 26D1     		bne	.L31
 169:MyHardWare/Src/motor.c ****     break;
 547              		.loc 1 169 10 view .LVU144
 548 000c 234D     		ldr	r5, .L50
 213:MyHardWare/Src/motor.c ****   } else {
 549              		.loc 1 213 14 view .LVU145
 550 000e 4FF48046 		mov	r6, #16384
 212:MyHardWare/Src/motor.c ****     dir2_pin = MOTOR_FL_DIR2_PIN;
 551              		.loc 1 212 14 view .LVU146
 552 0012 4FF48051 		mov	r1, #4096
 553 0016 04E0     		b	.L32
 554              	.LVL46:
 555              	.L44:
 164:MyHardWare/Src/motor.c ****   case MOTOR_RIGHT:
 556              		.loc 1 164 3 view .LVU147
 557 0018 214D     		ldr	r5, .L50+4
 558 001a 4FF48066 		mov	r6, #1024
 559 001e 4FF40061 		mov	r1, #2048
 560              	.LVL47:
 561              	.L32:
 220:MyHardWare/Src/motor.c ****   case MOTOR_DIR_FORWARD:
 562              		.loc 1 220 3 is_stmt 1 view .LVU148
 220:MyHardWare/Src/motor.c ****   case MOTOR_DIR_FORWARD:
 563              		.loc 1 220 15 is_stmt 0 view .LVU149
 564 0022 AB78     		ldrb	r3, [r5, #2]	@ zero_extendqisi2
 220:MyHardWare/Src/motor.c ****   case MOTOR_DIR_FORWARD:
 565              		.loc 1 220 3 view .LVU150
 566 0024 032B     		cmp	r3, #3
 567 0026 0BD8     		bhi	.L34
 568 0028 DFE803F0 		tbb	[pc, r3]
 569              	.L36:
 570 002c 21       		.byte	(.L39-.L36)/2
 571 002d 02       		.byte	(.L38-.L36)/2
 572 002e 18       		.byte	(.L37-.L36)/2
 573 002f 26       		.byte	(.L35-.L36)/2
 574              		.p2align 1
 575              	.L38:
 222:MyHardWare/Src/motor.c ****     GPIO_SetBits(dir_port, dir2_pin);
 576              		.loc 1 222 5 is_stmt 1 view .LVU151
ARM GAS  C:\Users\asus\AppData\Local\Temp\ccZFpV1F.s 			page 24


 577 0030 1C4F     		ldr	r7, .L50+8
 578 0032 3846     		mov	r0, r7
 579              	.LVL48:
 222:MyHardWare/Src/motor.c ****     GPIO_SetBits(dir_port, dir2_pin);
 580              		.loc 1 222 5 is_stmt 0 view .LVU152
 581 0034 FFF7FEFF 		bl	GPIO_ResetBits
 582              	.LVL49:
 223:MyHardWare/Src/motor.c ****     break;
 583              		.loc 1 223 5 is_stmt 1 view .LVU153
 584 0038 3146     		mov	r1, r6
 585 003a 3846     		mov	r0, r7
 586 003c FFF7FEFF 		bl	GPIO_SetBits
 587              	.LVL50:
 224:MyHardWare/Src/motor.c ****   case MOTOR_DIR_BACKWARD:
 588              		.loc 1 224 5 view .LVU154
 589              	.L34:
 238:MyHardWare/Src/motor.c ****       (inst->_speed >= 0) ? (uint16_t)inst->_speed : (uint16_t)(-inst->_speed);
 590              		.loc 1 238 3 view .LVU155
 239:MyHardWare/Src/motor.c ****   if (duty > MOTOR_PWM_MAX_DUTY)
 591              		.loc 1 239 12 is_stmt 0 view .LVU156
 592 0040 B5F90010 		ldrsh	r1, [r5]
 238:MyHardWare/Src/motor.c ****       (inst->_speed >= 0) ? (uint16_t)inst->_speed : (uint16_t)(-inst->_speed);
 593              		.loc 1 238 12 view .LVU157
 594 0044 0029     		cmp	r1, #0
 595 0046 1CDB     		blt	.L40
 238:MyHardWare/Src/motor.c ****       (inst->_speed >= 0) ? (uint16_t)inst->_speed : (uint16_t)(-inst->_speed);
 596              		.loc 1 238 12 discriminator 1 view .LVU158
 597 0048 89B2     		uxth	r1, r1
 598              	.L41:
 599              	.LVL51:
 240:MyHardWare/Src/motor.c ****     duty = MOTOR_PWM_MAX_DUTY;
 600              		.loc 1 240 3 is_stmt 1 view .LVU159
 240:MyHardWare/Src/motor.c ****     duty = MOTOR_PWM_MAX_DUTY;
 601              		.loc 1 240 6 is_stmt 0 view .LVU160
 602 004a 42F2CF03 		movw	r3, #8399
 603 004e 9942     		cmp	r1, r3
 604 0050 00D9     		bls	.L42
 241:MyHardWare/Src/motor.c **** 
 605              		.loc 1 241 10 view .LVU161
 606 0052 1946     		mov	r1, r3
 607              	.LVL52:
 608              	.L42:
 255:MyHardWare/Src/motor.c ****     TIM_SetCompare1(inst->tim, duty);
 609              		.loc 1 255 3 is_stmt 1 view .LVU162
 255:MyHardWare/Src/motor.c ****     TIM_SetCompare1(inst->tim, duty);
 610              		.loc 1 255 6 is_stmt 0 view .LVU163
 611 0054 CCB1     		cbz	r4, .L48
 257:MyHardWare/Src/motor.c ****     TIM_SetCompare3(inst->tim, duty);
 612              		.loc 1 257 10 is_stmt 1 view .LVU164
 257:MyHardWare/Src/motor.c ****     TIM_SetCompare3(inst->tim, duty);
 613              		.loc 1 257 13 is_stmt 0 view .LVU165
 614 0056 012C     		cmp	r4, #1
 615 0058 1BD0     		beq	.L49
 616              	.LVL53:
 617              	.L31:
 261:MyHardWare/Src/motor.c **** 
 618              		.loc 1 261 1 view .LVU166
ARM GAS  C:\Users\asus\AppData\Local\Temp\ccZFpV1F.s 			page 25


 619 005a F8BD     		pop	{r3, r4, r5, r6, r7, pc}
 620              	.LVL54:
 621              	.L37:
 226:MyHardWare/Src/motor.c ****     GPIO_ResetBits(dir_port, dir2_pin);
 622              		.loc 1 226 5 is_stmt 1 view .LVU167
 623 005c 114F     		ldr	r7, .L50+8
 624 005e 3846     		mov	r0, r7
 625              	.LVL55:
 226:MyHardWare/Src/motor.c ****     GPIO_ResetBits(dir_port, dir2_pin);
 626              		.loc 1 226 5 is_stmt 0 view .LVU168
 627 0060 FFF7FEFF 		bl	GPIO_SetBits
 628              	.LVL56:
 227:MyHardWare/Src/motor.c ****     break;
 629              		.loc 1 227 5 is_stmt 1 view .LVU169
 630 0064 3146     		mov	r1, r6
 631 0066 3846     		mov	r0, r7
 632 0068 FFF7FEFF 		bl	GPIO_ResetBits
 633              	.LVL57:
 228:MyHardWare/Src/motor.c ****   case MOTOR_DIR_STOP:
 634              		.loc 1 228 5 view .LVU170
 635 006c E8E7     		b	.L34
 636              	.LVL58:
 637              	.L39:
 230:MyHardWare/Src/motor.c ****     break;
 638              		.loc 1 230 5 view .LVU171
 639 006e 3143     		orrs	r1, r1, r6
 640              	.LVL59:
 230:MyHardWare/Src/motor.c ****     break;
 641              		.loc 1 230 5 is_stmt 0 view .LVU172
 642 0070 0C48     		ldr	r0, .L50+8
 643              	.LVL60:
 230:MyHardWare/Src/motor.c ****     break;
 644              		.loc 1 230 5 view .LVU173
 645 0072 FFF7FEFF 		bl	GPIO_ResetBits
 646              	.LVL61:
 231:MyHardWare/Src/motor.c ****   case MOTOR_DIR_BRAKE:
 647              		.loc 1 231 5 is_stmt 1 view .LVU174
 648 0076 E3E7     		b	.L34
 649              	.LVL62:
 650              	.L35:
 233:MyHardWare/Src/motor.c ****     break;
 651              		.loc 1 233 5 view .LVU175
 652 0078 3143     		orrs	r1, r1, r6
 653              	.LVL63:
 233:MyHardWare/Src/motor.c ****     break;
 654              		.loc 1 233 5 is_stmt 0 view .LVU176
 655 007a 0A48     		ldr	r0, .L50+8
 656              	.LVL64:
 233:MyHardWare/Src/motor.c ****     break;
 657              		.loc 1 233 5 view .LVU177
 658 007c FFF7FEFF 		bl	GPIO_SetBits
 659              	.LVL65:
 234:MyHardWare/Src/motor.c ****   }
 660              		.loc 1 234 5 is_stmt 1 view .LVU178
 661 0080 DEE7     		b	.L34
 662              	.L40:
 239:MyHardWare/Src/motor.c ****   if (duty > MOTOR_PWM_MAX_DUTY)
ARM GAS  C:\Users\asus\AppData\Local\Temp\ccZFpV1F.s 			page 26


 663              		.loc 1 239 70 is_stmt 0 view .LVU179
 664 0082 89B2     		uxth	r1, r1
 238:MyHardWare/Src/motor.c ****       (inst->_speed >= 0) ? (uint16_t)inst->_speed : (uint16_t)(-inst->_speed);
 665              		.loc 1 238 12 discriminator 2 view .LVU180
 666 0084 4942     		rsbs	r1, r1, #0
 667 0086 89B2     		uxth	r1, r1
 668 0088 DFE7     		b	.L41
 669              	.LVL66:
 670              	.L48:
 256:MyHardWare/Src/motor.c ****   } else if (motor == MOTOR_LEFT) {
 671              		.loc 1 256 5 is_stmt 1 view .LVU181
 672 008a 6868     		ldr	r0, [r5, #4]
 673 008c FFF7FEFF 		bl	TIM_SetCompare1
 674              	.LVL67:
 256:MyHardWare/Src/motor.c ****   } else if (motor == MOTOR_LEFT) {
 675              		.loc 1 256 5 is_stmt 0 view .LVU182
 676 0090 E3E7     		b	.L31
 677              	.LVL68:
 678              	.L49:
 258:MyHardWare/Src/motor.c ****   }
 679              		.loc 1 258 5 is_stmt 1 view .LVU183
 680 0092 6868     		ldr	r0, [r5, #4]
 681 0094 FFF7FEFF 		bl	TIM_SetCompare3
 682              	.LVL69:
 258:MyHardWare/Src/motor.c ****   }
 683              		.loc 1 258 5 is_stmt 0 view .LVU184
 684 0098 DFE7     		b	.L31
 685              	.L51:
 686 009a 00BF     		.align	2
 687              	.L50:
 688 009c 00000000 		.word	Motor_Left
 689 00a0 00000000 		.word	Motor_Right
 690 00a4 00100240 		.word	1073876992
 691              		.cfi_endproc
 692              	.LFE125:
 694              		.section	.text.Motor_Stop,"ax",%progbits
 695              		.align	1
 696              		.global	Motor_Stop
 697              		.syntax unified
 698              		.thumb
 699              		.thumb_func
 701              	Motor_Stop:
 702              	.LVL70:
 703              	.LFB126:
 271:MyHardWare/Src/motor.c ****   Motor_Class_t *inst = NULL;
 704              		.loc 1 271 35 is_stmt 1 view -0
 705              		.cfi_startproc
 706              		@ args = 0, pretend = 0, frame = 0
 707              		@ frame_needed = 0, uses_anonymous_args = 0
 271:MyHardWare/Src/motor.c ****   Motor_Class_t *inst = NULL;
 708              		.loc 1 271 35 is_stmt 0 view .LVU186
 709 0000 38B5     		push	{r3, r4, r5, lr}
 710              	.LCFI11:
 711              		.cfi_def_cfa_offset 16
 712              		.cfi_offset 3, -16
 713              		.cfi_offset 4, -12
 714              		.cfi_offset 5, -8
ARM GAS  C:\Users\asus\AppData\Local\Temp\ccZFpV1F.s 			page 27


 715              		.cfi_offset 14, -4
 272:MyHardWare/Src/motor.c ****   GPIO_TypeDef *dir_port;
 716              		.loc 1 272 3 is_stmt 1 view .LVU187
 717              	.LVL71:
 273:MyHardWare/Src/motor.c ****   uint16_t dir1_pin, dir2_pin;
 718              		.loc 1 273 3 view .LVU188
 274:MyHardWare/Src/motor.c ****   TIM_TypeDef *pwm_tim;
 719              		.loc 1 274 3 view .LVU189
 275:MyHardWare/Src/motor.c ****   uint16_t pwm_channel;
 720              		.loc 1 275 3 view .LVU190
 276:MyHardWare/Src/motor.c **** 
 721              		.loc 1 276 3 view .LVU191
 316:MyHardWare/Src/motor.c ****   case MOTOR_RIGHT:
 722              		.loc 1 316 3 view .LVU192
 723 0002 40B1     		cbz	r0, .L56
 724 0004 0128     		cmp	r0, #1
 725 0006 15D1     		bne	.L52
 331:MyHardWare/Src/motor.c ****     break;
 726              		.loc 1 331 17 is_stmt 0 view .LVU193
 727 0008 0821     		movs	r1, #8
 329:MyHardWare/Src/motor.c ****     pwm_tim = MOTOR_FL_PWM_TIM;
 728              		.loc 1 329 14 view .LVU194
 729 000a 4FF48044 		mov	r4, #16384
 328:MyHardWare/Src/motor.c ****     dir2_pin = MOTOR_FL_DIR2_PIN;
 730              		.loc 1 328 14 view .LVU195
 731 000e 4FF48055 		mov	r5, #4096
 326:MyHardWare/Src/motor.c ****     dir_port = MOTOR_FL_DIR_PORT;
 732              		.loc 1 326 10 view .LVU196
 733 0012 0B4B     		ldr	r3, .L59
 734 0014 05E0     		b	.L53
 735              	.L56:
 316:MyHardWare/Src/motor.c ****   case MOTOR_RIGHT:
 736              		.loc 1 316 3 view .LVU197
 737 0016 0021     		movs	r1, #0
 738 0018 4FF48064 		mov	r4, #1024
 739 001c 4FF40065 		mov	r5, #2048
 740 0020 084B     		ldr	r3, .L59+4
 741              	.L53:
 742              	.LVL72:
 339:MyHardWare/Src/motor.c ****   inst->_direction = MOTOR_DIR_STOP;
 743              		.loc 1 339 3 is_stmt 1 view .LVU198
 339:MyHardWare/Src/motor.c ****   inst->_direction = MOTOR_DIR_STOP;
 744              		.loc 1 339 16 is_stmt 0 view .LVU199
 745 0022 0022     		movs	r2, #0
 746 0024 1A80     		strh	r2, [r3]	@ movhi
 340:MyHardWare/Src/motor.c **** 
 747              		.loc 1 340 3 is_stmt 1 view .LVU200
 340:MyHardWare/Src/motor.c **** 
 748              		.loc 1 340 20 is_stmt 0 view .LVU201
 749 0026 9A70     		strb	r2, [r3, #2]
 343:MyHardWare/Src/motor.c ****     TIM_SetCompare1(pwm_tim, 0);
 750              		.loc 1 343 3 is_stmt 1 view .LVU202
 343:MyHardWare/Src/motor.c ****     TIM_SetCompare1(pwm_tim, 0);
 751              		.loc 1 343 6 is_stmt 0 view .LVU203
 752 0028 29B1     		cbz	r1, .L58
 753              	.LVL73:
 754              	.L55:
ARM GAS  C:\Users\asus\AppData\Local\Temp\ccZFpV1F.s 			page 28


 350:MyHardWare/Src/motor.c **** }
 755              		.loc 1 350 3 is_stmt 1 view .LVU204
 756 002a 45EA0401 		orr	r1, r5, r4
 757 002e 0648     		ldr	r0, .L59+8
 758 0030 FFF7FEFF 		bl	GPIO_ResetBits
 759              	.LVL74:
 760              	.L52:
 351:MyHardWare/Src/motor.c **** 
 761              		.loc 1 351 1 is_stmt 0 view .LVU205
 762 0034 38BD     		pop	{r3, r4, r5, pc}
 763              	.LVL75:
 764              	.L58:
 344:MyHardWare/Src/motor.c ****   } else if (pwm_channel == TIM_Channel_2) {
 765              		.loc 1 344 5 is_stmt 1 view .LVU206
 766 0036 1146     		mov	r1, r2
 767              	.LVL76:
 344:MyHardWare/Src/motor.c ****   } else if (pwm_channel == TIM_Channel_2) {
 768              		.loc 1 344 5 is_stmt 0 view .LVU207
 769 0038 0448     		ldr	r0, .L59+12
 770              	.LVL77:
 344:MyHardWare/Src/motor.c ****   } else if (pwm_channel == TIM_Channel_2) {
 771              		.loc 1 344 5 view .LVU208
 772 003a FFF7FEFF 		bl	TIM_SetCompare1
 773              	.LVL78:
 344:MyHardWare/Src/motor.c ****   } else if (pwm_channel == TIM_Channel_2) {
 774              		.loc 1 344 5 view .LVU209
 775 003e F4E7     		b	.L55
 776              	.L60:
 777              		.align	2
 778              	.L59:
 779 0040 00000000 		.word	Motor_Left
 780 0044 00000000 		.word	Motor_Right
 781 0048 00100240 		.word	1073876992
 782 004c 00000140 		.word	1073807360
 783              		.cfi_endproc
 784              	.LFE126:
 786              		.section	.text.Motor_Brake,"ax",%progbits
 787              		.align	1
 788              		.global	Motor_Brake
 789              		.syntax unified
 790              		.thumb
 791              		.thumb_func
 793              	Motor_Brake:
 794              	.LVL79:
 795              	.LFB127:
 361:MyHardWare/Src/motor.c ****   Motor_Class_t *inst = NULL;
 796              		.loc 1 361 36 is_stmt 1 view -0
 797              		.cfi_startproc
 798              		@ args = 0, pretend = 0, frame = 0
 799              		@ frame_needed = 0, uses_anonymous_args = 0
 361:MyHardWare/Src/motor.c ****   Motor_Class_t *inst = NULL;
 800              		.loc 1 361 36 is_stmt 0 view .LVU211
 801 0000 38B5     		push	{r3, r4, r5, lr}
 802              	.LCFI12:
 803              		.cfi_def_cfa_offset 16
 804              		.cfi_offset 3, -16
 805              		.cfi_offset 4, -12
ARM GAS  C:\Users\asus\AppData\Local\Temp\ccZFpV1F.s 			page 29


 806              		.cfi_offset 5, -8
 807              		.cfi_offset 14, -4
 362:MyHardWare/Src/motor.c ****   GPIO_TypeDef *dir_port;
 808              		.loc 1 362 3 is_stmt 1 view .LVU212
 809              	.LVL80:
 363:MyHardWare/Src/motor.c ****   uint16_t dir1_pin, dir2_pin;
 810              		.loc 1 363 3 view .LVU213
 364:MyHardWare/Src/motor.c ****   TIM_TypeDef *pwm_tim;
 811              		.loc 1 364 3 view .LVU214
 365:MyHardWare/Src/motor.c ****   uint16_t pwm_channel;
 812              		.loc 1 365 3 view .LVU215
 366:MyHardWare/Src/motor.c **** 
 813              		.loc 1 366 3 view .LVU216
 406:MyHardWare/Src/motor.c ****   case MOTOR_RIGHT:
 814              		.loc 1 406 3 view .LVU217
 815 0002 40B1     		cbz	r0, .L65
 816 0004 0128     		cmp	r0, #1
 817 0006 16D1     		bne	.L61
 421:MyHardWare/Src/motor.c ****     break;
 818              		.loc 1 421 17 is_stmt 0 view .LVU218
 819 0008 0822     		movs	r2, #8
 419:MyHardWare/Src/motor.c ****     pwm_tim = MOTOR_FL_PWM_TIM;
 820              		.loc 1 419 14 view .LVU219
 821 000a 4FF48044 		mov	r4, #16384
 418:MyHardWare/Src/motor.c ****     dir2_pin = MOTOR_FL_DIR2_PIN;
 822              		.loc 1 418 14 view .LVU220
 823 000e 4FF48055 		mov	r5, #4096
 416:MyHardWare/Src/motor.c ****     dir_port = MOTOR_FL_DIR_PORT;
 824              		.loc 1 416 10 view .LVU221
 825 0012 0C4B     		ldr	r3, .L68
 826 0014 05E0     		b	.L62
 827              	.L65:
 406:MyHardWare/Src/motor.c ****   case MOTOR_RIGHT:
 828              		.loc 1 406 3 view .LVU222
 829 0016 0022     		movs	r2, #0
 830 0018 4FF48064 		mov	r4, #1024
 831 001c 4FF40065 		mov	r5, #2048
 832 0020 094B     		ldr	r3, .L68+4
 833              	.L62:
 834              	.LVL81:
 429:MyHardWare/Src/motor.c ****   inst->_direction = MOTOR_DIR_BRAKE;
 835              		.loc 1 429 3 is_stmt 1 view .LVU223
 429:MyHardWare/Src/motor.c ****   inst->_direction = MOTOR_DIR_BRAKE;
 836              		.loc 1 429 16 is_stmt 0 view .LVU224
 837 0022 0021     		movs	r1, #0
 838 0024 1980     		strh	r1, [r3]	@ movhi
 430:MyHardWare/Src/motor.c **** 
 839              		.loc 1 430 3 is_stmt 1 view .LVU225
 430:MyHardWare/Src/motor.c **** 
 840              		.loc 1 430 20 is_stmt 0 view .LVU226
 841 0026 0321     		movs	r1, #3
 842 0028 9970     		strb	r1, [r3, #2]
 433:MyHardWare/Src/motor.c ****     TIM_SetCompare1(pwm_tim, 0);
 843              		.loc 1 433 3 is_stmt 1 view .LVU227
 433:MyHardWare/Src/motor.c ****     TIM_SetCompare1(pwm_tim, 0);
 844              		.loc 1 433 6 is_stmt 0 view .LVU228
 845 002a 2AB1     		cbz	r2, .L67
ARM GAS  C:\Users\asus\AppData\Local\Temp\ccZFpV1F.s 			page 30


 846              	.LVL82:
 847              	.L64:
 440:MyHardWare/Src/motor.c **** }
 848              		.loc 1 440 3 is_stmt 1 view .LVU229
 849 002c 45EA0401 		orr	r1, r5, r4
 850 0030 0648     		ldr	r0, .L68+8
 851 0032 FFF7FEFF 		bl	GPIO_SetBits
 852              	.LVL83:
 853              	.L61:
 441:MyHardWare/Src/motor.c **** 
 854              		.loc 1 441 1 is_stmt 0 view .LVU230
 855 0036 38BD     		pop	{r3, r4, r5, pc}
 856              	.LVL84:
 857              	.L67:
 434:MyHardWare/Src/motor.c ****   } else if (pwm_channel == TIM_Channel_2) {
 858              		.loc 1 434 5 is_stmt 1 view .LVU231
 859 0038 0021     		movs	r1, #0
 860 003a 0548     		ldr	r0, .L68+12
 861              	.LVL85:
 434:MyHardWare/Src/motor.c ****   } else if (pwm_channel == TIM_Channel_2) {
 862              		.loc 1 434 5 is_stmt 0 view .LVU232
 863 003c FFF7FEFF 		bl	TIM_SetCompare1
 864              	.LVL86:
 434:MyHardWare/Src/motor.c ****   } else if (pwm_channel == TIM_Channel_2) {
 865              		.loc 1 434 5 view .LVU233
 866 0040 F4E7     		b	.L64
 867              	.L69:
 868 0042 00BF     		.align	2
 869              	.L68:
 870 0044 00000000 		.word	Motor_Left
 871 0048 00000000 		.word	Motor_Right
 872 004c 00100240 		.word	1073876992
 873 0050 00000140 		.word	1073807360
 874              		.cfi_endproc
 875              	.LFE127:
 877              		.section	.text.Motor_Driver_Init,"ax",%progbits
 878              		.align	1
 879              		.global	Motor_Driver_Init
 880              		.syntax unified
 881              		.thumb
 882              		.thumb_func
 884              	Motor_Driver_Init:
 885              	.LFB131:
 638:MyHardWare/Src/motor.c **** 
 639:MyHardWare/Src/motor.c **** /* ==================== е…¬жңүеҮҪж•°е®һзҺ° ==================== */
 640:MyHardWare/Src/motor.c **** 
 641:MyHardWare/Src/motor.c **** /**
 642:MyHardWare/Src/motor.c ****  * @brief з”өжңәй©ұеҠЁеҲқе§ӢеҢ–
 643:MyHardWare/Src/motor.c ****  */
 644:MyHardWare/Src/motor.c **** void Motor_Driver_Init(void) {
 886              		.loc 1 644 30 is_stmt 1 view -0
 887              		.cfi_startproc
 888              		@ args = 0, pretend = 0, frame = 0
 889              		@ frame_needed = 0, uses_anonymous_args = 0
 890 0000 10B5     		push	{r4, lr}
 891              	.LCFI13:
 892              		.cfi_def_cfa_offset 8
ARM GAS  C:\Users\asus\AppData\Local\Temp\ccZFpV1F.s 			page 31


 893              		.cfi_offset 4, -8
 894              		.cfi_offset 14, -4
 645:MyHardWare/Src/motor.c ****   // еҲқе§ӢеҢ–TIM1 (еүҚеҸігҖҒеүҚе·Ұз”өжңә / еҸҢй©ұжЁЎејҸдёӢзҡ„еҸігҖҒе·Ұз”өжңә)
 646:MyHardWare/Src/motor.c ****   Motor_TIM_Init(MOTOR_FR_PWM_TIM, MOTOR_FR_PWM_TIM_CLK);
 895              		.loc 1 646 3 view .LVU235
 896 0002 0E4C     		ldr	r4, .L72
 897 0004 0121     		movs	r1, #1
 898 0006 2046     		mov	r0, r4
 899 0008 FFF7FEFF 		bl	Motor_TIM_Init
 900              	.LVL87:
 647:MyHardWare/Src/motor.c ****   Motor_TIM_Channel_Init(MOTOR_FR_PWM_TIM, MOTOR_FR_PWM_CHANNEL);
 901              		.loc 1 647 3 view .LVU236
 902 000c 0021     		movs	r1, #0
 903 000e 2046     		mov	r0, r4
 904 0010 FFF7FEFF 		bl	Motor_TIM_Channel_Init
 905              	.LVL88:
 648:MyHardWare/Src/motor.c **** 
 649:MyHardWare/Src/motor.c ****   Motor_TIM_Init(MOTOR_FL_PWM_TIM, MOTOR_FL_PWM_TIM_CLK);
 906              		.loc 1 649 3 view .LVU237
 907 0014 0121     		movs	r1, #1
 908 0016 2046     		mov	r0, r4
 909 0018 FFF7FEFF 		bl	Motor_TIM_Init
 910              	.LVL89:
 650:MyHardWare/Src/motor.c ****   Motor_TIM_Channel_Init(MOTOR_FL_PWM_TIM, MOTOR_FL_PWM_CHANNEL);
 911              		.loc 1 650 3 view .LVU238
 912 001c 0821     		movs	r1, #8
 913 001e 2046     		mov	r0, r4
 914 0020 FFF7FEFF 		bl	Motor_TIM_Channel_Init
 915              	.LVL90:
 651:MyHardWare/Src/motor.c **** 
 652:MyHardWare/Src/motor.c **** #ifdef QUAD_MOTOR_DRIVE
 653:MyHardWare/Src/motor.c ****   // еҲқе§ӢеҢ–TIM8 (еҗҺеҸігҖҒеҗҺе·Ұз”өжңә)
 654:MyHardWare/Src/motor.c ****   Motor_TIM_Init(MOTOR_BR_PWM_TIM, MOTOR_BR_PWM_TIM_CLK);
 655:MyHardWare/Src/motor.c ****   Motor_TIM_Channel_Init(MOTOR_BR_PWM_TIM, MOTOR_BR_PWM_CHANNEL);
 656:MyHardWare/Src/motor.c ****   Motor_TIM_Channel_Init(MOTOR_BR_PWM_TIM, MOTOR_BL_PWM_CHANNEL);
 657:MyHardWare/Src/motor.c **** #endif
 658:MyHardWare/Src/motor.c **** 
 659:MyHardWare/Src/motor.c ****   // дҪҝиғҪPWMиҫ“еҮә
 660:MyHardWare/Src/motor.c ****   TIM_CtrlPWMOutputs(TIM1, ENABLE);
 916              		.loc 1 660 3 view .LVU239
 917 0024 0121     		movs	r1, #1
 918 0026 2046     		mov	r0, r4
 919 0028 FFF7FEFF 		bl	TIM_CtrlPWMOutputs
 920              	.LVL91:
 661:MyHardWare/Src/motor.c ****   TIM_Cmd(TIM1, ENABLE);
 921              		.loc 1 661 3 view .LVU240
 922 002c 0121     		movs	r1, #1
 923 002e 2046     		mov	r0, r4
 924 0030 FFF7FEFF 		bl	TIM_Cmd
 925              	.LVL92:
 662:MyHardWare/Src/motor.c **** #ifdef QUAD_MOTOR_DRIVE
 663:MyHardWare/Src/motor.c ****   TIM_CtrlPWMOutputs(TIM8, ENABLE);
 664:MyHardWare/Src/motor.c ****   TIM_Cmd(TIM8, ENABLE);
 665:MyHardWare/Src/motor.c **** #endif
 666:MyHardWare/Src/motor.c ****   Motor_GPIO_Init();
 926              		.loc 1 666 3 view .LVU241
 927 0034 FFF7FEFF 		bl	Motor_GPIO_Init
ARM GAS  C:\Users\asus\AppData\Local\Temp\ccZFpV1F.s 			page 32


 928              	.LVL93:
 667:MyHardWare/Src/motor.c **** }
 929              		.loc 1 667 1 is_stmt 0 view .LVU242
 930 0038 10BD     		pop	{r4, pc}
 931              	.L73:
 932 003a 00BF     		.align	2
 933              	.L72:
 934 003c 00000140 		.word	1073807360
 935              		.cfi_endproc
 936              	.LFE131:
 938              		.section	.text.Motor_StopAll,"ax",%progbits
 939              		.align	1
 940              		.global	Motor_StopAll
 941              		.syntax unified
 942              		.thumb
 943              		.thumb_func
 945              	Motor_StopAll:
 946              	.LFB132:
 668:MyHardWare/Src/motor.c **** 
 669:MyHardWare/Src/motor.c **** // дјјд№ҺжІЎеҝ…иҰҒпјҢеҸҜд»ҘеҺ»жҺү
 670:MyHardWare/Src/motor.c **** //  /**
 671:MyHardWare/Src/motor.c **** //   * @brief з”өжңәй©ұеҠЁеҺ»еҲқе§ӢеҢ–
 672:MyHardWare/Src/motor.c **** //   */
 673:MyHardWare/Src/motor.c **** //  void Motor_Driver_DeInit(void)
 674:MyHardWare/Src/motor.c **** //  {
 675:MyHardWare/Src/motor.c **** //      Motor_StopAll();
 676:MyHardWare/Src/motor.c **** //      TIM_Cmd(TIM1, DISABLE);
 677:MyHardWare/Src/motor.c **** //      TIM_CtrlPWMOutputs(TIM1, DISABLE);
 678:MyHardWare/Src/motor.c **** //  #ifdef QUAD_MOTOR_DRIVE
 679:MyHardWare/Src/motor.c **** //      TIM_Cmd(TIM8, DISABLE);
 680:MyHardWare/Src/motor.c **** //      TIM_CtrlPWMOutputs(TIM8, DISABLE);
 681:MyHardWare/Src/motor.c **** //  #endif
 682:MyHardWare/Src/motor.c **** //  }
 683:MyHardWare/Src/motor.c **** 
 684:MyHardWare/Src/motor.c **** /**
 685:MyHardWare/Src/motor.c ****  * @brief еҒңжӯўжүҖжңүз”өжңә
 686:MyHardWare/Src/motor.c ****  */
 687:MyHardWare/Src/motor.c **** void Motor_StopAll(void) {
 947              		.loc 1 687 26 is_stmt 1 view -0
 948              		.cfi_startproc
 949              		@ args = 0, pretend = 0, frame = 0
 950              		@ frame_needed = 0, uses_anonymous_args = 0
 951 0000 08B5     		push	{r3, lr}
 952              	.LCFI14:
 953              		.cfi_def_cfa_offset 8
 954              		.cfi_offset 3, -8
 955              		.cfi_offset 14, -4
 688:MyHardWare/Src/motor.c **** #ifdef QUAD_MOTOR_DRIVE
 689:MyHardWare/Src/motor.c ****   Motor_Stop(MOTOR_FR);
 690:MyHardWare/Src/motor.c ****   Motor_Stop(MOTOR_FL);
 691:MyHardWare/Src/motor.c ****   Motor_Stop(MOTOR_BR);
 692:MyHardWare/Src/motor.c ****   Motor_Stop(MOTOR_BL);
 693:MyHardWare/Src/motor.c **** #else
 694:MyHardWare/Src/motor.c ****   Motor_Stop(MOTOR_RIGHT);
 956              		.loc 1 694 3 view .LVU244
 957 0002 0020     		movs	r0, #0
 958 0004 FFF7FEFF 		bl	Motor_Stop
ARM GAS  C:\Users\asus\AppData\Local\Temp\ccZFpV1F.s 			page 33


 959              	.LVL94:
 695:MyHardWare/Src/motor.c ****   Motor_Stop(MOTOR_LEFT);
 960              		.loc 1 695 3 view .LVU245
 961 0008 0120     		movs	r0, #1
 962 000a FFF7FEFF 		bl	Motor_Stop
 963              	.LVL95:
 696:MyHardWare/Src/motor.c **** #endif
 697:MyHardWare/Src/motor.c **** }
 964              		.loc 1 697 1 is_stmt 0 view .LVU246
 965 000e 08BD     		pop	{r3, pc}
 966              		.cfi_endproc
 967              	.LFE132:
 969              		.section	.text.Motor_BrakeAll,"ax",%progbits
 970              		.align	1
 971              		.global	Motor_BrakeAll
 972              		.syntax unified
 973              		.thumb
 974              		.thumb_func
 976              	Motor_BrakeAll:
 977              	.LFB133:
 698:MyHardWare/Src/motor.c **** 
 699:MyHardWare/Src/motor.c **** /**
 700:MyHardWare/Src/motor.c ****  * @brief еҲ№иҪҰжүҖжңүз”өжңә
 701:MyHardWare/Src/motor.c ****  */
 702:MyHardWare/Src/motor.c **** void Motor_BrakeAll(void) {
 978              		.loc 1 702 27 is_stmt 1 view -0
 979              		.cfi_startproc
 980              		@ args = 0, pretend = 0, frame = 0
 981              		@ frame_needed = 0, uses_anonymous_args = 0
 982 0000 08B5     		push	{r3, lr}
 983              	.LCFI15:
 984              		.cfi_def_cfa_offset 8
 985              		.cfi_offset 3, -8
 986              		.cfi_offset 14, -4
 703:MyHardWare/Src/motor.c **** #ifdef QUAD_MOTOR_DRIVE
 704:MyHardWare/Src/motor.c ****   Motor_Brake(MOTOR_FR);
 705:MyHardWare/Src/motor.c ****   Motor_Brake(MOTOR_FL);
 706:MyHardWare/Src/motor.c ****   Motor_Brake(MOTOR_BR);
 707:MyHardWare/Src/motor.c ****   Motor_Brake(MOTOR_BL);
 708:MyHardWare/Src/motor.c **** #else
 709:MyHardWare/Src/motor.c ****   Motor_Brake(MOTOR_RIGHT);
 987              		.loc 1 709 3 view .LVU248
 988 0002 0020     		movs	r0, #0
 989 0004 FFF7FEFF 		bl	Motor_Brake
 990              	.LVL96:
 710:MyHardWare/Src/motor.c ****   Motor_Brake(MOTOR_LEFT);
 991              		.loc 1 710 3 view .LVU249
 992 0008 0120     		movs	r0, #1
 993 000a FFF7FEFF 		bl	Motor_Brake
 994              	.LVL97:
 711:MyHardWare/Src/motor.c **** #endif
 712:MyHardWare/Src/motor.c **** }
 995              		.loc 1 712 1 is_stmt 0 view .LVU250
 996 000e 08BD     		pop	{r3, pc}
 997              		.cfi_endproc
 998              	.LFE133:
 1000              		.section	.text.Motor_StartTimers,"ax",%progbits
ARM GAS  C:\Users\asus\AppData\Local\Temp\ccZFpV1F.s 			page 34


 1001              		.align	1
 1002              		.global	Motor_StartTimers
 1003              		.syntax unified
 1004              		.thumb
 1005              		.thumb_func
 1007              	Motor_StartTimers:
 1008              	.LFB134:
 713:MyHardWare/Src/motor.c **** 
 714:MyHardWare/Src/motor.c **** // ... existing code ...
 715:MyHardWare/Src/motor.c **** 
 716:MyHardWare/Src/motor.c **** /**
 717:MyHardWare/Src/motor.c ****  * @brief еҗҜеҠЁжүҖжңүз”өжңәе®ҡж—¶еҷЁ
 718:MyHardWare/Src/motor.c ****  */
 719:MyHardWare/Src/motor.c **** void Motor_StartTimers(void) {
 1009              		.loc 1 719 30 is_stmt 1 view -0
 1010              		.cfi_startproc
 1011              		@ args = 0, pretend = 0, frame = 0
 1012              		@ frame_needed = 0, uses_anonymous_args = 0
 1013 0000 10B5     		push	{r4, lr}
 1014              	.LCFI16:
 1015              		.cfi_def_cfa_offset 8
 1016              		.cfi_offset 4, -8
 1017              		.cfi_offset 14, -4
 720:MyHardWare/Src/motor.c ****   TIM_CtrlPWMOutputs(TIM1, ENABLE);
 1018              		.loc 1 720 3 view .LVU252
 1019 0002 054C     		ldr	r4, .L80
 1020 0004 0121     		movs	r1, #1
 1021 0006 2046     		mov	r0, r4
 1022 0008 FFF7FEFF 		bl	TIM_CtrlPWMOutputs
 1023              	.LVL98:
 721:MyHardWare/Src/motor.c ****   TIM_Cmd(TIM1, ENABLE);
 1024              		.loc 1 721 3 view .LVU253
 1025 000c 0121     		movs	r1, #1
 1026 000e 2046     		mov	r0, r4
 1027 0010 FFF7FEFF 		bl	TIM_Cmd
 1028              	.LVL99:
 722:MyHardWare/Src/motor.c **** #ifdef QUAD_MOTOR_DRIVE
 723:MyHardWare/Src/motor.c ****   TIM_CtrlPWMOutputs(TIM8, ENABLE);
 724:MyHardWare/Src/motor.c ****   TIM_Cmd(TIM8, ENABLE);
 725:MyHardWare/Src/motor.c **** #endif
 726:MyHardWare/Src/motor.c **** }
 1029              		.loc 1 726 1 is_stmt 0 view .LVU254
 1030 0014 10BD     		pop	{r4, pc}
 1031              	.L81:
 1032 0016 00BF     		.align	2
 1033              	.L80:
 1034 0018 00000140 		.word	1073807360
 1035              		.cfi_endproc
 1036              	.LFE134:
 1038              		.section	.text.Motor_StopTimers,"ax",%progbits
 1039              		.align	1
 1040              		.global	Motor_StopTimers
 1041              		.syntax unified
 1042              		.thumb
 1043              		.thumb_func
 1045              	Motor_StopTimers:
 1046              	.LFB135:
ARM GAS  C:\Users\asus\AppData\Local\Temp\ccZFpV1F.s 			page 35


 727:MyHardWare/Src/motor.c **** 
 728:MyHardWare/Src/motor.c **** /**
 729:MyHardWare/Src/motor.c ****  * @brief еҒңжӯўжүҖжңүз”өжңәе®ҡж—¶еҷЁ
 730:MyHardWare/Src/motor.c ****  */
 731:MyHardWare/Src/motor.c **** void Motor_StopTimers(void) {
 1047              		.loc 1 731 29 is_stmt 1 view -0
 1048              		.cfi_startproc
 1049              		@ args = 0, pretend = 0, frame = 0
 1050              		@ frame_needed = 0, uses_anonymous_args = 0
 1051 0000 10B5     		push	{r4, lr}
 1052              	.LCFI17:
 1053              		.cfi_def_cfa_offset 8
 1054              		.cfi_offset 4, -8
 1055              		.cfi_offset 14, -4
 732:MyHardWare/Src/motor.c ****   TIM_CtrlPWMOutputs(TIM1, DISABLE);
 1056              		.loc 1 732 3 view .LVU256
 1057 0002 054C     		ldr	r4, .L84
 1058 0004 0021     		movs	r1, #0
 1059 0006 2046     		mov	r0, r4
 1060 0008 FFF7FEFF 		bl	TIM_CtrlPWMOutputs
 1061              	.LVL100:
 733:MyHardWare/Src/motor.c ****   TIM_Cmd(TIM1, DISABLE);
 1062              		.loc 1 733 3 view .LVU257
 1063 000c 0021     		movs	r1, #0
 1064 000e 2046     		mov	r0, r4
 1065 0010 FFF7FEFF 		bl	TIM_Cmd
 1066              	.LVL101:
 734:MyHardWare/Src/motor.c **** #ifdef QUAD_MOTOR_DRIVE
 735:MyHardWare/Src/motor.c ****   TIM_CtrlPWMOutputs(TIM8, DISABLE);
 736:MyHardWare/Src/motor.c ****   TIM_Cmd(TIM8, DISABLE);
 737:MyHardWare/Src/motor.c **** #endif
 738:MyHardWare/Src/motor.c **** }
 1067              		.loc 1 738 1 is_stmt 0 view .LVU258
 1068 0014 10BD     		pop	{r4, pc}
 1069              	.L85:
 1070 0016 00BF     		.align	2
 1071              	.L84:
 1072 0018 00000140 		.word	1073807360
 1073              		.cfi_endproc
 1074              	.LFE135:
 1076              		.section	.data.Motor_Right,"aw"
 1077              		.align	2
 1080              	Motor_Right:
 1081 0000 0000     		.short	0
 1082 0002 00       		.byte	0
 1083 0003 00       		.byte	0
 1084 0004 00000140 		.word	1073807360
 1085 0008 0000     		.short	0
 1086 000a 0000     		.space	2
 1087              		.section	.data.Motor_Left,"aw"
 1088              		.align	2
 1091              	Motor_Left:
 1092 0000 0000     		.short	0
 1093 0002 00       		.byte	0
 1094 0003 01       		.byte	1
 1095 0004 00000140 		.word	1073807360
 1096 0008 0800     		.short	8
ARM GAS  C:\Users\asus\AppData\Local\Temp\ccZFpV1F.s 			page 36


 1097 000a 0000     		.space	2
 1098              		.text
 1099              	.Letext0:
 1100              		.file 2 "C:/Program Files (x86)/Arm GNU Toolchain arm-none-eabi/13.2 Rel1/arm-none-eabi/include/ma
 1101              		.file 3 "C:/Program Files (x86)/Arm GNU Toolchain arm-none-eabi/13.2 Rel1/arm-none-eabi/include/sy
 1102              		.file 4 "CMSIS/stm32f4xx.h"
 1103              		.file 5 "Lib/StdPeriphs/inc/stm32f4xx_gpio.h"
 1104              		.file 6 "Lib/StdPeriphs/inc/stm32f4xx_tim.h"
 1105              		.file 7 "MyHardWare/Inc/motor.h"
 1106              		.file 8 "Lib/StdPeriphs/inc/stm32f4xx_rcc.h"
ARM GAS  C:\Users\asus\AppData\Local\Temp\ccZFpV1F.s 			page 37

