ARM GAS  /tmp/ccZenB3o.s 			page 1


   1              		.cpu cortex-m4
   2              		.arch armv7e-m
   3              		.fpu fpv4-sp-d16
   4              		.eabi_attribute 27, 1
   5              		.eabi_attribute 28, 1
   6              		.eabi_attribute 20, 1
   7              		.eabi_attribute 21, 1
   8              		.eabi_attribute 23, 3
   9              		.eabi_attribute 24, 1
  10              		.eabi_attribute 25, 1
  11              		.eabi_attribute 26, 1
  12              		.eabi_attribute 30, 1
  13              		.eabi_attribute 34, 1
  14              		.eabi_attribute 18, 4
  15              		.file	"motor.c"
  16              		.text
  17              	.Ltext0:
  18              		.cfi_sections	.debug_frame
  19              		.file 1 "MyHardWare/Src/motor.c"
  20              		.section	.text.Motor_Instance_SetSpeed,"ax",%progbits
  21              		.align	1
  22              		.syntax unified
  23              		.thumb
  24              		.thumb_func
  26              	Motor_Instance_SetSpeed:
  27              	.LVL0:
  28              	.LFB123:
   1:MyHardWare/Src/motor.c **** /**
   2:MyHardWare/Src/motor.c ****  * @file motor.c
   3:MyHardWare/Src/motor.c ****  * @brief 电机PWM驱动实现文件 - 智能车专用（面向对象风格）
   4:MyHardWare/Src/motor.c ****  * @version 2.0
   5:MyHardWare/Src/motor.c ****  * @date 2026-03-04
   6:MyHardWare/Src/motor.c ****  */
   7:MyHardWare/Src/motor.c **** 
   8:MyHardWare/Src/motor.c **** #include "motor.h"
   9:MyHardWare/Src/motor.c **** #include "stm32f4xx_gpio.h"
  10:MyHardWare/Src/motor.c **** #include "stm32f4xx_tim.h"
  11:MyHardWare/Src/motor.c **** 
  12:MyHardWare/Src/motor.c **** /* ==================== 全局电机实例定义 ==================== */
  13:MyHardWare/Src/motor.c **** // 四驱模式电机实例
  14:MyHardWare/Src/motor.c **** #ifdef QUAD_MOTOR_DRIVE
  15:MyHardWare/Src/motor.c **** Motor_Class_t Motor_FR = {0};
  16:MyHardWare/Src/motor.c **** Motor_Class_t Motor_FL = {0};
  17:MyHardWare/Src/motor.c **** Motor_Class_t Motor_BR = {0};
  18:MyHardWare/Src/motor.c **** Motor_Class_t Motor_BL = {0};
  19:MyHardWare/Src/motor.c **** #else
  20:MyHardWare/Src/motor.c **** // 双驱模式电机实例
  21:MyHardWare/Src/motor.c **** Motor_Class_t Motor_Right = {0};
  22:MyHardWare/Src/motor.c **** Motor_Class_t Motor_Left = {0};
  23:MyHardWare/Src/motor.c **** #endif
  24:MyHardWare/Src/motor.c **** 
  25:MyHardWare/Src/motor.c **** /* ==================== 私有函数声明 ==================== */
  26:MyHardWare/Src/motor.c **** static void Motor_GPIO_Init(Motor_Id_e motor);
  27:MyHardWare/Src/motor.c **** static void Motor_TIM_Init(TIM_TypeDef* tim, uint32_t tim_clk);
  28:MyHardWare/Src/motor.c **** static void Motor_TIM_Channel_Init(TIM_TypeDef* tim, uint16_t channel);
  29:MyHardWare/Src/motor.c **** static void Motor_Instance_SetSpeed(Motor_Class_t* inst, int16_t speed);
  30:MyHardWare/Src/motor.c **** 
ARM GAS  /tmp/ccZenB3o.s 			page 2


  31:MyHardWare/Src/motor.c **** /* ==================== 私有函数：辅助函数 ==================== */
  32:MyHardWare/Src/motor.c **** 
  33:MyHardWare/Src/motor.c **** /**
  34:MyHardWare/Src/motor.c ****  * @brief 设置单个实例的速度
  35:MyHardWare/Src/motor.c ****  * @param inst 电机实例指针
  36:MyHardWare/Src/motor.c ****  * @param speed 速度值 (-MOTOR_PWM_MAX_DUTY ~ +MOTOR_PWM_MAX_DUTY)
  37:MyHardWare/Src/motor.c ****  */
  38:MyHardWare/Src/motor.c **** static void Motor_Instance_SetSpeed(Motor_Class_t* inst, int16_t speed)
  39:MyHardWare/Src/motor.c **** {
  29              		.loc 1 39 1 view -0
  30              		.cfi_startproc
  31              		@ args = 0, pretend = 0, frame = 0
  32              		@ frame_needed = 0, uses_anonymous_args = 0
  33              		.loc 1 39 1 is_stmt 0 view .LVU1
  34 0000 38B5     		push	{r3, r4, r5, lr}
  35              	.LCFI0:
  36              		.cfi_def_cfa_offset 16
  37              		.cfi_offset 3, -16
  38              		.cfi_offset 4, -12
  39              		.cfi_offset 5, -8
  40              		.cfi_offset 14, -4
  41 0002 0546     		mov	r5, r0
  40:MyHardWare/Src/motor.c ****     // 限制速度范围
  41:MyHardWare/Src/motor.c ****     if (speed > MOTOR_PWM_MAX_DUTY) {
  42              		.loc 1 41 5 is_stmt 1 view .LVU2
  43              		.loc 1 41 8 is_stmt 0 view .LVU3
  44 0004 42F2CF03 		movw	r3, #8399
  45 0008 9942     		cmp	r1, r3
  46 000a 06DC     		bgt	.L6
  47 000c 0C46     		mov	r4, r1
  42:MyHardWare/Src/motor.c ****         speed = MOTOR_PWM_MAX_DUTY;
  43:MyHardWare/Src/motor.c ****     } else if (speed < -MOTOR_PWM_MAX_DUTY) {
  48              		.loc 1 43 12 is_stmt 1 view .LVU4
  49              		.loc 1 43 15 is_stmt 0 view .LVU5
  50 000e 0E4B     		ldr	r3, .L10
  51 0010 9942     		cmp	r1, r3
  52 0012 0BDB     		blt	.L7
  44:MyHardWare/Src/motor.c ****         speed = -MOTOR_PWM_MAX_DUTY;
  45:MyHardWare/Src/motor.c ****     }
  46:MyHardWare/Src/motor.c **** 
  47:MyHardWare/Src/motor.c ****     // 根据速度正负设置方向和占空比
  48:MyHardWare/Src/motor.c ****     if (speed > 0) {
  53              		.loc 1 48 5 is_stmt 1 view .LVU6
  54              		.loc 1 48 8 is_stmt 0 view .LVU7
  55 0014 0029     		cmp	r1, #0
  56 0016 02DC     		bgt	.L2
  57 0018 09E0     		b	.L3
  58              	.L6:
  42:MyHardWare/Src/motor.c ****         speed = MOTOR_PWM_MAX_DUTY;
  59              		.loc 1 42 15 view .LVU8
  60 001a 42F2CF04 		movw	r4, #8399
  61              	.L2:
  62              	.LVL1:
  49:MyHardWare/Src/motor.c ****         inst->SetDirection(MOTOR_DIR_FORWARD);
  63              		.loc 1 49 9 is_stmt 1 view .LVU9
  64              		.loc 1 49 13 is_stmt 0 view .LVU10
  65 001e AB69     		ldr	r3, [r5, #24]
ARM GAS  /tmp/ccZenB3o.s 			page 3


  66              		.loc 1 49 9 view .LVU11
  67 0020 0120     		movs	r0, #1
  68              	.LVL2:
  69              		.loc 1 49 9 view .LVU12
  70 0022 9847     		blx	r3
  71              	.LVL3:
  50:MyHardWare/Src/motor.c ****         inst->SetDuty((uint16_t)speed);
  72              		.loc 1 50 9 is_stmt 1 view .LVU13
  73              		.loc 1 50 13 is_stmt 0 view .LVU14
  74 0024 EB69     		ldr	r3, [r5, #28]
  75              		.loc 1 50 9 view .LVU15
  76 0026 A0B2     		uxth	r0, r4
  77 0028 9847     		blx	r3
  78              	.LVL4:
  79              	.L1:
  51:MyHardWare/Src/motor.c ****     } else if (speed < 0) {
  52:MyHardWare/Src/motor.c ****         inst->SetDirection(MOTOR_DIR_BACKWARD);
  53:MyHardWare/Src/motor.c ****         inst->SetDuty((uint16_t)(-speed));
  54:MyHardWare/Src/motor.c ****     } else {
  55:MyHardWare/Src/motor.c ****         inst->Stop();
  56:MyHardWare/Src/motor.c ****     }
  57:MyHardWare/Src/motor.c **** }
  80              		.loc 1 57 1 view .LVU16
  81 002a 38BD     		pop	{r3, r4, r5, pc}
  82              	.LVL5:
  83              	.L7:
  44:MyHardWare/Src/motor.c ****     }
  84              		.loc 1 44 15 view .LVU17
  85 002c 064C     		ldr	r4, .L10
  86              	.L3:
  87              	.LVL6:
  51:MyHardWare/Src/motor.c ****     } else if (speed < 0) {
  88              		.loc 1 51 12 is_stmt 1 view .LVU18
  51:MyHardWare/Src/motor.c ****     } else if (speed < 0) {
  89              		.loc 1 51 15 is_stmt 0 view .LVU19
  90 002e 002C     		cmp	r4, #0
  91 0030 02DB     		blt	.L9
  55:MyHardWare/Src/motor.c ****     }
  92              		.loc 1 55 9 is_stmt 1 view .LVU20
  55:MyHardWare/Src/motor.c ****     }
  93              		.loc 1 55 13 is_stmt 0 view .LVU21
  94 0032 2B6A     		ldr	r3, [r5, #32]
  55:MyHardWare/Src/motor.c ****     }
  95              		.loc 1 55 9 view .LVU22
  96 0034 9847     		blx	r3
  97              	.LVL7:
  98              		.loc 1 57 1 view .LVU23
  99 0036 F8E7     		b	.L1
 100              	.LVL8:
 101              	.L9:
  52:MyHardWare/Src/motor.c ****         inst->SetDuty((uint16_t)(-speed));
 102              		.loc 1 52 9 is_stmt 1 view .LVU24
  52:MyHardWare/Src/motor.c ****         inst->SetDuty((uint16_t)(-speed));
 103              		.loc 1 52 13 is_stmt 0 view .LVU25
 104 0038 AB69     		ldr	r3, [r5, #24]
  52:MyHardWare/Src/motor.c ****         inst->SetDuty((uint16_t)(-speed));
 105              		.loc 1 52 9 view .LVU26
ARM GAS  /tmp/ccZenB3o.s 			page 4


 106 003a 0220     		movs	r0, #2
 107              	.LVL9:
  52:MyHardWare/Src/motor.c ****         inst->SetDuty((uint16_t)(-speed));
 108              		.loc 1 52 9 view .LVU27
 109 003c 9847     		blx	r3
 110              	.LVL10:
  53:MyHardWare/Src/motor.c ****     } else {
 111              		.loc 1 53 9 is_stmt 1 view .LVU28
  53:MyHardWare/Src/motor.c ****     } else {
 112              		.loc 1 53 13 is_stmt 0 view .LVU29
 113 003e EB69     		ldr	r3, [r5, #28]
  53:MyHardWare/Src/motor.c ****     } else {
 114              		.loc 1 53 9 view .LVU30
 115 0040 6042     		rsbs	r0, r4, #0
 116 0042 80B2     		uxth	r0, r0
 117 0044 9847     		blx	r3
 118              	.LVL11:
 119 0046 F0E7     		b	.L1
 120              	.L11:
 121              		.align	2
 122              	.L10:
 123 0048 31DFFFFF 		.word	-8399
 124              		.cfi_endproc
 125              	.LFE123:
 127              		.section	.text.Motor_Right_DeInit,"ax",%progbits
 128              		.align	1
 129              		.syntax unified
 130              		.thumb
 131              		.thumb_func
 133              	Motor_Right_DeInit:
 134              	.LFB125:
  58:MyHardWare/Src/motor.c **** 
  59:MyHardWare/Src/motor.c **** /* ==================== 私有函数：单个实例操作 ==================== */
  60:MyHardWare/Src/motor.c **** 
  61:MyHardWare/Src/motor.c **** #ifdef QUAD_MOTOR_DRIVE
  62:MyHardWare/Src/motor.c **** 
  63:MyHardWare/Src/motor.c **** /**
  64:MyHardWare/Src/motor.c ****  * @brief 前右电机实例操作
  65:MyHardWare/Src/motor.c ****  */
  66:MyHardWare/Src/motor.c **** static void Motor_FR_Init(void) {
  67:MyHardWare/Src/motor.c ****     Motor_GPIO_Init(MOTOR_FR);
  68:MyHardWare/Src/motor.c ****     Motor_FR.initialized = 1;
  69:MyHardWare/Src/motor.c **** }
  70:MyHardWare/Src/motor.c **** static void Motor_FR_DeInit(void) {
  71:MyHardWare/Src/motor.c ****     Motor_FR.initialized = 0;
  72:MyHardWare/Src/motor.c **** }
  73:MyHardWare/Src/motor.c **** static void Motor_FR_SetSpeed(int16_t speed) {
  74:MyHardWare/Src/motor.c ****     Motor_Instance_SetSpeed(&Motor_FR, speed);
  75:MyHardWare/Src/motor.c **** }
  76:MyHardWare/Src/motor.c **** static void Motor_FR_SetDirection(Motor_Direction_e dir) {
  77:MyHardWare/Src/motor.c ****     switch (dir) {
  78:MyHardWare/Src/motor.c ****         case MOTOR_DIR_FORWARD:
  79:MyHardWare/Src/motor.c ****             GPIO_SetBits(MOTOR_FR_DIR_PORT, MOTOR_FR_DIR1_PIN);
  80:MyHardWare/Src/motor.c ****             GPIO_ResetBits(MOTOR_FR_DIR_PORT, MOTOR_FR_DIR2_PIN);
  81:MyHardWare/Src/motor.c ****             break;
  82:MyHardWare/Src/motor.c ****         case MOTOR_DIR_BACKWARD:
  83:MyHardWare/Src/motor.c ****             GPIO_ResetBits(MOTOR_FR_DIR_PORT, MOTOR_FR_DIR1_PIN);
ARM GAS  /tmp/ccZenB3o.s 			page 5


  84:MyHardWare/Src/motor.c ****             GPIO_SetBits(MOTOR_FR_DIR_PORT, MOTOR_FR_DIR2_PIN);
  85:MyHardWare/Src/motor.c ****             break;
  86:MyHardWare/Src/motor.c ****         case MOTOR_DIR_STOP:
  87:MyHardWare/Src/motor.c ****             GPIO_ResetBits(MOTOR_FR_DIR_PORT, MOTOR_FR_DIR1_PIN | MOTOR_FR_DIR2_PIN);
  88:MyHardWare/Src/motor.c ****             break;
  89:MyHardWare/Src/motor.c ****         case MOTOR_DIR_BRAKE:
  90:MyHardWare/Src/motor.c ****             GPIO_SetBits(MOTOR_FR_DIR_PORT, MOTOR_FR_DIR1_PIN | MOTOR_FR_DIR2_PIN);
  91:MyHardWare/Src/motor.c ****             break;
  92:MyHardWare/Src/motor.c ****     }
  93:MyHardWare/Src/motor.c **** }
  94:MyHardWare/Src/motor.c **** static void Motor_FR_SetDuty(uint16_t duty) {
  95:MyHardWare/Src/motor.c ****     if (duty > MOTOR_PWM_MAX_DUTY) duty = MOTOR_PWM_MAX_DUTY;
  96:MyHardWare/Src/motor.c ****     TIM_SetCompare1(MOTOR_FR_PWM_TIM, duty);
  97:MyHardWare/Src/motor.c **** }
  98:MyHardWare/Src/motor.c **** static void Motor_FR_Stop(void) {
  99:MyHardWare/Src/motor.c ****     Motor_FR_SetDuty(0);
 100:MyHardWare/Src/motor.c ****     Motor_FR_SetDirection(MOTOR_DIR_STOP);
 101:MyHardWare/Src/motor.c **** }
 102:MyHardWare/Src/motor.c **** static void Motor_FR_Brake(void) {
 103:MyHardWare/Src/motor.c ****     Motor_FR_SetDuty(0);
 104:MyHardWare/Src/motor.c ****     Motor_FR_SetDirection(MOTOR_DIR_BRAKE);
 105:MyHardWare/Src/motor.c **** }
 106:MyHardWare/Src/motor.c **** 
 107:MyHardWare/Src/motor.c **** /**
 108:MyHardWare/Src/motor.c ****  * @brief 前左电机实例操作
 109:MyHardWare/Src/motor.c ****  */
 110:MyHardWare/Src/motor.c **** static void Motor_FL_Init(void) {
 111:MyHardWare/Src/motor.c ****     Motor_GPIO_Init(MOTOR_FL);
 112:MyHardWare/Src/motor.c ****     Motor_FL.initialized = 1;
 113:MyHardWare/Src/motor.c **** }
 114:MyHardWare/Src/motor.c **** static void Motor_FL_DeInit(void) {
 115:MyHardWare/Src/motor.c ****     Motor_FL.initialized = 0;
 116:MyHardWare/Src/motor.c **** }
 117:MyHardWare/Src/motor.c **** static void Motor_FL_SetSpeed(int16_t speed) {
 118:MyHardWare/Src/motor.c ****     Motor_Instance_SetSpeed(&Motor_FL, speed);
 119:MyHardWare/Src/motor.c **** }
 120:MyHardWare/Src/motor.c **** static void Motor_FL_SetDirection(Motor_Direction_e dir) {
 121:MyHardWare/Src/motor.c ****     switch (dir) {
 122:MyHardWare/Src/motor.c ****         case MOTOR_DIR_FORWARD:
 123:MyHardWare/Src/motor.c ****             GPIO_SetBits(MOTOR_FL_DIR_PORT, MOTOR_FL_DIR1_PIN);
 124:MyHardWare/Src/motor.c ****             GPIO_ResetBits(MOTOR_FL_DIR_PORT, MOTOR_FL_DIR2_PIN);
 125:MyHardWare/Src/motor.c ****             break;
 126:MyHardWare/Src/motor.c ****         case MOTOR_DIR_BACKWARD:
 127:MyHardWare/Src/motor.c ****             GPIO_ResetBits(MOTOR_FL_DIR_PORT, MOTOR_FL_DIR1_PIN);
 128:MyHardWare/Src/motor.c ****             GPIO_SetBits(MOTOR_FL_DIR_PORT, MOTOR_FL_DIR2_PIN);
 129:MyHardWare/Src/motor.c ****             break;
 130:MyHardWare/Src/motor.c ****         case MOTOR_DIR_STOP:
 131:MyHardWare/Src/motor.c ****             GPIO_ResetBits(MOTOR_FL_DIR_PORT, MOTOR_FL_DIR1_PIN | MOTOR_FL_DIR2_PIN);
 132:MyHardWare/Src/motor.c ****             break;
 133:MyHardWare/Src/motor.c ****         case MOTOR_DIR_BRAKE:
 134:MyHardWare/Src/motor.c ****             GPIO_SetBits(MOTOR_FL_DIR_PORT, MOTOR_FL_DIR1_PIN | MOTOR_FL_DIR2_PIN);
 135:MyHardWare/Src/motor.c ****             break;
 136:MyHardWare/Src/motor.c ****     }
 137:MyHardWare/Src/motor.c **** }
 138:MyHardWare/Src/motor.c **** static void Motor_FL_SetDuty(uint16_t duty) {
 139:MyHardWare/Src/motor.c ****     if (duty > MOTOR_PWM_MAX_DUTY) duty = MOTOR_PWM_MAX_DUTY;
 140:MyHardWare/Src/motor.c ****     TIM_SetCompare2(MOTOR_FL_PWM_TIM, duty);
ARM GAS  /tmp/ccZenB3o.s 			page 6


 141:MyHardWare/Src/motor.c **** }
 142:MyHardWare/Src/motor.c **** static void Motor_FL_Stop(void) {
 143:MyHardWare/Src/motor.c ****     Motor_FL_SetDuty(0);
 144:MyHardWare/Src/motor.c ****     Motor_FL_SetDirection(MOTOR_DIR_STOP);
 145:MyHardWare/Src/motor.c **** }
 146:MyHardWare/Src/motor.c **** static void Motor_FL_Brake(void) {
 147:MyHardWare/Src/motor.c ****     Motor_FL_SetDuty(0);
 148:MyHardWare/Src/motor.c ****     Motor_FL_SetDirection(MOTOR_DIR_BRAKE);
 149:MyHardWare/Src/motor.c **** }
 150:MyHardWare/Src/motor.c **** 
 151:MyHardWare/Src/motor.c **** /**
 152:MyHardWare/Src/motor.c ****  * @brief 后右电机实例操作
 153:MyHardWare/Src/motor.c ****  */
 154:MyHardWare/Src/motor.c **** static void Motor_BR_Init(void) {
 155:MyHardWare/Src/motor.c ****     Motor_GPIO_Init(MOTOR_BR);
 156:MyHardWare/Src/motor.c ****     Motor_BR.initialized = 1;
 157:MyHardWare/Src/motor.c **** }
 158:MyHardWare/Src/motor.c **** static void Motor_BR_DeInit(void) {
 159:MyHardWare/Src/motor.c ****     Motor_BR.initialized = 0;
 160:MyHardWare/Src/motor.c **** }
 161:MyHardWare/Src/motor.c **** static void Motor_BR_SetSpeed(int16_t speed) {
 162:MyHardWare/Src/motor.c ****     Motor_Instance_SetSpeed(&Motor_BR, speed);
 163:MyHardWare/Src/motor.c **** }
 164:MyHardWare/Src/motor.c **** static void Motor_BR_SetDirection(Motor_Direction_e dir) {
 165:MyHardWare/Src/motor.c ****     switch (dir) {
 166:MyHardWare/Src/motor.c ****         case MOTOR_DIR_FORWARD:
 167:MyHardWare/Src/motor.c ****             GPIO_SetBits(MOTOR_BR_DIR_PORT, MOTOR_BR_DIR1_PIN);
 168:MyHardWare/Src/motor.c ****             GPIO_ResetBits(MOTOR_BR_DIR_PORT, MOTOR_BR_DIR2_PIN);
 169:MyHardWare/Src/motor.c ****             break;
 170:MyHardWare/Src/motor.c ****         case MOTOR_DIR_BACKWARD:
 171:MyHardWare/Src/motor.c ****             GPIO_ResetBits(MOTOR_BR_DIR_PORT, MOTOR_BR_DIR1_PIN);
 172:MyHardWare/Src/motor.c ****             GPIO_SetBits(MOTOR_BR_DIR_PORT, MOTOR_BR_DIR2_PIN);
 173:MyHardWare/Src/motor.c ****             break;
 174:MyHardWare/Src/motor.c ****         case MOTOR_DIR_STOP:
 175:MyHardWare/Src/motor.c ****             GPIO_ResetBits(MOTOR_BR_DIR_PORT, MOTOR_BR_DIR1_PIN | MOTOR_BR_DIR2_PIN);
 176:MyHardWare/Src/motor.c ****             break;
 177:MyHardWare/Src/motor.c ****         case MOTOR_DIR_BRAKE:
 178:MyHardWare/Src/motor.c ****             GPIO_SetBits(MOTOR_BR_DIR_PORT, MOTOR_BR_DIR1_PIN | MOTOR_BR_DIR2_PIN);
 179:MyHardWare/Src/motor.c ****             break;
 180:MyHardWare/Src/motor.c ****     }
 181:MyHardWare/Src/motor.c **** }
 182:MyHardWare/Src/motor.c **** static void Motor_BR_SetDuty(uint16_t duty) {
 183:MyHardWare/Src/motor.c ****     if (duty > MOTOR_PWM_MAX_DUTY) duty = MOTOR_PWM_MAX_DUTY;
 184:MyHardWare/Src/motor.c ****     TIM_SetCompare1(MOTOR_BR_PWM_TIM, duty);
 185:MyHardWare/Src/motor.c **** }
 186:MyHardWare/Src/motor.c **** static void Motor_BR_Stop(void) {
 187:MyHardWare/Src/motor.c ****     Motor_BR_SetDuty(0);
 188:MyHardWare/Src/motor.c ****     Motor_BR_SetDirection(MOTOR_DIR_STOP);
 189:MyHardWare/Src/motor.c **** }
 190:MyHardWare/Src/motor.c **** static void Motor_BR_Brake(void) {
 191:MyHardWare/Src/motor.c ****     Motor_BR_SetDuty(0);
 192:MyHardWare/Src/motor.c ****     Motor_BR_SetDirection(MOTOR_DIR_BRAKE);
 193:MyHardWare/Src/motor.c **** }
 194:MyHardWare/Src/motor.c **** 
 195:MyHardWare/Src/motor.c **** /**
 196:MyHardWare/Src/motor.c ****  * @brief 后左电机实例操作
 197:MyHardWare/Src/motor.c ****  */
ARM GAS  /tmp/ccZenB3o.s 			page 7


 198:MyHardWare/Src/motor.c **** static void Motor_BL_Init(void) {
 199:MyHardWare/Src/motor.c ****     Motor_GPIO_Init(MOTOR_BL);
 200:MyHardWare/Src/motor.c ****     Motor_BL.initialized = 1;
 201:MyHardWare/Src/motor.c **** }
 202:MyHardWare/Src/motor.c **** static void Motor_BL_DeInit(void) {
 203:MyHardWare/Src/motor.c ****     Motor_BL.initialized = 0;
 204:MyHardWare/Src/motor.c **** }
 205:MyHardWare/Src/motor.c **** static void Motor_BL_SetSpeed(int16_t speed) {
 206:MyHardWare/Src/motor.c ****     Motor_Instance_SetSpeed(&Motor_BL, speed);
 207:MyHardWare/Src/motor.c **** }
 208:MyHardWare/Src/motor.c **** static void Motor_BL_SetDirection(Motor_Direction_e dir) {
 209:MyHardWare/Src/motor.c ****     switch (dir) {
 210:MyHardWare/Src/motor.c ****         case MOTOR_DIR_FORWARD:
 211:MyHardWare/Src/motor.c ****             GPIO_SetBits(MOTOR_BL_DIR_PORT, MOTOR_BL_DIR1_PIN);
 212:MyHardWare/Src/motor.c ****             GPIO_ResetBits(MOTOR_BL_DIR_PORT, MOTOR_BL_DIR2_PIN);
 213:MyHardWare/Src/motor.c ****             break;
 214:MyHardWare/Src/motor.c ****         case MOTOR_DIR_BACKWARD:
 215:MyHardWare/Src/motor.c ****             GPIO_ResetBits(MOTOR_BL_DIR_PORT, MOTOR_BL_DIR1_PIN);
 216:MyHardWare/Src/motor.c ****             GPIO_SetBits(MOTOR_BL_DIR_PORT, MOTOR_BL_DIR2_PIN);
 217:MyHardWare/Src/motor.c ****             break;
 218:MyHardWare/Src/motor.c ****         case MOTOR_DIR_STOP:
 219:MyHardWare/Src/motor.c ****             GPIO_ResetBits(MOTOR_BL_DIR_PORT, MOTOR_BL_DIR1_PIN | MOTOR_BL_DIR2_PIN);
 220:MyHardWare/Src/motor.c ****             break;
 221:MyHardWare/Src/motor.c ****         case MOTOR_DIR_BRAKE:
 222:MyHardWare/Src/motor.c ****             GPIO_SetBits(MOTOR_BL_DIR_PORT, MOTOR_BL_DIR1_PIN | MOTOR_BL_DIR2_PIN);
 223:MyHardWare/Src/motor.c ****             break;
 224:MyHardWare/Src/motor.c ****     }
 225:MyHardWare/Src/motor.c **** }
 226:MyHardWare/Src/motor.c **** static void Motor_BL_SetDuty(uint16_t duty) {
 227:MyHardWare/Src/motor.c ****     if (duty > MOTOR_PWM_MAX_DUTY) duty = MOTOR_PWM_MAX_DUTY;
 228:MyHardWare/Src/motor.c ****     TIM_SetCompare2(MOTOR_BL_PWM_TIM, duty);
 229:MyHardWare/Src/motor.c **** }
 230:MyHardWare/Src/motor.c **** static void Motor_BL_Stop(void) {
 231:MyHardWare/Src/motor.c ****     Motor_BL_SetDuty(0);
 232:MyHardWare/Src/motor.c ****     Motor_BL_SetDirection(MOTOR_DIR_STOP);
 233:MyHardWare/Src/motor.c **** }
 234:MyHardWare/Src/motor.c **** static void Motor_BL_Brake(void) {
 235:MyHardWare/Src/motor.c ****     Motor_BL_SetDuty(0);
 236:MyHardWare/Src/motor.c ****     Motor_BL_SetDirection(MOTOR_DIR_BRAKE);
 237:MyHardWare/Src/motor.c **** }
 238:MyHardWare/Src/motor.c **** 
 239:MyHardWare/Src/motor.c **** #else
 240:MyHardWare/Src/motor.c **** 
 241:MyHardWare/Src/motor.c **** /**
 242:MyHardWare/Src/motor.c ****  * @brief 双驱模式：右电机实例操作（使用前右硬件）
 243:MyHardWare/Src/motor.c ****  */
 244:MyHardWare/Src/motor.c **** static void Motor_Right_Init(void) {
 245:MyHardWare/Src/motor.c ****     Motor_GPIO_Init(MOTOR_RIGHT);
 246:MyHardWare/Src/motor.c ****     Motor_Right.initialized = 1;
 247:MyHardWare/Src/motor.c **** }
 248:MyHardWare/Src/motor.c **** static void Motor_Right_DeInit(void) {
 135              		.loc 1 248 38 is_stmt 1 view -0
 136              		.cfi_startproc
 137              		@ args = 0, pretend = 0, frame = 0
 138              		@ frame_needed = 0, uses_anonymous_args = 0
 139              		@ link register save eliminated.
 249:MyHardWare/Src/motor.c ****     Motor_Right.initialized = 0;
ARM GAS  /tmp/ccZenB3o.s 			page 8


 140              		.loc 1 249 5 view .LVU32
 141              		.loc 1 249 29 is_stmt 0 view .LVU33
 142 0000 014B     		ldr	r3, .L13
 143 0002 0022     		movs	r2, #0
 144 0004 9A72     		strb	r2, [r3, #10]
 250:MyHardWare/Src/motor.c **** }
 145              		.loc 1 250 1 view .LVU34
 146 0006 7047     		bx	lr
 147              	.L14:
 148              		.align	2
 149              	.L13:
 150 0008 00000000 		.word	Motor_Right
 151              		.cfi_endproc
 152              	.LFE125:
 154              		.section	.text.Motor_Right_SetSpeed,"ax",%progbits
 155              		.align	1
 156              		.syntax unified
 157              		.thumb
 158              		.thumb_func
 160              	Motor_Right_SetSpeed:
 161              	.LVL12:
 162              	.LFB126:
 251:MyHardWare/Src/motor.c **** static void Motor_Right_SetSpeed(int16_t speed) {
 163              		.loc 1 251 49 is_stmt 1 view -0
 164              		.cfi_startproc
 165              		@ args = 0, pretend = 0, frame = 0
 166              		@ frame_needed = 0, uses_anonymous_args = 0
 167              		.loc 1 251 49 is_stmt 0 view .LVU36
 168 0000 08B5     		push	{r3, lr}
 169              	.LCFI1:
 170              		.cfi_def_cfa_offset 8
 171              		.cfi_offset 3, -8
 172              		.cfi_offset 14, -4
 173 0002 0146     		mov	r1, r0
 252:MyHardWare/Src/motor.c ****     Motor_Instance_SetSpeed(&Motor_Right, speed);
 174              		.loc 1 252 5 is_stmt 1 view .LVU37
 175 0004 0148     		ldr	r0, .L17
 176              	.LVL13:
 177              		.loc 1 252 5 is_stmt 0 view .LVU38
 178 0006 FFF7FEFF 		bl	Motor_Instance_SetSpeed
 179              	.LVL14:
 253:MyHardWare/Src/motor.c **** }
 180              		.loc 1 253 1 view .LVU39
 181 000a 08BD     		pop	{r3, pc}
 182              	.L18:
 183              		.align	2
 184              	.L17:
 185 000c 00000000 		.word	Motor_Right
 186              		.cfi_endproc
 187              	.LFE126:
 189              		.section	.text.Motor_Left_DeInit,"ax",%progbits
 190              		.align	1
 191              		.syntax unified
 192              		.thumb
 193              		.thumb_func
 195              	Motor_Left_DeInit:
 196              	.LFB132:
ARM GAS  /tmp/ccZenB3o.s 			page 9


 254:MyHardWare/Src/motor.c **** static void Motor_Right_SetDirection(Motor_Direction_e dir) {
 255:MyHardWare/Src/motor.c ****     switch (dir) {
 256:MyHardWare/Src/motor.c ****         case MOTOR_DIR_FORWARD:
 257:MyHardWare/Src/motor.c ****             GPIO_SetBits(MOTOR_FR_DIR_PORT, MOTOR_FR_DIR1_PIN);
 258:MyHardWare/Src/motor.c ****             GPIO_ResetBits(MOTOR_FR_DIR_PORT, MOTOR_FR_DIR2_PIN);
 259:MyHardWare/Src/motor.c ****             break;
 260:MyHardWare/Src/motor.c ****         case MOTOR_DIR_BACKWARD:
 261:MyHardWare/Src/motor.c ****             GPIO_ResetBits(MOTOR_FR_DIR_PORT, MOTOR_FR_DIR1_PIN);
 262:MyHardWare/Src/motor.c ****             GPIO_SetBits(MOTOR_FR_DIR_PORT, MOTOR_FR_DIR2_PIN);
 263:MyHardWare/Src/motor.c ****             break;
 264:MyHardWare/Src/motor.c ****         case MOTOR_DIR_STOP:
 265:MyHardWare/Src/motor.c ****             GPIO_ResetBits(MOTOR_FR_DIR_PORT, MOTOR_FR_DIR1_PIN | MOTOR_FR_DIR2_PIN);
 266:MyHardWare/Src/motor.c ****             break;
 267:MyHardWare/Src/motor.c ****         case MOTOR_DIR_BRAKE:
 268:MyHardWare/Src/motor.c ****             GPIO_SetBits(MOTOR_FR_DIR_PORT, MOTOR_FR_DIR1_PIN | MOTOR_FR_DIR2_PIN);
 269:MyHardWare/Src/motor.c ****             break;
 270:MyHardWare/Src/motor.c ****     }
 271:MyHardWare/Src/motor.c **** }
 272:MyHardWare/Src/motor.c **** static void Motor_Right_SetDuty(uint16_t duty) {
 273:MyHardWare/Src/motor.c ****     if (duty > MOTOR_PWM_MAX_DUTY) duty = MOTOR_PWM_MAX_DUTY;
 274:MyHardWare/Src/motor.c ****     TIM_SetCompare1(MOTOR_FR_PWM_TIM, duty);
 275:MyHardWare/Src/motor.c **** }
 276:MyHardWare/Src/motor.c **** static void Motor_Right_Stop(void) {
 277:MyHardWare/Src/motor.c ****     Motor_Right_SetDuty(0);
 278:MyHardWare/Src/motor.c ****     Motor_Right_SetDirection(MOTOR_DIR_STOP);
 279:MyHardWare/Src/motor.c **** }
 280:MyHardWare/Src/motor.c **** static void Motor_Right_Brake(void) {
 281:MyHardWare/Src/motor.c ****     Motor_Right_SetDuty(0);
 282:MyHardWare/Src/motor.c ****     Motor_Right_SetDirection(MOTOR_DIR_BRAKE);
 283:MyHardWare/Src/motor.c **** }
 284:MyHardWare/Src/motor.c **** 
 285:MyHardWare/Src/motor.c **** /**
 286:MyHardWare/Src/motor.c ****  * @brief 双驱模式：左电机实例操作（使用前左硬件）
 287:MyHardWare/Src/motor.c ****  */
 288:MyHardWare/Src/motor.c **** static void Motor_Left_Init(void) {
 289:MyHardWare/Src/motor.c ****     Motor_GPIO_Init(MOTOR_LEFT);
 290:MyHardWare/Src/motor.c ****     Motor_Left.initialized = 1;
 291:MyHardWare/Src/motor.c **** }
 292:MyHardWare/Src/motor.c **** static void Motor_Left_DeInit(void) {
 197              		.loc 1 292 37 is_stmt 1 view -0
 198              		.cfi_startproc
 199              		@ args = 0, pretend = 0, frame = 0
 200              		@ frame_needed = 0, uses_anonymous_args = 0
 201              		@ link register save eliminated.
 293:MyHardWare/Src/motor.c ****     Motor_Left.initialized = 0;
 202              		.loc 1 293 5 view .LVU41
 203              		.loc 1 293 28 is_stmt 0 view .LVU42
 204 0000 014B     		ldr	r3, .L20
 205 0002 0022     		movs	r2, #0
 206 0004 9A72     		strb	r2, [r3, #10]
 294:MyHardWare/Src/motor.c **** }
 207              		.loc 1 294 1 view .LVU43
 208 0006 7047     		bx	lr
 209              	.L21:
 210              		.align	2
 211              	.L20:
 212 0008 00000000 		.word	Motor_Left
ARM GAS  /tmp/ccZenB3o.s 			page 10


 213              		.cfi_endproc
 214              	.LFE132:
 216              		.section	.text.Motor_Left_SetSpeed,"ax",%progbits
 217              		.align	1
 218              		.syntax unified
 219              		.thumb
 220              		.thumb_func
 222              	Motor_Left_SetSpeed:
 223              	.LVL15:
 224              	.LFB133:
 295:MyHardWare/Src/motor.c **** static void Motor_Left_SetSpeed(int16_t speed) {
 225              		.loc 1 295 48 is_stmt 1 view -0
 226              		.cfi_startproc
 227              		@ args = 0, pretend = 0, frame = 0
 228              		@ frame_needed = 0, uses_anonymous_args = 0
 229              		.loc 1 295 48 is_stmt 0 view .LVU45
 230 0000 08B5     		push	{r3, lr}
 231              	.LCFI2:
 232              		.cfi_def_cfa_offset 8
 233              		.cfi_offset 3, -8
 234              		.cfi_offset 14, -4
 235 0002 0146     		mov	r1, r0
 296:MyHardWare/Src/motor.c ****     Motor_Instance_SetSpeed(&Motor_Left, speed);
 236              		.loc 1 296 5 is_stmt 1 view .LVU46
 237 0004 0148     		ldr	r0, .L24
 238              	.LVL16:
 239              		.loc 1 296 5 is_stmt 0 view .LVU47
 240 0006 FFF7FEFF 		bl	Motor_Instance_SetSpeed
 241              	.LVL17:
 297:MyHardWare/Src/motor.c **** }
 242              		.loc 1 297 1 view .LVU48
 243 000a 08BD     		pop	{r3, pc}
 244              	.L25:
 245              		.align	2
 246              	.L24:
 247 000c 00000000 		.word	Motor_Left
 248              		.cfi_endproc
 249              	.LFE133:
 251              		.section	.text.Motor_Left_SetDuty,"ax",%progbits
 252              		.align	1
 253              		.syntax unified
 254              		.thumb
 255              		.thumb_func
 257              	Motor_Left_SetDuty:
 258              	.LVL18:
 259              	.LFB135:
 298:MyHardWare/Src/motor.c **** static void Motor_Left_SetDirection(Motor_Direction_e dir) {
 299:MyHardWare/Src/motor.c ****     switch (dir) {
 300:MyHardWare/Src/motor.c ****         case MOTOR_DIR_FORWARD:
 301:MyHardWare/Src/motor.c ****             GPIO_SetBits(MOTOR_FL_DIR_PORT, MOTOR_FL_DIR1_PIN);
 302:MyHardWare/Src/motor.c ****             GPIO_ResetBits(MOTOR_FL_DIR_PORT, MOTOR_FL_DIR2_PIN);
 303:MyHardWare/Src/motor.c ****             break;
 304:MyHardWare/Src/motor.c ****         case MOTOR_DIR_BACKWARD:
 305:MyHardWare/Src/motor.c ****             GPIO_ResetBits(MOTOR_FL_DIR_PORT, MOTOR_FL_DIR1_PIN);
 306:MyHardWare/Src/motor.c ****             GPIO_SetBits(MOTOR_FL_DIR_PORT, MOTOR_FL_DIR2_PIN);
 307:MyHardWare/Src/motor.c ****             break;
 308:MyHardWare/Src/motor.c ****         case MOTOR_DIR_STOP:
ARM GAS  /tmp/ccZenB3o.s 			page 11


 309:MyHardWare/Src/motor.c ****             GPIO_ResetBits(MOTOR_FL_DIR_PORT, MOTOR_FL_DIR1_PIN | MOTOR_FL_DIR2_PIN);
 310:MyHardWare/Src/motor.c ****             break;
 311:MyHardWare/Src/motor.c ****         case MOTOR_DIR_BRAKE:
 312:MyHardWare/Src/motor.c ****             GPIO_SetBits(MOTOR_FL_DIR_PORT, MOTOR_FL_DIR1_PIN | MOTOR_FL_DIR2_PIN);
 313:MyHardWare/Src/motor.c ****             break;
 314:MyHardWare/Src/motor.c ****     }
 315:MyHardWare/Src/motor.c **** }
 316:MyHardWare/Src/motor.c **** static void Motor_Left_SetDuty(uint16_t duty) {
 260              		.loc 1 316 47 is_stmt 1 view -0
 261              		.cfi_startproc
 262              		@ args = 0, pretend = 0, frame = 0
 263              		@ frame_needed = 0, uses_anonymous_args = 0
 264              		.loc 1 316 47 is_stmt 0 view .LVU50
 265 0000 08B5     		push	{r3, lr}
 266              	.LCFI3:
 267              		.cfi_def_cfa_offset 8
 268              		.cfi_offset 3, -8
 269              		.cfi_offset 14, -4
 270 0002 0146     		mov	r1, r0
 317:MyHardWare/Src/motor.c ****     if (duty > MOTOR_PWM_MAX_DUTY) duty = MOTOR_PWM_MAX_DUTY;
 271              		.loc 1 317 5 is_stmt 1 view .LVU51
 272              		.loc 1 317 8 is_stmt 0 view .LVU52
 273 0004 42F2CF03 		movw	r3, #8399
 274 0008 9842     		cmp	r0, r3
 275 000a 00D9     		bls	.L27
 276              		.loc 1 317 41 discriminator 1 view .LVU53
 277 000c 1946     		mov	r1, r3
 278              	.L27:
 279              	.LVL19:
 318:MyHardWare/Src/motor.c ****     TIM_SetCompare2(MOTOR_FL_PWM_TIM, duty);
 280              		.loc 1 318 5 is_stmt 1 view .LVU54
 281 000e 0248     		ldr	r0, .L30
 282 0010 FFF7FEFF 		bl	TIM_SetCompare2
 283              	.LVL20:
 319:MyHardWare/Src/motor.c **** }
 284              		.loc 1 319 1 is_stmt 0 view .LVU55
 285 0014 08BD     		pop	{r3, pc}
 286              	.L31:
 287 0016 00BF     		.align	2
 288              	.L30:
 289 0018 00000140 		.word	1073807360
 290              		.cfi_endproc
 291              	.LFE135:
 293              		.section	.text.Motor_Left_SetDirection,"ax",%progbits
 294              		.align	1
 295              		.syntax unified
 296              		.thumb
 297              		.thumb_func
 299              	Motor_Left_SetDirection:
 300              	.LVL21:
 301              	.LFB134:
 298:MyHardWare/Src/motor.c ****     switch (dir) {
 302              		.loc 1 298 60 is_stmt 1 view -0
 303              		.cfi_startproc
 304              		@ args = 0, pretend = 0, frame = 0
 305              		@ frame_needed = 0, uses_anonymous_args = 0
 298:MyHardWare/Src/motor.c ****     switch (dir) {
ARM GAS  /tmp/ccZenB3o.s 			page 12


 306              		.loc 1 298 60 is_stmt 0 view .LVU57
 307 0000 10B5     		push	{r4, lr}
 308              	.LCFI4:
 309              		.cfi_def_cfa_offset 8
 310              		.cfi_offset 4, -8
 311              		.cfi_offset 14, -4
 299:MyHardWare/Src/motor.c ****         case MOTOR_DIR_FORWARD:
 312              		.loc 1 299 5 is_stmt 1 view .LVU58
 313 0002 0328     		cmp	r0, #3
 314 0004 0ED8     		bhi	.L32
 315 0006 DFE800F0 		tbb	[pc, r0]
 316              	.L35:
 317 000a 1A       		.byte	(.L38-.L35)/2
 318 000b 02       		.byte	(.L37-.L35)/2
 319 000c 0E       		.byte	(.L36-.L35)/2
 320 000d 20       		.byte	(.L34-.L35)/2
 321              		.p2align 1
 322              	.L37:
 301:MyHardWare/Src/motor.c ****             GPIO_ResetBits(MOTOR_FL_DIR_PORT, MOTOR_FL_DIR2_PIN);
 323              		.loc 1 301 13 view .LVU59
 324 000e 124C     		ldr	r4, .L41
 325 0010 4FF48051 		mov	r1, #4096
 326 0014 2046     		mov	r0, r4
 327              	.LVL22:
 301:MyHardWare/Src/motor.c ****             GPIO_ResetBits(MOTOR_FL_DIR_PORT, MOTOR_FL_DIR2_PIN);
 328              		.loc 1 301 13 is_stmt 0 view .LVU60
 329 0016 FFF7FEFF 		bl	GPIO_SetBits
 330              	.LVL23:
 302:MyHardWare/Src/motor.c ****             break;
 331              		.loc 1 302 13 is_stmt 1 view .LVU61
 332 001a 4FF40051 		mov	r1, #8192
 333 001e 2046     		mov	r0, r4
 334 0020 FFF7FEFF 		bl	GPIO_ResetBits
 335              	.LVL24:
 303:MyHardWare/Src/motor.c ****         case MOTOR_DIR_BACKWARD:
 336              		.loc 1 303 13 view .LVU62
 337              	.L32:
 315:MyHardWare/Src/motor.c **** static void Motor_Left_SetDuty(uint16_t duty) {
 338              		.loc 1 315 1 is_stmt 0 view .LVU63
 339 0024 10BD     		pop	{r4, pc}
 340              	.LVL25:
 341              	.L36:
 305:MyHardWare/Src/motor.c ****             GPIO_SetBits(MOTOR_FL_DIR_PORT, MOTOR_FL_DIR2_PIN);
 342              		.loc 1 305 13 is_stmt 1 view .LVU64
 343 0026 0C4C     		ldr	r4, .L41
 344 0028 4FF48051 		mov	r1, #4096
 345 002c 2046     		mov	r0, r4
 346              	.LVL26:
 305:MyHardWare/Src/motor.c ****             GPIO_SetBits(MOTOR_FL_DIR_PORT, MOTOR_FL_DIR2_PIN);
 347              		.loc 1 305 13 is_stmt 0 view .LVU65
 348 002e FFF7FEFF 		bl	GPIO_ResetBits
 349              	.LVL27:
 306:MyHardWare/Src/motor.c ****             break;
 350              		.loc 1 306 13 is_stmt 1 view .LVU66
 351 0032 4FF40051 		mov	r1, #8192
 352 0036 2046     		mov	r0, r4
 353 0038 FFF7FEFF 		bl	GPIO_SetBits
ARM GAS  /tmp/ccZenB3o.s 			page 13


 354              	.LVL28:
 307:MyHardWare/Src/motor.c ****         case MOTOR_DIR_STOP:
 355              		.loc 1 307 13 view .LVU67
 356 003c F2E7     		b	.L32
 357              	.LVL29:
 358              	.L38:
 309:MyHardWare/Src/motor.c ****             break;
 359              		.loc 1 309 13 view .LVU68
 360 003e 4FF44051 		mov	r1, #12288
 361 0042 0548     		ldr	r0, .L41
 362              	.LVL30:
 309:MyHardWare/Src/motor.c ****             break;
 363              		.loc 1 309 13 is_stmt 0 view .LVU69
 364 0044 FFF7FEFF 		bl	GPIO_ResetBits
 365              	.LVL31:
 310:MyHardWare/Src/motor.c ****         case MOTOR_DIR_BRAKE:
 366              		.loc 1 310 13 is_stmt 1 view .LVU70
 367 0048 ECE7     		b	.L32
 368              	.LVL32:
 369              	.L34:
 312:MyHardWare/Src/motor.c ****             break;
 370              		.loc 1 312 13 view .LVU71
 371 004a 4FF44051 		mov	r1, #12288
 372 004e 0248     		ldr	r0, .L41
 373              	.LVL33:
 312:MyHardWare/Src/motor.c ****             break;
 374              		.loc 1 312 13 is_stmt 0 view .LVU72
 375 0050 FFF7FEFF 		bl	GPIO_SetBits
 376              	.LVL34:
 313:MyHardWare/Src/motor.c ****     }
 377              		.loc 1 313 13 is_stmt 1 view .LVU73
 315:MyHardWare/Src/motor.c **** static void Motor_Left_SetDuty(uint16_t duty) {
 378              		.loc 1 315 1 is_stmt 0 view .LVU74
 379 0054 E6E7     		b	.L32
 380              	.L42:
 381 0056 00BF     		.align	2
 382              	.L41:
 383 0058 00100240 		.word	1073876992
 384              		.cfi_endproc
 385              	.LFE134:
 387              		.section	.text.Motor_Left_Brake,"ax",%progbits
 388              		.align	1
 389              		.syntax unified
 390              		.thumb
 391              		.thumb_func
 393              	Motor_Left_Brake:
 394              	.LFB137:
 320:MyHardWare/Src/motor.c **** static void Motor_Left_Stop(void) {
 321:MyHardWare/Src/motor.c ****     Motor_Left_SetDuty(0);
 322:MyHardWare/Src/motor.c ****     Motor_Left_SetDirection(MOTOR_DIR_STOP);
 323:MyHardWare/Src/motor.c **** }
 324:MyHardWare/Src/motor.c **** static void Motor_Left_Brake(void) {
 395              		.loc 1 324 36 is_stmt 1 view -0
 396              		.cfi_startproc
 397              		@ args = 0, pretend = 0, frame = 0
 398              		@ frame_needed = 0, uses_anonymous_args = 0
 399 0000 08B5     		push	{r3, lr}
ARM GAS  /tmp/ccZenB3o.s 			page 14


 400              	.LCFI5:
 401              		.cfi_def_cfa_offset 8
 402              		.cfi_offset 3, -8
 403              		.cfi_offset 14, -4
 325:MyHardWare/Src/motor.c ****     Motor_Left_SetDuty(0);
 404              		.loc 1 325 5 view .LVU76
 405 0002 0020     		movs	r0, #0
 406 0004 FFF7FEFF 		bl	Motor_Left_SetDuty
 407              	.LVL35:
 326:MyHardWare/Src/motor.c ****     Motor_Left_SetDirection(MOTOR_DIR_BRAKE);
 408              		.loc 1 326 5 view .LVU77
 409 0008 0320     		movs	r0, #3
 410 000a FFF7FEFF 		bl	Motor_Left_SetDirection
 411              	.LVL36:
 327:MyHardWare/Src/motor.c **** }
 412              		.loc 1 327 1 is_stmt 0 view .LVU78
 413 000e 08BD     		pop	{r3, pc}
 414              		.cfi_endproc
 415              	.LFE137:
 417              		.section	.text.Motor_Left_Stop,"ax",%progbits
 418              		.align	1
 419              		.syntax unified
 420              		.thumb
 421              		.thumb_func
 423              	Motor_Left_Stop:
 424              	.LFB136:
 320:MyHardWare/Src/motor.c ****     Motor_Left_SetDuty(0);
 425              		.loc 1 320 35 is_stmt 1 view -0
 426              		.cfi_startproc
 427              		@ args = 0, pretend = 0, frame = 0
 428              		@ frame_needed = 0, uses_anonymous_args = 0
 429 0000 08B5     		push	{r3, lr}
 430              	.LCFI6:
 431              		.cfi_def_cfa_offset 8
 432              		.cfi_offset 3, -8
 433              		.cfi_offset 14, -4
 321:MyHardWare/Src/motor.c ****     Motor_Left_SetDirection(MOTOR_DIR_STOP);
 434              		.loc 1 321 5 view .LVU80
 435 0002 0020     		movs	r0, #0
 436 0004 FFF7FEFF 		bl	Motor_Left_SetDuty
 437              	.LVL37:
 322:MyHardWare/Src/motor.c **** }
 438              		.loc 1 322 5 view .LVU81
 439 0008 0020     		movs	r0, #0
 440 000a FFF7FEFF 		bl	Motor_Left_SetDirection
 441              	.LVL38:
 323:MyHardWare/Src/motor.c **** static void Motor_Left_Brake(void) {
 442              		.loc 1 323 1 is_stmt 0 view .LVU82
 443 000e 08BD     		pop	{r3, pc}
 444              		.cfi_endproc
 445              	.LFE136:
 447              		.section	.text.Motor_Right_SetDirection,"ax",%progbits
 448              		.align	1
 449              		.syntax unified
 450              		.thumb
 451              		.thumb_func
 453              	Motor_Right_SetDirection:
ARM GAS  /tmp/ccZenB3o.s 			page 15


 454              	.LVL39:
 455              	.LFB127:
 254:MyHardWare/Src/motor.c ****     switch (dir) {
 456              		.loc 1 254 61 is_stmt 1 view -0
 457              		.cfi_startproc
 458              		@ args = 0, pretend = 0, frame = 0
 459              		@ frame_needed = 0, uses_anonymous_args = 0
 254:MyHardWare/Src/motor.c ****     switch (dir) {
 460              		.loc 1 254 61 is_stmt 0 view .LVU84
 461 0000 10B5     		push	{r4, lr}
 462              	.LCFI7:
 463              		.cfi_def_cfa_offset 8
 464              		.cfi_offset 4, -8
 465              		.cfi_offset 14, -4
 255:MyHardWare/Src/motor.c ****         case MOTOR_DIR_FORWARD:
 466              		.loc 1 255 5 is_stmt 1 view .LVU85
 467 0002 0328     		cmp	r0, #3
 468 0004 0ED8     		bhi	.L47
 469 0006 DFE800F0 		tbb	[pc, r0]
 470              	.L50:
 471 000a 1A       		.byte	(.L53-.L50)/2
 472 000b 02       		.byte	(.L52-.L50)/2
 473 000c 0E       		.byte	(.L51-.L50)/2
 474 000d 20       		.byte	(.L49-.L50)/2
 475              		.p2align 1
 476              	.L52:
 257:MyHardWare/Src/motor.c ****             GPIO_ResetBits(MOTOR_FR_DIR_PORT, MOTOR_FR_DIR2_PIN);
 477              		.loc 1 257 13 view .LVU86
 478 000e 124C     		ldr	r4, .L56
 479 0010 4FF48061 		mov	r1, #1024
 480 0014 2046     		mov	r0, r4
 481              	.LVL40:
 257:MyHardWare/Src/motor.c ****             GPIO_ResetBits(MOTOR_FR_DIR_PORT, MOTOR_FR_DIR2_PIN);
 482              		.loc 1 257 13 is_stmt 0 view .LVU87
 483 0016 FFF7FEFF 		bl	GPIO_SetBits
 484              	.LVL41:
 258:MyHardWare/Src/motor.c ****             break;
 485              		.loc 1 258 13 is_stmt 1 view .LVU88
 486 001a 4FF40061 		mov	r1, #2048
 487 001e 2046     		mov	r0, r4
 488 0020 FFF7FEFF 		bl	GPIO_ResetBits
 489              	.LVL42:
 259:MyHardWare/Src/motor.c ****         case MOTOR_DIR_BACKWARD:
 490              		.loc 1 259 13 view .LVU89
 491              	.L47:
 271:MyHardWare/Src/motor.c **** static void Motor_Right_SetDuty(uint16_t duty) {
 492              		.loc 1 271 1 is_stmt 0 view .LVU90
 493 0024 10BD     		pop	{r4, pc}
 494              	.LVL43:
 495              	.L51:
 261:MyHardWare/Src/motor.c ****             GPIO_SetBits(MOTOR_FR_DIR_PORT, MOTOR_FR_DIR2_PIN);
 496              		.loc 1 261 13 is_stmt 1 view .LVU91
 497 0026 0C4C     		ldr	r4, .L56
 498 0028 4FF48061 		mov	r1, #1024
 499 002c 2046     		mov	r0, r4
 500              	.LVL44:
 261:MyHardWare/Src/motor.c ****             GPIO_SetBits(MOTOR_FR_DIR_PORT, MOTOR_FR_DIR2_PIN);
ARM GAS  /tmp/ccZenB3o.s 			page 16


 501              		.loc 1 261 13 is_stmt 0 view .LVU92
 502 002e FFF7FEFF 		bl	GPIO_ResetBits
 503              	.LVL45:
 262:MyHardWare/Src/motor.c ****             break;
 504              		.loc 1 262 13 is_stmt 1 view .LVU93
 505 0032 4FF40061 		mov	r1, #2048
 506 0036 2046     		mov	r0, r4
 507 0038 FFF7FEFF 		bl	GPIO_SetBits
 508              	.LVL46:
 263:MyHardWare/Src/motor.c ****         case MOTOR_DIR_STOP:
 509              		.loc 1 263 13 view .LVU94
 510 003c F2E7     		b	.L47
 511              	.LVL47:
 512              	.L53:
 265:MyHardWare/Src/motor.c ****             break;
 513              		.loc 1 265 13 view .LVU95
 514 003e 4FF44061 		mov	r1, #3072
 515 0042 0548     		ldr	r0, .L56
 516              	.LVL48:
 265:MyHardWare/Src/motor.c ****             break;
 517              		.loc 1 265 13 is_stmt 0 view .LVU96
 518 0044 FFF7FEFF 		bl	GPIO_ResetBits
 519              	.LVL49:
 266:MyHardWare/Src/motor.c ****         case MOTOR_DIR_BRAKE:
 520              		.loc 1 266 13 is_stmt 1 view .LVU97
 521 0048 ECE7     		b	.L47
 522              	.LVL50:
 523              	.L49:
 268:MyHardWare/Src/motor.c ****             break;
 524              		.loc 1 268 13 view .LVU98
 525 004a 4FF44061 		mov	r1, #3072
 526 004e 0248     		ldr	r0, .L56
 527              	.LVL51:
 268:MyHardWare/Src/motor.c ****             break;
 528              		.loc 1 268 13 is_stmt 0 view .LVU99
 529 0050 FFF7FEFF 		bl	GPIO_SetBits
 530              	.LVL52:
 269:MyHardWare/Src/motor.c ****     }
 531              		.loc 1 269 13 is_stmt 1 view .LVU100
 271:MyHardWare/Src/motor.c **** static void Motor_Right_SetDuty(uint16_t duty) {
 532              		.loc 1 271 1 is_stmt 0 view .LVU101
 533 0054 E6E7     		b	.L47
 534              	.L57:
 535 0056 00BF     		.align	2
 536              	.L56:
 537 0058 00100240 		.word	1073876992
 538              		.cfi_endproc
 539              	.LFE127:
 541              		.section	.text.Motor_GPIO_Init,"ax",%progbits
 542              		.align	1
 543              		.syntax unified
 544              		.thumb
 545              		.thumb_func
 547              	Motor_GPIO_Init:
 548              	.LVL53:
 549              	.LFB138:
 328:MyHardWare/Src/motor.c **** 
ARM GAS  /tmp/ccZenB3o.s 			page 17


 329:MyHardWare/Src/motor.c **** #endif
 330:MyHardWare/Src/motor.c **** 
 331:MyHardWare/Src/motor.c **** /* ==================== 私有函数：硬件初始化 ==================== */
 332:MyHardWare/Src/motor.c **** 
 333:MyHardWare/Src/motor.c **** /**
 334:MyHardWare/Src/motor.c ****  * @brief 初始化单个电机的GPIO引脚
 335:MyHardWare/Src/motor.c ****  * @param motor 电机ID
 336:MyHardWare/Src/motor.c ****  */
 337:MyHardWare/Src/motor.c **** static void Motor_GPIO_Init(Motor_Id_e motor)
 338:MyHardWare/Src/motor.c **** {
 550              		.loc 1 338 1 is_stmt 1 view -0
 551              		.cfi_startproc
 552              		@ args = 0, pretend = 0, frame = 8
 553              		@ frame_needed = 0, uses_anonymous_args = 0
 554              		.loc 1 338 1 is_stmt 0 view .LVU103
 555 0000 2DE9F041 		push	{r4, r5, r6, r7, r8, lr}
 556              	.LCFI8:
 557              		.cfi_def_cfa_offset 24
 558              		.cfi_offset 4, -24
 559              		.cfi_offset 5, -20
 560              		.cfi_offset 6, -16
 561              		.cfi_offset 7, -12
 562              		.cfi_offset 8, -8
 563              		.cfi_offset 14, -4
 564 0004 82B0     		sub	sp, sp, #8
 565              	.LCFI9:
 566              		.cfi_def_cfa_offset 32
 339:MyHardWare/Src/motor.c ****     GPIO_InitTypeDef GPIO_InitStructure;
 567              		.loc 1 339 5 is_stmt 1 view .LVU104
 340:MyHardWare/Src/motor.c **** 
 341:MyHardWare/Src/motor.c **** #ifdef QUAD_MOTOR_DRIVE
 342:MyHardWare/Src/motor.c ****     // 四驱模式：使用所有电机硬件
 343:MyHardWare/Src/motor.c ****     switch (motor) {
 344:MyHardWare/Src/motor.c ****         case MOTOR_FR:
 345:MyHardWare/Src/motor.c ****             RCC_AHB1PeriphClockCmd(MOTOR_FR_PWM_CLK, ENABLE);
 346:MyHardWare/Src/motor.c ****             RCC_AHB1PeriphClockCmd(MOTOR_FR_DIR_CLK, ENABLE);
 347:MyHardWare/Src/motor.c ****             GPIO_InitStructure.GPIO_Pin = MOTOR_FR_PWM_PIN;
 348:MyHardWare/Src/motor.c ****             GPIO_InitStructure.GPIO_Mode = GPIO_Mode_AF;
 349:MyHardWare/Src/motor.c ****             GPIO_InitStructure.GPIO_Speed = GPIO_Speed_100MHz;
 350:MyHardWare/Src/motor.c ****             GPIO_InitStructure.GPIO_OType = GPIO_OType_PP;
 351:MyHardWare/Src/motor.c ****             GPIO_InitStructure.GPIO_PuPd = GPIO_PuPd_UP;
 352:MyHardWare/Src/motor.c ****             GPIO_Init(MOTOR_FR_PWM_PORT, &GPIO_InitStructure);
 353:MyHardWare/Src/motor.c ****             GPIO_PinAFConfig(MOTOR_FR_PWM_PORT, GPIO_PinSource9, MOTOR_FR_PWM_AF);
 354:MyHardWare/Src/motor.c ****             GPIO_InitStructure.GPIO_Pin = MOTOR_FR_DIR1_PIN | MOTOR_FR_DIR2_PIN;
 355:MyHardWare/Src/motor.c ****             GPIO_InitStructure.GPIO_Mode = GPIO_Mode_OUT;
 356:MyHardWare/Src/motor.c ****             GPIO_InitStructure.GPIO_Speed = GPIO_Speed_50MHz;
 357:MyHardWare/Src/motor.c ****             GPIO_InitStructure.GPIO_OType = GPIO_OType_PP;
 358:MyHardWare/Src/motor.c ****             GPIO_InitStructure.GPIO_PuPd = GPIO_PuPd_NOPULL;
 359:MyHardWare/Src/motor.c ****             GPIO_Init(MOTOR_FR_DIR_PORT, &GPIO_InitStructure);
 360:MyHardWare/Src/motor.c ****             GPIO_ResetBits(MOTOR_FR_DIR_PORT, MOTOR_FR_DIR1_PIN | MOTOR_FR_DIR2_PIN);
 361:MyHardWare/Src/motor.c ****             break;
 362:MyHardWare/Src/motor.c **** 
 363:MyHardWare/Src/motor.c ****         case MOTOR_FL:
 364:MyHardWare/Src/motor.c ****             RCC_AHB1PeriphClockCmd(MOTOR_FL_PWM_CLK, ENABLE);
 365:MyHardWare/Src/motor.c ****             RCC_AHB1PeriphClockCmd(MOTOR_FL_DIR_CLK, ENABLE);
 366:MyHardWare/Src/motor.c ****             GPIO_InitStructure.GPIO_Pin = MOTOR_FL_PWM_PIN;
 367:MyHardWare/Src/motor.c ****             GPIO_InitStructure.GPIO_Mode = GPIO_Mode_AF;
ARM GAS  /tmp/ccZenB3o.s 			page 18


 368:MyHardWare/Src/motor.c ****             GPIO_InitStructure.GPIO_Speed = GPIO_Speed_100MHz;
 369:MyHardWare/Src/motor.c ****             GPIO_InitStructure.GPIO_OType = GPIO_OType_PP;
 370:MyHardWare/Src/motor.c ****             GPIO_InitStructure.GPIO_PuPd = GPIO_PuPd_UP;
 371:MyHardWare/Src/motor.c ****             GPIO_Init(MOTOR_FL_PWM_PORT, &GPIO_InitStructure);
 372:MyHardWare/Src/motor.c ****             GPIO_PinAFConfig(MOTOR_FL_PWM_PORT, GPIO_PinSource11, MOTOR_FL_PWM_AF);
 373:MyHardWare/Src/motor.c ****             GPIO_InitStructure.GPIO_Pin = MOTOR_FL_DIR1_PIN | MOTOR_FL_DIR2_PIN;
 374:MyHardWare/Src/motor.c ****             GPIO_InitStructure.GPIO_Mode = GPIO_Mode_OUT;
 375:MyHardWare/Src/motor.c ****             GPIO_InitStructure.GPIO_Speed = GPIO_Speed_50MHz;
 376:MyHardWare/Src/motor.c ****             GPIO_InitStructure.GPIO_OType = GPIO_OType_PP;
 377:MyHardWare/Src/motor.c ****             GPIO_InitStructure.GPIO_PuPd = GPIO_PuPd_NOPULL;
 378:MyHardWare/Src/motor.c ****             GPIO_Init(MOTOR_FL_DIR_PORT, &GPIO_InitStructure);
 379:MyHardWare/Src/motor.c ****             GPIO_ResetBits(MOTOR_FL_DIR_PORT, MOTOR_FL_DIR1_PIN | MOTOR_FL_DIR2_PIN);
 380:MyHardWare/Src/motor.c ****             break;
 381:MyHardWare/Src/motor.c **** 
 382:MyHardWare/Src/motor.c ****         case MOTOR_BR:
 383:MyHardWare/Src/motor.c ****             RCC_AHB1PeriphClockCmd(MOTOR_BR_PWM_CLK, ENABLE);
 384:MyHardWare/Src/motor.c ****             RCC_AHB1PeriphClockCmd(MOTOR_BR_DIR_CLK, ENABLE);
 385:MyHardWare/Src/motor.c ****             GPIO_InitStructure.GPIO_Pin = MOTOR_BR_PWM_PIN;
 386:MyHardWare/Src/motor.c ****             GPIO_InitStructure.GPIO_Mode = GPIO_Mode_AF;
 387:MyHardWare/Src/motor.c ****             GPIO_InitStructure.GPIO_Speed = GPIO_Speed_100MHz;
 388:MyHardWare/Src/motor.c ****             GPIO_InitStructure.GPIO_OType = GPIO_OType_PP;
 389:MyHardWare/Src/motor.c ****             GPIO_InitStructure.GPIO_PuPd = GPIO_PuPd_UP;
 390:MyHardWare/Src/motor.c ****             GPIO_Init(MOTOR_BR_PWM_PORT, &GPIO_InitStructure);
 391:MyHardWare/Src/motor.c ****             GPIO_PinAFConfig(MOTOR_BR_PWM_PORT, GPIO_PinSource6, MOTOR_BR_PWM_AF);
 392:MyHardWare/Src/motor.c ****             GPIO_InitStructure.GPIO_Pin = MOTOR_BR_DIR1_PIN | MOTOR_BR_DIR2_PIN;
 393:MyHardWare/Src/motor.c ****             GPIO_InitStructure.GPIO_Mode = GPIO_Mode_OUT;
 394:MyHardWare/Src/motor.c ****             GPIO_InitStructure.GPIO_Speed = GPIO_Speed_50MHz;
 395:MyHardWare/Src/motor.c ****             GPIO_InitStructure.GPIO_OType = GPIO_OType_PP;
 396:MyHardWare/Src/motor.c ****             GPIO_InitStructure.GPIO_PuPd = GPIO_PuPd_NOPULL;
 397:MyHardWare/Src/motor.c ****             GPIO_Init(MOTOR_BR_DIR_PORT, &GPIO_InitStructure);
 398:MyHardWare/Src/motor.c ****             GPIO_ResetBits(MOTOR_BR_DIR_PORT, MOTOR_BR_DIR1_PIN | MOTOR_BR_DIR2_PIN);
 399:MyHardWare/Src/motor.c ****             break;
 400:MyHardWare/Src/motor.c **** 
 401:MyHardWare/Src/motor.c ****         case MOTOR_BL:
 402:MyHardWare/Src/motor.c ****             RCC_AHB1PeriphClockCmd(MOTOR_BL_PWM_CLK, ENABLE);
 403:MyHardWare/Src/motor.c ****             RCC_AHB1PeriphClockCmd(MOTOR_BL_DIR_CLK, ENABLE);
 404:MyHardWare/Src/motor.c ****             GPIO_InitStructure.GPIO_Pin = MOTOR_BL_PWM_PIN;
 405:MyHardWare/Src/motor.c ****             GPIO_InitStructure.GPIO_Mode = GPIO_Mode_AF;
 406:MyHardWare/Src/motor.c ****             GPIO_InitStructure.GPIO_Speed = GPIO_Speed_100MHz;
 407:MyHardWare/Src/motor.c ****             GPIO_InitStructure.GPIO_OType = GPIO_OType_PP;
 408:MyHardWare/Src/motor.c ****             GPIO_InitStructure.GPIO_PuPd = GPIO_PuPd_UP;
 409:MyHardWare/Src/motor.c ****             GPIO_Init(MOTOR_BL_PWM_PORT, &GPIO_InitStructure);
 410:MyHardWare/Src/motor.c ****             GPIO_PinAFConfig(MOTOR_BL_PWM_PORT, GPIO_PinSource7, MOTOR_BL_PWM_AF);
 411:MyHardWare/Src/motor.c ****             GPIO_InitStructure.GPIO_Pin = MOTOR_BL_DIR1_PIN | MOTOR_BL_DIR2_PIN;
 412:MyHardWare/Src/motor.c ****             GPIO_InitStructure.GPIO_Mode = GPIO_Mode_OUT;
 413:MyHardWare/Src/motor.c ****             GPIO_InitStructure.GPIO_Speed = GPIO_Speed_50MHz;
 414:MyHardWare/Src/motor.c ****             GPIO_InitStructure.GPIO_OType = GPIO_OType_PP;
 415:MyHardWare/Src/motor.c ****             GPIO_InitStructure.GPIO_PuPd = GPIO_PuPd_NOPULL;
 416:MyHardWare/Src/motor.c ****             GPIO_Init(MOTOR_BL_DIR_PORT, &GPIO_InitStructure);
 417:MyHardWare/Src/motor.c ****             GPIO_ResetBits(MOTOR_BL_DIR_PORT, MOTOR_BL_DIR1_PIN | MOTOR_BL_DIR2_PIN);
 418:MyHardWare/Src/motor.c ****             break;
 419:MyHardWare/Src/motor.c ****     }
 420:MyHardWare/Src/motor.c **** #else
 421:MyHardWare/Src/motor.c ****     // 双驱模式：仅使用前轮硬件
 422:MyHardWare/Src/motor.c ****     if (motor == MOTOR_RIGHT) {
 568              		.loc 1 422 5 view .LVU105
 569              		.loc 1 422 8 is_stmt 0 view .LVU106
ARM GAS  /tmp/ccZenB3o.s 			page 19


 570 0006 20B1     		cbz	r0, .L62
 423:MyHardWare/Src/motor.c ****         RCC_AHB1PeriphClockCmd(MOTOR_FR_PWM_CLK, ENABLE);
 424:MyHardWare/Src/motor.c ****         RCC_AHB1PeriphClockCmd(MOTOR_FR_DIR_CLK, ENABLE);
 425:MyHardWare/Src/motor.c ****         GPIO_InitStructure.GPIO_Pin = MOTOR_FR_PWM_PIN;
 426:MyHardWare/Src/motor.c ****         GPIO_InitStructure.GPIO_Mode = GPIO_Mode_AF;
 427:MyHardWare/Src/motor.c ****         GPIO_InitStructure.GPIO_Speed = GPIO_Speed_100MHz;
 428:MyHardWare/Src/motor.c ****         GPIO_InitStructure.GPIO_OType = GPIO_OType_PP;
 429:MyHardWare/Src/motor.c ****         GPIO_InitStructure.GPIO_PuPd = GPIO_PuPd_UP;
 430:MyHardWare/Src/motor.c ****         GPIO_Init(MOTOR_FR_PWM_PORT, &GPIO_InitStructure);
 431:MyHardWare/Src/motor.c ****         GPIO_PinAFConfig(MOTOR_FR_PWM_PORT, GPIO_PinSource9, MOTOR_FR_PWM_AF);
 432:MyHardWare/Src/motor.c ****         GPIO_InitStructure.GPIO_Pin = MOTOR_FR_DIR1_PIN | MOTOR_FR_DIR2_PIN;
 433:MyHardWare/Src/motor.c ****         GPIO_InitStructure.GPIO_Mode = GPIO_Mode_OUT;
 434:MyHardWare/Src/motor.c ****         GPIO_InitStructure.GPIO_Speed = GPIO_Speed_50MHz;
 435:MyHardWare/Src/motor.c ****         GPIO_InitStructure.GPIO_OType = GPIO_OType_PP;
 436:MyHardWare/Src/motor.c ****         GPIO_InitStructure.GPIO_PuPd = GPIO_PuPd_NOPULL;
 437:MyHardWare/Src/motor.c ****         GPIO_Init(MOTOR_FR_DIR_PORT, &GPIO_InitStructure);
 438:MyHardWare/Src/motor.c ****         GPIO_ResetBits(MOTOR_FR_DIR_PORT, MOTOR_FR_DIR1_PIN | MOTOR_FR_DIR2_PIN);
 439:MyHardWare/Src/motor.c ****     } else if (motor == MOTOR_LEFT) {
 571              		.loc 1 439 12 is_stmt 1 view .LVU107
 572              		.loc 1 439 15 is_stmt 0 view .LVU108
 573 0008 0128     		cmp	r0, #1
 574 000a 38D0     		beq	.L63
 575              	.LVL54:
 576              	.L58:
 440:MyHardWare/Src/motor.c ****         RCC_AHB1PeriphClockCmd(MOTOR_FL_PWM_CLK, ENABLE);
 441:MyHardWare/Src/motor.c ****         RCC_AHB1PeriphClockCmd(MOTOR_FL_DIR_CLK, ENABLE);
 442:MyHardWare/Src/motor.c ****         GPIO_InitStructure.GPIO_Pin = MOTOR_FL_PWM_PIN;
 443:MyHardWare/Src/motor.c ****         GPIO_InitStructure.GPIO_Mode = GPIO_Mode_AF;
 444:MyHardWare/Src/motor.c ****         GPIO_InitStructure.GPIO_Speed = GPIO_Speed_100MHz;
 445:MyHardWare/Src/motor.c ****         GPIO_InitStructure.GPIO_OType = GPIO_OType_PP;
 446:MyHardWare/Src/motor.c ****         GPIO_InitStructure.GPIO_PuPd = GPIO_PuPd_UP;
 447:MyHardWare/Src/motor.c ****         GPIO_Init(MOTOR_FL_PWM_PORT, &GPIO_InitStructure);
 448:MyHardWare/Src/motor.c ****         GPIO_PinAFConfig(MOTOR_FL_PWM_PORT, GPIO_PinSource11, MOTOR_FL_PWM_AF);
 449:MyHardWare/Src/motor.c ****         GPIO_InitStructure.GPIO_Pin = MOTOR_FL_DIR1_PIN | MOTOR_FL_DIR2_PIN;
 450:MyHardWare/Src/motor.c ****         GPIO_InitStructure.GPIO_Mode = GPIO_Mode_OUT;
 451:MyHardWare/Src/motor.c ****         GPIO_InitStructure.GPIO_Speed = GPIO_Speed_50MHz;
 452:MyHardWare/Src/motor.c ****         GPIO_InitStructure.GPIO_OType = GPIO_OType_PP;
 453:MyHardWare/Src/motor.c ****         GPIO_InitStructure.GPIO_PuPd = GPIO_PuPd_NOPULL;
 454:MyHardWare/Src/motor.c ****         GPIO_Init(MOTOR_FL_DIR_PORT, &GPIO_InitStructure);
 455:MyHardWare/Src/motor.c ****         GPIO_ResetBits(MOTOR_FL_DIR_PORT, MOTOR_FL_DIR1_PIN | MOTOR_FL_DIR2_PIN);
 456:MyHardWare/Src/motor.c ****     }
 457:MyHardWare/Src/motor.c **** #endif
 458:MyHardWare/Src/motor.c **** }
 577              		.loc 1 458 1 view .LVU109
 578 000c 02B0     		add	sp, sp, #8
 579              	.LCFI10:
 580              		.cfi_remember_state
 581              		.cfi_def_cfa_offset 24
 582              		@ sp needed
 583 000e BDE8F081 		pop	{r4, r5, r6, r7, r8, pc}
 584              	.LVL55:
 585              	.L62:
 586              	.LCFI11:
 587              		.cfi_restore_state
 423:MyHardWare/Src/motor.c ****         RCC_AHB1PeriphClockCmd(MOTOR_FR_PWM_CLK, ENABLE);
 588              		.loc 1 423 9 is_stmt 1 view .LVU110
 589 0012 0121     		movs	r1, #1
ARM GAS  /tmp/ccZenB3o.s 			page 20


 590 0014 1020     		movs	r0, #16
 591              	.LVL56:
 423:MyHardWare/Src/motor.c ****         RCC_AHB1PeriphClockCmd(MOTOR_FR_PWM_CLK, ENABLE);
 592              		.loc 1 423 9 is_stmt 0 view .LVU111
 593 0016 FFF7FEFF 		bl	RCC_AHB1PeriphClockCmd
 594              	.LVL57:
 424:MyHardWare/Src/motor.c ****         GPIO_InitStructure.GPIO_Pin = MOTOR_FR_PWM_PIN;
 595              		.loc 1 424 9 is_stmt 1 view .LVU112
 596 001a 0121     		movs	r1, #1
 597 001c 1020     		movs	r0, #16
 598 001e FFF7FEFF 		bl	RCC_AHB1PeriphClockCmd
 599              	.LVL58:
 425:MyHardWare/Src/motor.c ****         GPIO_InitStructure.GPIO_Mode = GPIO_Mode_AF;
 600              		.loc 1 425 9 view .LVU113
 425:MyHardWare/Src/motor.c ****         GPIO_InitStructure.GPIO_Mode = GPIO_Mode_AF;
 601              		.loc 1 425 37 is_stmt 0 view .LVU114
 602 0022 4FF40073 		mov	r3, #512
 603 0026 0093     		str	r3, [sp]
 426:MyHardWare/Src/motor.c ****         GPIO_InitStructure.GPIO_Speed = GPIO_Speed_100MHz;
 604              		.loc 1 426 9 is_stmt 1 view .LVU115
 426:MyHardWare/Src/motor.c ****         GPIO_InitStructure.GPIO_Speed = GPIO_Speed_100MHz;
 605              		.loc 1 426 38 is_stmt 0 view .LVU116
 606 0028 4FF00208 		mov	r8, #2
 607 002c 8DF80480 		strb	r8, [sp, #4]
 427:MyHardWare/Src/motor.c ****         GPIO_InitStructure.GPIO_OType = GPIO_OType_PP;
 608              		.loc 1 427 9 is_stmt 1 view .LVU117
 427:MyHardWare/Src/motor.c ****         GPIO_InitStructure.GPIO_OType = GPIO_OType_PP;
 609              		.loc 1 427 39 is_stmt 0 view .LVU118
 610 0030 0323     		movs	r3, #3
 611 0032 8DF80530 		strb	r3, [sp, #5]
 428:MyHardWare/Src/motor.c ****         GPIO_InitStructure.GPIO_PuPd = GPIO_PuPd_UP;
 612              		.loc 1 428 9 is_stmt 1 view .LVU119
 428:MyHardWare/Src/motor.c ****         GPIO_InitStructure.GPIO_PuPd = GPIO_PuPd_UP;
 613              		.loc 1 428 39 is_stmt 0 view .LVU120
 614 0036 0025     		movs	r5, #0
 615 0038 8DF80650 		strb	r5, [sp, #6]
 429:MyHardWare/Src/motor.c ****         GPIO_Init(MOTOR_FR_PWM_PORT, &GPIO_InitStructure);
 616              		.loc 1 429 9 is_stmt 1 view .LVU121
 429:MyHardWare/Src/motor.c ****         GPIO_Init(MOTOR_FR_PWM_PORT, &GPIO_InitStructure);
 617              		.loc 1 429 38 is_stmt 0 view .LVU122
 618 003c 0126     		movs	r6, #1
 619 003e 8DF80760 		strb	r6, [sp, #7]
 430:MyHardWare/Src/motor.c ****         GPIO_PinAFConfig(MOTOR_FR_PWM_PORT, GPIO_PinSource9, MOTOR_FR_PWM_AF);
 620              		.loc 1 430 9 is_stmt 1 view .LVU123
 621 0042 2A4C     		ldr	r4, .L64
 622 0044 6946     		mov	r1, sp
 623 0046 2046     		mov	r0, r4
 624 0048 FFF7FEFF 		bl	GPIO_Init
 625              	.LVL59:
 431:MyHardWare/Src/motor.c ****         GPIO_InitStructure.GPIO_Pin = MOTOR_FR_DIR1_PIN | MOTOR_FR_DIR2_PIN;
 626              		.loc 1 431 9 view .LVU124
 627 004c 3246     		mov	r2, r6
 628 004e 0921     		movs	r1, #9
 629 0050 2046     		mov	r0, r4
 630 0052 FFF7FEFF 		bl	GPIO_PinAFConfig
 631              	.LVL60:
 432:MyHardWare/Src/motor.c ****         GPIO_InitStructure.GPIO_Mode = GPIO_Mode_OUT;
ARM GAS  /tmp/ccZenB3o.s 			page 21


 632              		.loc 1 432 9 view .LVU125
 432:MyHardWare/Src/motor.c ****         GPIO_InitStructure.GPIO_Mode = GPIO_Mode_OUT;
 633              		.loc 1 432 37 is_stmt 0 view .LVU126
 634 0056 4FF44067 		mov	r7, #3072
 635 005a 0097     		str	r7, [sp]
 433:MyHardWare/Src/motor.c ****         GPIO_InitStructure.GPIO_Speed = GPIO_Speed_50MHz;
 636              		.loc 1 433 9 is_stmt 1 view .LVU127
 433:MyHardWare/Src/motor.c ****         GPIO_InitStructure.GPIO_Speed = GPIO_Speed_50MHz;
 637              		.loc 1 433 38 is_stmt 0 view .LVU128
 638 005c 8DF80460 		strb	r6, [sp, #4]
 434:MyHardWare/Src/motor.c ****         GPIO_InitStructure.GPIO_OType = GPIO_OType_PP;
 639              		.loc 1 434 9 is_stmt 1 view .LVU129
 434:MyHardWare/Src/motor.c ****         GPIO_InitStructure.GPIO_OType = GPIO_OType_PP;
 640              		.loc 1 434 39 is_stmt 0 view .LVU130
 641 0060 8DF80580 		strb	r8, [sp, #5]
 435:MyHardWare/Src/motor.c ****         GPIO_InitStructure.GPIO_PuPd = GPIO_PuPd_NOPULL;
 642              		.loc 1 435 9 is_stmt 1 view .LVU131
 435:MyHardWare/Src/motor.c ****         GPIO_InitStructure.GPIO_PuPd = GPIO_PuPd_NOPULL;
 643              		.loc 1 435 39 is_stmt 0 view .LVU132
 644 0064 8DF80650 		strb	r5, [sp, #6]
 436:MyHardWare/Src/motor.c ****         GPIO_Init(MOTOR_FR_DIR_PORT, &GPIO_InitStructure);
 645              		.loc 1 436 9 is_stmt 1 view .LVU133
 436:MyHardWare/Src/motor.c ****         GPIO_Init(MOTOR_FR_DIR_PORT, &GPIO_InitStructure);
 646              		.loc 1 436 38 is_stmt 0 view .LVU134
 647 0068 8DF80750 		strb	r5, [sp, #7]
 437:MyHardWare/Src/motor.c ****         GPIO_ResetBits(MOTOR_FR_DIR_PORT, MOTOR_FR_DIR1_PIN | MOTOR_FR_DIR2_PIN);
 648              		.loc 1 437 9 is_stmt 1 view .LVU135
 649 006c 6946     		mov	r1, sp
 650 006e 2046     		mov	r0, r4
 651 0070 FFF7FEFF 		bl	GPIO_Init
 652              	.LVL61:
 438:MyHardWare/Src/motor.c ****     } else if (motor == MOTOR_LEFT) {
 653              		.loc 1 438 9 view .LVU136
 654 0074 3946     		mov	r1, r7
 655 0076 2046     		mov	r0, r4
 656 0078 FFF7FEFF 		bl	GPIO_ResetBits
 657              	.LVL62:
 658 007c C6E7     		b	.L58
 659              	.LVL63:
 660              	.L63:
 440:MyHardWare/Src/motor.c ****         RCC_AHB1PeriphClockCmd(MOTOR_FL_DIR_CLK, ENABLE);
 661              		.loc 1 440 9 view .LVU137
 662 007e 0121     		movs	r1, #1
 663 0080 1020     		movs	r0, #16
 664              	.LVL64:
 440:MyHardWare/Src/motor.c ****         RCC_AHB1PeriphClockCmd(MOTOR_FL_DIR_CLK, ENABLE);
 665              		.loc 1 440 9 is_stmt 0 view .LVU138
 666 0082 FFF7FEFF 		bl	RCC_AHB1PeriphClockCmd
 667              	.LVL65:
 441:MyHardWare/Src/motor.c ****         GPIO_InitStructure.GPIO_Pin = MOTOR_FL_PWM_PIN;
 668              		.loc 1 441 9 is_stmt 1 view .LVU139
 669 0086 0121     		movs	r1, #1
 670 0088 1020     		movs	r0, #16
 671 008a FFF7FEFF 		bl	RCC_AHB1PeriphClockCmd
 672              	.LVL66:
 442:MyHardWare/Src/motor.c ****         GPIO_InitStructure.GPIO_Mode = GPIO_Mode_AF;
 673              		.loc 1 442 9 view .LVU140
ARM GAS  /tmp/ccZenB3o.s 			page 22


 442:MyHardWare/Src/motor.c ****         GPIO_InitStructure.GPIO_Mode = GPIO_Mode_AF;
 674              		.loc 1 442 37 is_stmt 0 view .LVU141
 675 008e 4FF40063 		mov	r3, #2048
 676 0092 0093     		str	r3, [sp]
 443:MyHardWare/Src/motor.c ****         GPIO_InitStructure.GPIO_Speed = GPIO_Speed_100MHz;
 677              		.loc 1 443 9 is_stmt 1 view .LVU142
 443:MyHardWare/Src/motor.c ****         GPIO_InitStructure.GPIO_Speed = GPIO_Speed_100MHz;
 678              		.loc 1 443 38 is_stmt 0 view .LVU143
 679 0094 4FF00208 		mov	r8, #2
 680 0098 8DF80480 		strb	r8, [sp, #4]
 444:MyHardWare/Src/motor.c ****         GPIO_InitStructure.GPIO_OType = GPIO_OType_PP;
 681              		.loc 1 444 9 is_stmt 1 view .LVU144
 444:MyHardWare/Src/motor.c ****         GPIO_InitStructure.GPIO_OType = GPIO_OType_PP;
 682              		.loc 1 444 39 is_stmt 0 view .LVU145
 683 009c 0323     		movs	r3, #3
 684 009e 8DF80530 		strb	r3, [sp, #5]
 445:MyHardWare/Src/motor.c ****         GPIO_InitStructure.GPIO_PuPd = GPIO_PuPd_UP;
 685              		.loc 1 445 9 is_stmt 1 view .LVU146
 445:MyHardWare/Src/motor.c ****         GPIO_InitStructure.GPIO_PuPd = GPIO_PuPd_UP;
 686              		.loc 1 445 39 is_stmt 0 view .LVU147
 687 00a2 0025     		movs	r5, #0
 688 00a4 8DF80650 		strb	r5, [sp, #6]
 446:MyHardWare/Src/motor.c ****         GPIO_Init(MOTOR_FL_PWM_PORT, &GPIO_InitStructure);
 689              		.loc 1 446 9 is_stmt 1 view .LVU148
 446:MyHardWare/Src/motor.c ****         GPIO_Init(MOTOR_FL_PWM_PORT, &GPIO_InitStructure);
 690              		.loc 1 446 38 is_stmt 0 view .LVU149
 691 00a8 0126     		movs	r6, #1
 692 00aa 8DF80760 		strb	r6, [sp, #7]
 447:MyHardWare/Src/motor.c ****         GPIO_PinAFConfig(MOTOR_FL_PWM_PORT, GPIO_PinSource11, MOTOR_FL_PWM_AF);
 693              		.loc 1 447 9 is_stmt 1 view .LVU150
 694 00ae 0F4C     		ldr	r4, .L64
 695 00b0 6946     		mov	r1, sp
 696 00b2 2046     		mov	r0, r4
 697 00b4 FFF7FEFF 		bl	GPIO_Init
 698              	.LVL67:
 448:MyHardWare/Src/motor.c ****         GPIO_InitStructure.GPIO_Pin = MOTOR_FL_DIR1_PIN | MOTOR_FL_DIR2_PIN;
 699              		.loc 1 448 9 view .LVU151
 700 00b8 3246     		mov	r2, r6
 701 00ba 0B21     		movs	r1, #11
 702 00bc 2046     		mov	r0, r4
 703 00be FFF7FEFF 		bl	GPIO_PinAFConfig
 704              	.LVL68:
 449:MyHardWare/Src/motor.c ****         GPIO_InitStructure.GPIO_Mode = GPIO_Mode_OUT;
 705              		.loc 1 449 9 view .LVU152
 449:MyHardWare/Src/motor.c ****         GPIO_InitStructure.GPIO_Mode = GPIO_Mode_OUT;
 706              		.loc 1 449 37 is_stmt 0 view .LVU153
 707 00c2 4FF44057 		mov	r7, #12288
 708 00c6 0097     		str	r7, [sp]
 450:MyHardWare/Src/motor.c ****         GPIO_InitStructure.GPIO_Speed = GPIO_Speed_50MHz;
 709              		.loc 1 450 9 is_stmt 1 view .LVU154
 450:MyHardWare/Src/motor.c ****         GPIO_InitStructure.GPIO_Speed = GPIO_Speed_50MHz;
 710              		.loc 1 450 38 is_stmt 0 view .LVU155
 711 00c8 8DF80460 		strb	r6, [sp, #4]
 451:MyHardWare/Src/motor.c ****         GPIO_InitStructure.GPIO_OType = GPIO_OType_PP;
 712              		.loc 1 451 9 is_stmt 1 view .LVU156
 451:MyHardWare/Src/motor.c ****         GPIO_InitStructure.GPIO_OType = GPIO_OType_PP;
 713              		.loc 1 451 39 is_stmt 0 view .LVU157
ARM GAS  /tmp/ccZenB3o.s 			page 23


 714 00cc 8DF80580 		strb	r8, [sp, #5]
 452:MyHardWare/Src/motor.c ****         GPIO_InitStructure.GPIO_PuPd = GPIO_PuPd_NOPULL;
 715              		.loc 1 452 9 is_stmt 1 view .LVU158
 452:MyHardWare/Src/motor.c ****         GPIO_InitStructure.GPIO_PuPd = GPIO_PuPd_NOPULL;
 716              		.loc 1 452 39 is_stmt 0 view .LVU159
 717 00d0 8DF80650 		strb	r5, [sp, #6]
 453:MyHardWare/Src/motor.c ****         GPIO_Init(MOTOR_FL_DIR_PORT, &GPIO_InitStructure);
 718              		.loc 1 453 9 is_stmt 1 view .LVU160
 453:MyHardWare/Src/motor.c ****         GPIO_Init(MOTOR_FL_DIR_PORT, &GPIO_InitStructure);
 719              		.loc 1 453 38 is_stmt 0 view .LVU161
 720 00d4 8DF80750 		strb	r5, [sp, #7]
 454:MyHardWare/Src/motor.c ****         GPIO_ResetBits(MOTOR_FL_DIR_PORT, MOTOR_FL_DIR1_PIN | MOTOR_FL_DIR2_PIN);
 721              		.loc 1 454 9 is_stmt 1 view .LVU162
 722 00d8 6946     		mov	r1, sp
 723 00da 2046     		mov	r0, r4
 724 00dc FFF7FEFF 		bl	GPIO_Init
 725              	.LVL69:
 455:MyHardWare/Src/motor.c ****     }
 726              		.loc 1 455 9 view .LVU163
 727 00e0 3946     		mov	r1, r7
 728 00e2 2046     		mov	r0, r4
 729 00e4 FFF7FEFF 		bl	GPIO_ResetBits
 730              	.LVL70:
 731              		.loc 1 458 1 is_stmt 0 view .LVU164
 732 00e8 90E7     		b	.L58
 733              	.L65:
 734 00ea 00BF     		.align	2
 735              	.L64:
 736 00ec 00100240 		.word	1073876992
 737              		.cfi_endproc
 738              	.LFE138:
 740              		.section	.text.Motor_Left_Init,"ax",%progbits
 741              		.align	1
 742              		.syntax unified
 743              		.thumb
 744              		.thumb_func
 746              	Motor_Left_Init:
 747              	.LFB131:
 288:MyHardWare/Src/motor.c ****     Motor_GPIO_Init(MOTOR_LEFT);
 748              		.loc 1 288 35 is_stmt 1 view -0
 749              		.cfi_startproc
 750              		@ args = 0, pretend = 0, frame = 0
 751              		@ frame_needed = 0, uses_anonymous_args = 0
 752 0000 08B5     		push	{r3, lr}
 753              	.LCFI12:
 754              		.cfi_def_cfa_offset 8
 755              		.cfi_offset 3, -8
 756              		.cfi_offset 14, -4
 289:MyHardWare/Src/motor.c ****     Motor_Left.initialized = 1;
 757              		.loc 1 289 5 view .LVU166
 758 0002 0120     		movs	r0, #1
 759 0004 FFF7FEFF 		bl	Motor_GPIO_Init
 760              	.LVL71:
 290:MyHardWare/Src/motor.c **** }
 761              		.loc 1 290 5 view .LVU167
 290:MyHardWare/Src/motor.c **** }
 762              		.loc 1 290 28 is_stmt 0 view .LVU168
ARM GAS  /tmp/ccZenB3o.s 			page 24


 763 0008 014B     		ldr	r3, .L68
 764 000a 0122     		movs	r2, #1
 765 000c 9A72     		strb	r2, [r3, #10]
 291:MyHardWare/Src/motor.c **** static void Motor_Left_DeInit(void) {
 766              		.loc 1 291 1 view .LVU169
 767 000e 08BD     		pop	{r3, pc}
 768              	.L69:
 769              		.align	2
 770              	.L68:
 771 0010 00000000 		.word	Motor_Left
 772              		.cfi_endproc
 773              	.LFE131:
 775              		.section	.text.Motor_Right_Init,"ax",%progbits
 776              		.align	1
 777              		.syntax unified
 778              		.thumb
 779              		.thumb_func
 781              	Motor_Right_Init:
 782              	.LFB124:
 244:MyHardWare/Src/motor.c ****     Motor_GPIO_Init(MOTOR_RIGHT);
 783              		.loc 1 244 36 is_stmt 1 view -0
 784              		.cfi_startproc
 785              		@ args = 0, pretend = 0, frame = 0
 786              		@ frame_needed = 0, uses_anonymous_args = 0
 787 0000 08B5     		push	{r3, lr}
 788              	.LCFI13:
 789              		.cfi_def_cfa_offset 8
 790              		.cfi_offset 3, -8
 791              		.cfi_offset 14, -4
 245:MyHardWare/Src/motor.c ****     Motor_Right.initialized = 1;
 792              		.loc 1 245 5 view .LVU171
 793 0002 0020     		movs	r0, #0
 794 0004 FFF7FEFF 		bl	Motor_GPIO_Init
 795              	.LVL72:
 246:MyHardWare/Src/motor.c **** }
 796              		.loc 1 246 5 view .LVU172
 246:MyHardWare/Src/motor.c **** }
 797              		.loc 1 246 29 is_stmt 0 view .LVU173
 798 0008 014B     		ldr	r3, .L72
 799 000a 0122     		movs	r2, #1
 800 000c 9A72     		strb	r2, [r3, #10]
 247:MyHardWare/Src/motor.c **** static void Motor_Right_DeInit(void) {
 801              		.loc 1 247 1 view .LVU174
 802 000e 08BD     		pop	{r3, pc}
 803              	.L73:
 804              		.align	2
 805              	.L72:
 806 0010 00000000 		.word	Motor_Right
 807              		.cfi_endproc
 808              	.LFE124:
 810              		.section	.text.Motor_Right_SetDuty,"ax",%progbits
 811              		.align	1
 812              		.syntax unified
 813              		.thumb
 814              		.thumb_func
 816              	Motor_Right_SetDuty:
 817              	.LVL73:
ARM GAS  /tmp/ccZenB3o.s 			page 25


 818              	.LFB128:
 272:MyHardWare/Src/motor.c ****     if (duty > MOTOR_PWM_MAX_DUTY) duty = MOTOR_PWM_MAX_DUTY;
 819              		.loc 1 272 48 is_stmt 1 view -0
 820              		.cfi_startproc
 821              		@ args = 0, pretend = 0, frame = 0
 822              		@ frame_needed = 0, uses_anonymous_args = 0
 272:MyHardWare/Src/motor.c ****     if (duty > MOTOR_PWM_MAX_DUTY) duty = MOTOR_PWM_MAX_DUTY;
 823              		.loc 1 272 48 is_stmt 0 view .LVU176
 824 0000 08B5     		push	{r3, lr}
 825              	.LCFI14:
 826              		.cfi_def_cfa_offset 8
 827              		.cfi_offset 3, -8
 828              		.cfi_offset 14, -4
 829 0002 0146     		mov	r1, r0
 273:MyHardWare/Src/motor.c ****     TIM_SetCompare1(MOTOR_FR_PWM_TIM, duty);
 830              		.loc 1 273 5 is_stmt 1 view .LVU177
 273:MyHardWare/Src/motor.c ****     TIM_SetCompare1(MOTOR_FR_PWM_TIM, duty);
 831              		.loc 1 273 8 is_stmt 0 view .LVU178
 832 0004 42F2CF03 		movw	r3, #8399
 833 0008 9842     		cmp	r0, r3
 834 000a 00D9     		bls	.L75
 273:MyHardWare/Src/motor.c ****     TIM_SetCompare1(MOTOR_FR_PWM_TIM, duty);
 835              		.loc 1 273 41 discriminator 1 view .LVU179
 836 000c 1946     		mov	r1, r3
 837              	.L75:
 838              	.LVL74:
 274:MyHardWare/Src/motor.c **** }
 839              		.loc 1 274 5 is_stmt 1 view .LVU180
 840 000e 0248     		ldr	r0, .L78
 841 0010 FFF7FEFF 		bl	TIM_SetCompare1
 842              	.LVL75:
 275:MyHardWare/Src/motor.c **** static void Motor_Right_Stop(void) {
 843              		.loc 1 275 1 is_stmt 0 view .LVU181
 844 0014 08BD     		pop	{r3, pc}
 845              	.L79:
 846 0016 00BF     		.align	2
 847              	.L78:
 848 0018 00000140 		.word	1073807360
 849              		.cfi_endproc
 850              	.LFE128:
 852              		.section	.text.Motor_Right_Brake,"ax",%progbits
 853              		.align	1
 854              		.syntax unified
 855              		.thumb
 856              		.thumb_func
 858              	Motor_Right_Brake:
 859              	.LFB130:
 280:MyHardWare/Src/motor.c ****     Motor_Right_SetDuty(0);
 860              		.loc 1 280 37 is_stmt 1 view -0
 861              		.cfi_startproc
 862              		@ args = 0, pretend = 0, frame = 0
 863              		@ frame_needed = 0, uses_anonymous_args = 0
 864 0000 08B5     		push	{r3, lr}
 865              	.LCFI15:
 866              		.cfi_def_cfa_offset 8
 867              		.cfi_offset 3, -8
 868              		.cfi_offset 14, -4
ARM GAS  /tmp/ccZenB3o.s 			page 26


 281:MyHardWare/Src/motor.c ****     Motor_Right_SetDirection(MOTOR_DIR_BRAKE);
 869              		.loc 1 281 5 view .LVU183
 870 0002 0020     		movs	r0, #0
 871 0004 FFF7FEFF 		bl	Motor_Right_SetDuty
 872              	.LVL76:
 282:MyHardWare/Src/motor.c **** }
 873              		.loc 1 282 5 view .LVU184
 874 0008 0320     		movs	r0, #3
 875 000a FFF7FEFF 		bl	Motor_Right_SetDirection
 876              	.LVL77:
 283:MyHardWare/Src/motor.c **** 
 877              		.loc 1 283 1 is_stmt 0 view .LVU185
 878 000e 08BD     		pop	{r3, pc}
 879              		.cfi_endproc
 880              	.LFE130:
 882              		.section	.text.Motor_Right_Stop,"ax",%progbits
 883              		.align	1
 884              		.syntax unified
 885              		.thumb
 886              		.thumb_func
 888              	Motor_Right_Stop:
 889              	.LFB129:
 276:MyHardWare/Src/motor.c ****     Motor_Right_SetDuty(0);
 890              		.loc 1 276 36 is_stmt 1 view -0
 891              		.cfi_startproc
 892              		@ args = 0, pretend = 0, frame = 0
 893              		@ frame_needed = 0, uses_anonymous_args = 0
 894 0000 08B5     		push	{r3, lr}
 895              	.LCFI16:
 896              		.cfi_def_cfa_offset 8
 897              		.cfi_offset 3, -8
 898              		.cfi_offset 14, -4
 277:MyHardWare/Src/motor.c ****     Motor_Right_SetDirection(MOTOR_DIR_STOP);
 899              		.loc 1 277 5 view .LVU187
 900 0002 0020     		movs	r0, #0
 901 0004 FFF7FEFF 		bl	Motor_Right_SetDuty
 902              	.LVL78:
 278:MyHardWare/Src/motor.c **** }
 903              		.loc 1 278 5 view .LVU188
 904 0008 0020     		movs	r0, #0
 905 000a FFF7FEFF 		bl	Motor_Right_SetDirection
 906              	.LVL79:
 279:MyHardWare/Src/motor.c **** static void Motor_Right_Brake(void) {
 907              		.loc 1 279 1 is_stmt 0 view .LVU189
 908 000e 08BD     		pop	{r3, pc}
 909              		.cfi_endproc
 910              	.LFE129:
 912              		.section	.text.Motor_TIM_Init,"ax",%progbits
 913              		.align	1
 914              		.syntax unified
 915              		.thumb
 916              		.thumb_func
 918              	Motor_TIM_Init:
 919              	.LVL80:
 920              	.LFB139:
 459:MyHardWare/Src/motor.c **** 
 460:MyHardWare/Src/motor.c **** /**
ARM GAS  /tmp/ccZenB3o.s 			page 27


 461:MyHardWare/Src/motor.c ****  * @brief 初始化定时器时基单元
 462:MyHardWare/Src/motor.c ****  * @param tim 定时器指针
 463:MyHardWare/Src/motor.c ****  * @param tim_clk 定时器时钟RCC
 464:MyHardWare/Src/motor.c ****  */
 465:MyHardWare/Src/motor.c **** static void Motor_TIM_Init(TIM_TypeDef* tim, uint32_t tim_clk)
 466:MyHardWare/Src/motor.c **** {
 921              		.loc 1 466 1 is_stmt 1 view -0
 922              		.cfi_startproc
 923              		@ args = 0, pretend = 0, frame = 16
 924              		@ frame_needed = 0, uses_anonymous_args = 0
 925              		.loc 1 466 1 is_stmt 0 view .LVU191
 926 0000 10B5     		push	{r4, lr}
 927              	.LCFI17:
 928              		.cfi_def_cfa_offset 8
 929              		.cfi_offset 4, -8
 930              		.cfi_offset 14, -4
 931 0002 84B0     		sub	sp, sp, #16
 932              	.LCFI18:
 933              		.cfi_def_cfa_offset 24
 934 0004 0446     		mov	r4, r0
 935 0006 0846     		mov	r0, r1
 936              	.LVL81:
 467:MyHardWare/Src/motor.c ****     TIM_TimeBaseInitTypeDef TIM_TimeBaseStructure;
 937              		.loc 1 467 5 is_stmt 1 view .LVU192
 468:MyHardWare/Src/motor.c **** 
 469:MyHardWare/Src/motor.c ****     // 使能定时器时钟
 470:MyHardWare/Src/motor.c ****     RCC_APB2PeriphClockCmd(tim_clk, ENABLE);
 938              		.loc 1 470 5 view .LVU193
 939 0008 0121     		movs	r1, #1
 940              	.LVL82:
 941              		.loc 1 470 5 is_stmt 0 view .LVU194
 942 000a FFF7FEFF 		bl	RCC_APB2PeriphClockCmd
 943              	.LVL83:
 471:MyHardWare/Src/motor.c **** 
 472:MyHardWare/Src/motor.c ****     // 定时器时基配置 - 20kHz PWM
 473:MyHardWare/Src/motor.c ****     // 168MHz / (0+1) / (8399+1) = 20kHz
 474:MyHardWare/Src/motor.c ****     TIM_TimeBaseStructure.TIM_Period = MOTOR_PWM_PERIOD;
 944              		.loc 1 474 5 is_stmt 1 view .LVU195
 945              		.loc 1 474 38 is_stmt 0 view .LVU196
 946 000e 42F2CF03 		movw	r3, #8399
 947 0012 0293     		str	r3, [sp, #8]
 475:MyHardWare/Src/motor.c ****     TIM_TimeBaseStructure.TIM_Prescaler = MOTOR_PWM_PRESCALER;
 948              		.loc 1 475 5 is_stmt 1 view .LVU197
 949              		.loc 1 475 41 is_stmt 0 view .LVU198
 950 0014 0023     		movs	r3, #0
 951 0016 ADF80430 		strh	r3, [sp, #4]	@ movhi
 476:MyHardWare/Src/motor.c ****     TIM_TimeBaseStructure.TIM_ClockDivision = 0;
 952              		.loc 1 476 5 is_stmt 1 view .LVU199
 953              		.loc 1 476 45 is_stmt 0 view .LVU200
 954 001a ADF80C30 		strh	r3, [sp, #12]	@ movhi
 477:MyHardWare/Src/motor.c ****     TIM_TimeBaseStructure.TIM_CounterMode = TIM_CounterMode_Up;
 955              		.loc 1 477 5 is_stmt 1 view .LVU201
 956              		.loc 1 477 43 is_stmt 0 view .LVU202
 957 001e ADF80630 		strh	r3, [sp, #6]	@ movhi
 478:MyHardWare/Src/motor.c ****     TIM_TimeBaseInit(tim, &TIM_TimeBaseStructure);
 958              		.loc 1 478 5 is_stmt 1 view .LVU203
 959 0022 01A9     		add	r1, sp, #4
ARM GAS  /tmp/ccZenB3o.s 			page 28


 960 0024 2046     		mov	r0, r4
 961 0026 FFF7FEFF 		bl	TIM_TimeBaseInit
 962              	.LVL84:
 479:MyHardWare/Src/motor.c ****     TIM_ARRPreloadConfig(tim, ENABLE);
 963              		.loc 1 479 5 view .LVU204
 964 002a 0121     		movs	r1, #1
 965 002c 2046     		mov	r0, r4
 966 002e FFF7FEFF 		bl	TIM_ARRPreloadConfig
 967              	.LVL85:
 480:MyHardWare/Src/motor.c **** }
 968              		.loc 1 480 1 is_stmt 0 view .LVU205
 969 0032 04B0     		add	sp, sp, #16
 970              	.LCFI19:
 971              		.cfi_def_cfa_offset 8
 972              		@ sp needed
 973 0034 10BD     		pop	{r4, pc}
 974              		.loc 1 480 1 view .LVU206
 975              		.cfi_endproc
 976              	.LFE139:
 978              		.section	.text.Motor_TIM_Channel_Init,"ax",%progbits
 979              		.align	1
 980              		.syntax unified
 981              		.thumb
 982              		.thumb_func
 984              	Motor_TIM_Channel_Init:
 985              	.LVL86:
 986              	.LFB140:
 481:MyHardWare/Src/motor.c **** 
 482:MyHardWare/Src/motor.c **** /**
 483:MyHardWare/Src/motor.c ****  * @brief 初始化定时器PWM通道
 484:MyHardWare/Src/motor.c ****  * @param tim 定时器指针
 485:MyHardWare/Src/motor.c ****  * @param channel PWM通道
 486:MyHardWare/Src/motor.c ****  */
 487:MyHardWare/Src/motor.c **** static void Motor_TIM_Channel_Init(TIM_TypeDef* tim, uint16_t channel)
 488:MyHardWare/Src/motor.c **** {
 987              		.loc 1 488 1 is_stmt 1 view -0
 988              		.cfi_startproc
 989              		@ args = 0, pretend = 0, frame = 24
 990              		@ frame_needed = 0, uses_anonymous_args = 0
 991              		.loc 1 488 1 is_stmt 0 view .LVU208
 992 0000 10B5     		push	{r4, lr}
 993              	.LCFI20:
 994              		.cfi_def_cfa_offset 8
 995              		.cfi_offset 4, -8
 996              		.cfi_offset 14, -4
 997 0002 86B0     		sub	sp, sp, #24
 998              	.LCFI21:
 999              		.cfi_def_cfa_offset 32
 1000 0004 0446     		mov	r4, r0
 489:MyHardWare/Src/motor.c ****     TIM_OCInitTypeDef TIM_OCInitStructure;
 1001              		.loc 1 489 5 is_stmt 1 view .LVU209
 490:MyHardWare/Src/motor.c ****     TIM_OCInitStructure.TIM_OCMode = TIM_OCMode_PWM1;
 1002              		.loc 1 490 5 view .LVU210
 1003              		.loc 1 490 36 is_stmt 0 view .LVU211
 1004 0006 6023     		movs	r3, #96
 1005 0008 ADF80430 		strh	r3, [sp, #4]	@ movhi
 491:MyHardWare/Src/motor.c ****     TIM_OCInitStructure.TIM_OutputState = TIM_OutputState_Enable;
ARM GAS  /tmp/ccZenB3o.s 			page 29


 1006              		.loc 1 491 5 is_stmt 1 view .LVU212
 1007              		.loc 1 491 41 is_stmt 0 view .LVU213
 1008 000c 0123     		movs	r3, #1
 1009 000e ADF80630 		strh	r3, [sp, #6]	@ movhi
 492:MyHardWare/Src/motor.c ****     TIM_OCInitStructure.TIM_OutputNState = TIM_OutputNState_Enable;
 1010              		.loc 1 492 5 is_stmt 1 view .LVU214
 1011              		.loc 1 492 42 is_stmt 0 view .LVU215
 1012 0012 0423     		movs	r3, #4
 1013 0014 ADF80830 		strh	r3, [sp, #8]	@ movhi
 493:MyHardWare/Src/motor.c ****     TIM_OCInitStructure.TIM_Pulse = 0;
 1014              		.loc 1 493 5 is_stmt 1 view .LVU216
 1015              		.loc 1 493 35 is_stmt 0 view .LVU217
 1016 0018 0023     		movs	r3, #0
 1017 001a 0393     		str	r3, [sp, #12]
 494:MyHardWare/Src/motor.c ****     TIM_OCInitStructure.TIM_OCPolarity = TIM_OCPolarity_High;
 1018              		.loc 1 494 5 is_stmt 1 view .LVU218
 1019              		.loc 1 494 40 is_stmt 0 view .LVU219
 1020 001c ADF81030 		strh	r3, [sp, #16]	@ movhi
 495:MyHardWare/Src/motor.c ****     TIM_OCInitStructure.TIM_OCNPolarity = TIM_OCNPolarity_High;
 1021              		.loc 1 495 5 is_stmt 1 view .LVU220
 1022              		.loc 1 495 41 is_stmt 0 view .LVU221
 1023 0020 ADF81230 		strh	r3, [sp, #18]	@ movhi
 496:MyHardWare/Src/motor.c ****     TIM_OCInitStructure.TIM_OCIdleState = TIM_OCIdleState_Reset;
 1024              		.loc 1 496 5 is_stmt 1 view .LVU222
 1025              		.loc 1 496 41 is_stmt 0 view .LVU223
 1026 0024 ADF81430 		strh	r3, [sp, #20]	@ movhi
 497:MyHardWare/Src/motor.c ****     TIM_OCInitStructure.TIM_OCNIdleState = TIM_OCNIdleState_Reset;
 1027              		.loc 1 497 5 is_stmt 1 view .LVU224
 1028              		.loc 1 497 42 is_stmt 0 view .LVU225
 1029 0028 ADF81630 		strh	r3, [sp, #22]	@ movhi
 498:MyHardWare/Src/motor.c **** 
 499:MyHardWare/Src/motor.c ****     switch (channel) {
 1030              		.loc 1 499 5 is_stmt 1 view .LVU226
 1031 002c 0C29     		cmp	r1, #12
 1032 002e 0FD8     		bhi	.L86
 1033 0030 DFE801F0 		tbb	[pc, r1]
 1034              	.L89:
 1035 0034 07       		.byte	(.L92-.L89)/2
 1036 0035 0E       		.byte	(.L86-.L89)/2
 1037 0036 0E       		.byte	(.L86-.L89)/2
 1038 0037 0E       		.byte	(.L86-.L89)/2
 1039 0038 10       		.byte	(.L91-.L89)/2
 1040 0039 0E       		.byte	(.L86-.L89)/2
 1041 003a 0E       		.byte	(.L86-.L89)/2
 1042 003b 0E       		.byte	(.L86-.L89)/2
 1043 003c 18       		.byte	(.L90-.L89)/2
 1044 003d 0E       		.byte	(.L86-.L89)/2
 1045 003e 0E       		.byte	(.L86-.L89)/2
 1046 003f 0E       		.byte	(.L86-.L89)/2
 1047 0040 20       		.byte	(.L88-.L89)/2
 1048 0041 00       		.p2align 1
 1049              	.L92:
 500:MyHardWare/Src/motor.c ****         case TIM_Channel_1:
 501:MyHardWare/Src/motor.c ****             TIM_OC1Init(tim, &TIM_OCInitStructure);
 1050              		.loc 1 501 13 view .LVU227
 1051 0042 01A9     		add	r1, sp, #4
 1052              	.LVL87:
ARM GAS  /tmp/ccZenB3o.s 			page 30


 1053              		.loc 1 501 13 is_stmt 0 view .LVU228
 1054 0044 FFF7FEFF 		bl	TIM_OC1Init
 1055              	.LVL88:
 502:MyHardWare/Src/motor.c ****             TIM_OC1PreloadConfig(tim, TIM_OCPreload_Enable);
 1056              		.loc 1 502 13 is_stmt 1 view .LVU229
 1057 0048 0821     		movs	r1, #8
 1058 004a 2046     		mov	r0, r4
 1059 004c FFF7FEFF 		bl	TIM_OC1PreloadConfig
 1060              	.LVL89:
 503:MyHardWare/Src/motor.c ****             break;
 1061              		.loc 1 503 13 view .LVU230
 1062              	.L86:
 504:MyHardWare/Src/motor.c ****         case TIM_Channel_2:
 505:MyHardWare/Src/motor.c ****             TIM_OC2Init(tim, &TIM_OCInitStructure);
 506:MyHardWare/Src/motor.c ****             TIM_OC2PreloadConfig(tim, TIM_OCPreload_Enable);
 507:MyHardWare/Src/motor.c ****             break;
 508:MyHardWare/Src/motor.c ****         case TIM_Channel_3:
 509:MyHardWare/Src/motor.c ****             TIM_OC3Init(tim, &TIM_OCInitStructure);
 510:MyHardWare/Src/motor.c ****             TIM_OC3PreloadConfig(tim, TIM_OCPreload_Enable);
 511:MyHardWare/Src/motor.c ****             break;
 512:MyHardWare/Src/motor.c ****         case TIM_Channel_4:
 513:MyHardWare/Src/motor.c ****             TIM_OC4Init(tim, &TIM_OCInitStructure);
 514:MyHardWare/Src/motor.c ****             TIM_OC4PreloadConfig(tim, TIM_OCPreload_Enable);
 515:MyHardWare/Src/motor.c ****             break;
 516:MyHardWare/Src/motor.c ****     }
 517:MyHardWare/Src/motor.c **** }
 1063              		.loc 1 517 1 is_stmt 0 view .LVU231
 1064 0050 06B0     		add	sp, sp, #24
 1065              	.LCFI22:
 1066              		.cfi_remember_state
 1067              		.cfi_def_cfa_offset 8
 1068              		@ sp needed
 1069 0052 10BD     		pop	{r4, pc}
 1070              	.LVL90:
 1071              	.L91:
 1072              	.LCFI23:
 1073              		.cfi_restore_state
 505:MyHardWare/Src/motor.c ****             TIM_OC2PreloadConfig(tim, TIM_OCPreload_Enable);
 1074              		.loc 1 505 13 is_stmt 1 view .LVU232
 1075 0054 01A9     		add	r1, sp, #4
 1076              	.LVL91:
 505:MyHardWare/Src/motor.c ****             TIM_OC2PreloadConfig(tim, TIM_OCPreload_Enable);
 1077              		.loc 1 505 13 is_stmt 0 view .LVU233
 1078 0056 FFF7FEFF 		bl	TIM_OC2Init
 1079              	.LVL92:
 506:MyHardWare/Src/motor.c ****             break;
 1080              		.loc 1 506 13 is_stmt 1 view .LVU234
 1081 005a 0821     		movs	r1, #8
 1082 005c 2046     		mov	r0, r4
 1083 005e FFF7FEFF 		bl	TIM_OC2PreloadConfig
 1084              	.LVL93:
 507:MyHardWare/Src/motor.c ****         case TIM_Channel_3:
 1085              		.loc 1 507 13 view .LVU235
 1086 0062 F5E7     		b	.L86
 1087              	.LVL94:
 1088              	.L90:
 509:MyHardWare/Src/motor.c ****             TIM_OC3PreloadConfig(tim, TIM_OCPreload_Enable);
ARM GAS  /tmp/ccZenB3o.s 			page 31


 1089              		.loc 1 509 13 view .LVU236
 1090 0064 01A9     		add	r1, sp, #4
 1091              	.LVL95:
 509:MyHardWare/Src/motor.c ****             TIM_OC3PreloadConfig(tim, TIM_OCPreload_Enable);
 1092              		.loc 1 509 13 is_stmt 0 view .LVU237
 1093 0066 FFF7FEFF 		bl	TIM_OC3Init
 1094              	.LVL96:
 510:MyHardWare/Src/motor.c ****             break;
 1095              		.loc 1 510 13 is_stmt 1 view .LVU238
 1096 006a 0821     		movs	r1, #8
 1097 006c 2046     		mov	r0, r4
 1098 006e FFF7FEFF 		bl	TIM_OC3PreloadConfig
 1099              	.LVL97:
 511:MyHardWare/Src/motor.c ****         case TIM_Channel_4:
 1100              		.loc 1 511 13 view .LVU239
 1101 0072 EDE7     		b	.L86
 1102              	.LVL98:
 1103              	.L88:
 513:MyHardWare/Src/motor.c ****             TIM_OC4PreloadConfig(tim, TIM_OCPreload_Enable);
 1104              		.loc 1 513 13 view .LVU240
 1105 0074 01A9     		add	r1, sp, #4
 1106              	.LVL99:
 513:MyHardWare/Src/motor.c ****             TIM_OC4PreloadConfig(tim, TIM_OCPreload_Enable);
 1107              		.loc 1 513 13 is_stmt 0 view .LVU241
 1108 0076 FFF7FEFF 		bl	TIM_OC4Init
 1109              	.LVL100:
 514:MyHardWare/Src/motor.c ****             break;
 1110              		.loc 1 514 13 is_stmt 1 view .LVU242
 1111 007a 0821     		movs	r1, #8
 1112 007c 2046     		mov	r0, r4
 1113 007e FFF7FEFF 		bl	TIM_OC4PreloadConfig
 1114              	.LVL101:
 515:MyHardWare/Src/motor.c ****     }
 1115              		.loc 1 515 13 view .LVU243
 1116              		.loc 1 517 1 is_stmt 0 view .LVU244
 1117 0082 E5E7     		b	.L86
 1118              		.cfi_endproc
 1119              	.LFE140:
 1121              		.section	.text.Motor_Driver_Init,"ax",%progbits
 1122              		.align	1
 1123              		.global	Motor_Driver_Init
 1124              		.syntax unified
 1125              		.thumb
 1126              		.thumb_func
 1128              	Motor_Driver_Init:
 1129              	.LFB141:
 518:MyHardWare/Src/motor.c **** 
 519:MyHardWare/Src/motor.c **** /* ==================== 公有函数实现 ==================== */
 520:MyHardWare/Src/motor.c **** 
 521:MyHardWare/Src/motor.c **** /**
 522:MyHardWare/Src/motor.c ****  * @brief 电机驱动初始化
 523:MyHardWare/Src/motor.c ****  */
 524:MyHardWare/Src/motor.c **** void Motor_Driver_Init(void)
 525:MyHardWare/Src/motor.c **** {
 1130              		.loc 1 525 1 is_stmt 1 view -0
 1131              		.cfi_startproc
 1132              		@ args = 0, pretend = 0, frame = 0
ARM GAS  /tmp/ccZenB3o.s 			page 32


 1133              		@ frame_needed = 0, uses_anonymous_args = 0
 1134 0000 38B5     		push	{r3, r4, r5, lr}
 1135              	.LCFI24:
 1136              		.cfi_def_cfa_offset 16
 1137              		.cfi_offset 3, -16
 1138              		.cfi_offset 4, -12
 1139              		.cfi_offset 5, -8
 1140              		.cfi_offset 14, -4
 526:MyHardWare/Src/motor.c ****     // 初始化TIM1 (前右、前左电机 / 双驱模式下的右、左电机)
 527:MyHardWare/Src/motor.c ****     Motor_TIM_Init(MOTOR_FR_PWM_TIM, MOTOR_FR_PWM_TIM_CLK);
 1141              		.loc 1 527 5 view .LVU246
 1142 0002 204D     		ldr	r5, .L97
 1143 0004 0121     		movs	r1, #1
 1144 0006 2846     		mov	r0, r5
 1145 0008 FFF7FEFF 		bl	Motor_TIM_Init
 1146              	.LVL102:
 528:MyHardWare/Src/motor.c ****     Motor_TIM_Channel_Init(MOTOR_FR_PWM_TIM, MOTOR_FR_PWM_CHANNEL);
 1147              		.loc 1 528 5 view .LVU247
 1148 000c 0021     		movs	r1, #0
 1149 000e 2846     		mov	r0, r5
 1150 0010 FFF7FEFF 		bl	Motor_TIM_Channel_Init
 1151              	.LVL103:
 529:MyHardWare/Src/motor.c ****     Motor_TIM_Channel_Init(MOTOR_FR_PWM_TIM, MOTOR_FL_PWM_CHANNEL);
 1152              		.loc 1 529 5 view .LVU248
 1153 0014 0421     		movs	r1, #4
 1154 0016 2846     		mov	r0, r5
 1155 0018 FFF7FEFF 		bl	Motor_TIM_Channel_Init
 1156              	.LVL104:
 530:MyHardWare/Src/motor.c **** 
 531:MyHardWare/Src/motor.c **** #ifdef QUAD_MOTOR_DRIVE
 532:MyHardWare/Src/motor.c ****     // 初始化TIM8 (后右、后左电机)
 533:MyHardWare/Src/motor.c ****     Motor_TIM_Init(MOTOR_BR_PWM_TIM, MOTOR_BR_PWM_TIM_CLK);
 534:MyHardWare/Src/motor.c ****     Motor_TIM_Channel_Init(MOTOR_BR_PWM_TIM, MOTOR_BR_PWM_CHANNEL);
 535:MyHardWare/Src/motor.c ****     Motor_TIM_Channel_Init(MOTOR_BR_PWM_TIM, MOTOR_BL_PWM_CHANNEL);
 536:MyHardWare/Src/motor.c **** #endif
 537:MyHardWare/Src/motor.c **** 
 538:MyHardWare/Src/motor.c ****     // 使能PWM输出
 539:MyHardWare/Src/motor.c ****     TIM_CtrlPWMOutputs(TIM1, ENABLE);
 1157              		.loc 1 539 5 view .LVU249
 1158 001c 0121     		movs	r1, #1
 1159 001e 2846     		mov	r0, r5
 1160 0020 FFF7FEFF 		bl	TIM_CtrlPWMOutputs
 1161              	.LVL105:
 540:MyHardWare/Src/motor.c ****     TIM_Cmd(TIM1, ENABLE);
 1162              		.loc 1 540 5 view .LVU250
 1163 0024 0121     		movs	r1, #1
 1164 0026 2846     		mov	r0, r5
 1165 0028 FFF7FEFF 		bl	TIM_Cmd
 1166              	.LVL106:
 541:MyHardWare/Src/motor.c **** #ifdef QUAD_MOTOR_DRIVE
 542:MyHardWare/Src/motor.c ****     TIM_CtrlPWMOutputs(TIM8, ENABLE);
 543:MyHardWare/Src/motor.c ****     TIM_Cmd(TIM8, ENABLE);
 544:MyHardWare/Src/motor.c **** #endif
 545:MyHardWare/Src/motor.c **** 
 546:MyHardWare/Src/motor.c **** #ifdef QUAD_MOTOR_DRIVE
 547:MyHardWare/Src/motor.c ****     // 初始化四驱电机实例的函数指针
 548:MyHardWare/Src/motor.c ****     Motor_FR.id = MOTOR_FR; Motor_FR.tim = MOTOR_FR_PWM_TIM; Motor_FR.channel = MOTOR_FR_PWM_CHANNE
ARM GAS  /tmp/ccZenB3o.s 			page 33


 549:MyHardWare/Src/motor.c ****     Motor_FR.Init = Motor_FR_Init; Motor_FR.DeInit = Motor_FR_DeInit;
 550:MyHardWare/Src/motor.c ****     Motor_FR.SetSpeed = Motor_FR_SetSpeed; Motor_FR.SetDirection = Motor_FR_SetDirection;
 551:MyHardWare/Src/motor.c ****     Motor_FR.SetDuty = Motor_FR_SetDuty; Motor_FR.Stop = Motor_FR_Stop; Motor_FR.Brake = Motor_FR_B
 552:MyHardWare/Src/motor.c **** 
 553:MyHardWare/Src/motor.c ****     Motor_FL.id = MOTOR_FL; Motor_FL.tim = MOTOR_FL_PWM_TIM; Motor_FL.channel = MOTOR_FL_PWM_CHANNE
 554:MyHardWare/Src/motor.c ****     Motor_FL.Init = Motor_FL_Init; Motor_FL.DeInit = Motor_FL_DeInit;
 555:MyHardWare/Src/motor.c ****     Motor_FL.SetSpeed = Motor_FL_SetSpeed; Motor_FL.SetDirection = Motor_FL_SetDirection;
 556:MyHardWare/Src/motor.c ****     Motor_FL.SetDuty = Motor_FL_SetDuty; Motor_FL.Stop = Motor_FL_Stop; Motor_FL.Brake = Motor_FL_B
 557:MyHardWare/Src/motor.c **** 
 558:MyHardWare/Src/motor.c ****     Motor_BR.id = MOTOR_BR; Motor_BR.tim = MOTOR_BR_PWM_TIM; Motor_BR.channel = MOTOR_BR_PWM_CHANNE
 559:MyHardWare/Src/motor.c ****     Motor_BR.Init = Motor_BR_Init; Motor_BR.DeInit = Motor_BR_DeInit;
 560:MyHardWare/Src/motor.c ****     Motor_BR.SetSpeed = Motor_BR_SetSpeed; Motor_BR.SetDirection = Motor_BR_SetDirection;
 561:MyHardWare/Src/motor.c ****     Motor_BR.SetDuty = Motor_BR_SetDuty; Motor_BR.Stop = Motor_BR_Stop; Motor_BR.Brake = Motor_BR_B
 562:MyHardWare/Src/motor.c **** 
 563:MyHardWare/Src/motor.c ****     Motor_BL.id = MOTOR_BL; Motor_BL.tim = MOTOR_BL_PWM_TIM; Motor_BL.channel = MOTOR_BL_PWM_CHANNE
 564:MyHardWare/Src/motor.c ****     Motor_BL.Init = Motor_BL_Init; Motor_BL.DeInit = Motor_BL_DeInit;
 565:MyHardWare/Src/motor.c ****     Motor_BL.SetSpeed = Motor_BL_SetSpeed; Motor_BL.SetDirection = Motor_BL_SetDirection;
 566:MyHardWare/Src/motor.c ****     Motor_BL.SetDuty = Motor_BL_SetDuty; Motor_BL.Stop = Motor_BL_Stop; Motor_BL.Brake = Motor_BL_B
 567:MyHardWare/Src/motor.c **** 
 568:MyHardWare/Src/motor.c ****     // 初始化所有电机实例
 569:MyHardWare/Src/motor.c ****     Motor_FR.Init();
 570:MyHardWare/Src/motor.c ****     Motor_FL.Init();
 571:MyHardWare/Src/motor.c ****     Motor_BR.Init();
 572:MyHardWare/Src/motor.c ****     Motor_BL.Init();
 573:MyHardWare/Src/motor.c **** #else
 574:MyHardWare/Src/motor.c ****     // 初始化双驱电机实例的函数指针
 575:MyHardWare/Src/motor.c ****     Motor_Right.id = MOTOR_RIGHT; Motor_Right.tim = MOTOR_FR_PWM_TIM; Motor_Right.channel = MOTOR_F
 1167              		.loc 1 575 5 view .LVU251
 1168              		.loc 1 575 20 is_stmt 0 view .LVU252
 1169 002c 164B     		ldr	r3, .L97+4
 1170 002e 0022     		movs	r2, #0
 1171 0030 DA70     		strb	r2, [r3, #3]
 1172              		.loc 1 575 35 is_stmt 1 view .LVU253
 1173              		.loc 1 575 51 is_stmt 0 view .LVU254
 1174 0032 5D60     		str	r5, [r3, #4]
 1175              		.loc 1 575 71 is_stmt 1 view .LVU255
 1176              		.loc 1 575 91 is_stmt 0 view .LVU256
 1177 0034 1A81     		strh	r2, [r3, #8]	@ movhi
 576:MyHardWare/Src/motor.c ****     Motor_Right.Init = Motor_Right_Init; Motor_Right.DeInit = Motor_Right_DeInit;
 1178              		.loc 1 576 5 is_stmt 1 view .LVU257
 1179              		.loc 1 576 22 is_stmt 0 view .LVU258
 1180 0036 154A     		ldr	r2, .L97+8
 1181 0038 DA60     		str	r2, [r3, #12]
 1182              		.loc 1 576 42 is_stmt 1 view .LVU259
 1183              		.loc 1 576 61 is_stmt 0 view .LVU260
 1184 003a 154A     		ldr	r2, .L97+12
 1185 003c 1A61     		str	r2, [r3, #16]
 577:MyHardWare/Src/motor.c ****     Motor_Right.SetSpeed = Motor_Right_SetSpeed; Motor_Right.SetDirection = Motor_Right_SetDirectio
 1186              		.loc 1 577 5 is_stmt 1 view .LVU261
 1187              		.loc 1 577 26 is_stmt 0 view .LVU262
 1188 003e 154A     		ldr	r2, .L97+16
 1189 0040 5A61     		str	r2, [r3, #20]
 1190              		.loc 1 577 50 is_stmt 1 view .LVU263
 1191              		.loc 1 577 75 is_stmt 0 view .LVU264
 1192 0042 154A     		ldr	r2, .L97+20
 1193 0044 9A61     		str	r2, [r3, #24]
 578:MyHardWare/Src/motor.c ****     Motor_Right.SetDuty = Motor_Right_SetDuty; Motor_Right.Stop = Motor_Right_Stop; Motor_Right.Bra
ARM GAS  /tmp/ccZenB3o.s 			page 34


 1194              		.loc 1 578 5 is_stmt 1 view .LVU265
 1195              		.loc 1 578 25 is_stmt 0 view .LVU266
 1196 0046 154A     		ldr	r2, .L97+24
 1197 0048 DA61     		str	r2, [r3, #28]
 1198              		.loc 1 578 48 is_stmt 1 view .LVU267
 1199              		.loc 1 578 65 is_stmt 0 view .LVU268
 1200 004a 154A     		ldr	r2, .L97+28
 1201 004c 1A62     		str	r2, [r3, #32]
 1202              		.loc 1 578 85 is_stmt 1 view .LVU269
 1203              		.loc 1 578 103 is_stmt 0 view .LVU270
 1204 004e 154A     		ldr	r2, .L97+32
 1205 0050 5A62     		str	r2, [r3, #36]
 579:MyHardWare/Src/motor.c **** 
 580:MyHardWare/Src/motor.c ****     Motor_Left.id = MOTOR_LEFT; Motor_Left.tim = MOTOR_FL_PWM_TIM; Motor_Left.channel = MOTOR_FL_PW
 1206              		.loc 1 580 5 is_stmt 1 view .LVU271
 1207              		.loc 1 580 19 is_stmt 0 view .LVU272
 1208 0052 154C     		ldr	r4, .L97+36
 1209 0054 0123     		movs	r3, #1
 1210 0056 E370     		strb	r3, [r4, #3]
 1211              		.loc 1 580 33 is_stmt 1 view .LVU273
 1212              		.loc 1 580 48 is_stmt 0 view .LVU274
 1213 0058 6560     		str	r5, [r4, #4]
 1214              		.loc 1 580 68 is_stmt 1 view .LVU275
 1215              		.loc 1 580 87 is_stmt 0 view .LVU276
 1216 005a 0423     		movs	r3, #4
 1217 005c 2381     		strh	r3, [r4, #8]	@ movhi
 581:MyHardWare/Src/motor.c ****     Motor_Left.Init = Motor_Left_Init; Motor_Left.DeInit = Motor_Left_DeInit;
 1218              		.loc 1 581 5 is_stmt 1 view .LVU277
 1219              		.loc 1 581 21 is_stmt 0 view .LVU278
 1220 005e 134B     		ldr	r3, .L97+40
 1221 0060 E360     		str	r3, [r4, #12]
 1222              		.loc 1 581 40 is_stmt 1 view .LVU279
 1223              		.loc 1 581 58 is_stmt 0 view .LVU280
 1224 0062 134B     		ldr	r3, .L97+44
 1225 0064 2361     		str	r3, [r4, #16]
 582:MyHardWare/Src/motor.c ****     Motor_Left.SetSpeed = Motor_Left_SetSpeed; Motor_Left.SetDirection = Motor_Left_SetDirection;
 1226              		.loc 1 582 5 is_stmt 1 view .LVU281
 1227              		.loc 1 582 25 is_stmt 0 view .LVU282
 1228 0066 134B     		ldr	r3, .L97+48
 1229 0068 6361     		str	r3, [r4, #20]
 1230              		.loc 1 582 48 is_stmt 1 view .LVU283
 1231              		.loc 1 582 72 is_stmt 0 view .LVU284
 1232 006a 134B     		ldr	r3, .L97+52
 1233 006c A361     		str	r3, [r4, #24]
 583:MyHardWare/Src/motor.c ****     Motor_Left.SetDuty = Motor_Left_SetDuty; Motor_Left.Stop = Motor_Left_Stop; Motor_Left.Brake = 
 1234              		.loc 1 583 5 is_stmt 1 view .LVU285
 1235              		.loc 1 583 24 is_stmt 0 view .LVU286
 1236 006e 134B     		ldr	r3, .L97+56
 1237 0070 E361     		str	r3, [r4, #28]
 1238              		.loc 1 583 46 is_stmt 1 view .LVU287
 1239              		.loc 1 583 62 is_stmt 0 view .LVU288
 1240 0072 134B     		ldr	r3, .L97+60
 1241 0074 2362     		str	r3, [r4, #32]
 1242              		.loc 1 583 81 is_stmt 1 view .LVU289
 1243              		.loc 1 583 98 is_stmt 0 view .LVU290
 1244 0076 134B     		ldr	r3, .L97+64
 1245 0078 6362     		str	r3, [r4, #36]
ARM GAS  /tmp/ccZenB3o.s 			page 35


 584:MyHardWare/Src/motor.c **** 
 585:MyHardWare/Src/motor.c ****     // 初始化所有电机实例
 586:MyHardWare/Src/motor.c ****     Motor_Right.Init();
 1246              		.loc 1 586 5 is_stmt 1 view .LVU291
 1247 007a FFF7FEFF 		bl	Motor_Right_Init
 1248              	.LVL107:
 587:MyHardWare/Src/motor.c ****     Motor_Left.Init();
 1249              		.loc 1 587 5 view .LVU292
 1250              		.loc 1 587 15 is_stmt 0 view .LVU293
 1251 007e E368     		ldr	r3, [r4, #12]
 1252              		.loc 1 587 5 view .LVU294
 1253 0080 9847     		blx	r3
 1254              	.LVL108:
 588:MyHardWare/Src/motor.c **** #endif
 589:MyHardWare/Src/motor.c **** }
 1255              		.loc 1 589 1 view .LVU295
 1256 0082 38BD     		pop	{r3, r4, r5, pc}
 1257              	.L98:
 1258              		.align	2
 1259              	.L97:
 1260 0084 00000140 		.word	1073807360
 1261 0088 00000000 		.word	Motor_Right
 1262 008c 00000000 		.word	Motor_Right_Init
 1263 0090 00000000 		.word	Motor_Right_DeInit
 1264 0094 00000000 		.word	Motor_Right_SetSpeed
 1265 0098 00000000 		.word	Motor_Right_SetDirection
 1266 009c 00000000 		.word	Motor_Right_SetDuty
 1267 00a0 00000000 		.word	Motor_Right_Stop
 1268 00a4 00000000 		.word	Motor_Right_Brake
 1269 00a8 00000000 		.word	Motor_Left
 1270 00ac 00000000 		.word	Motor_Left_Init
 1271 00b0 00000000 		.word	Motor_Left_DeInit
 1272 00b4 00000000 		.word	Motor_Left_SetSpeed
 1273 00b8 00000000 		.word	Motor_Left_SetDirection
 1274 00bc 00000000 		.word	Motor_Left_SetDuty
 1275 00c0 00000000 		.word	Motor_Left_Stop
 1276 00c4 00000000 		.word	Motor_Left_Brake
 1277              		.cfi_endproc
 1278              	.LFE141:
 1280              		.section	.text.Motor_StopAll,"ax",%progbits
 1281              		.align	1
 1282              		.global	Motor_StopAll
 1283              		.syntax unified
 1284              		.thumb
 1285              		.thumb_func
 1287              	Motor_StopAll:
 1288              	.LFB143:
 590:MyHardWare/Src/motor.c **** 
 591:MyHardWare/Src/motor.c **** /**
 592:MyHardWare/Src/motor.c ****  * @brief 电机驱动去初始化
 593:MyHardWare/Src/motor.c ****  */
 594:MyHardWare/Src/motor.c **** void Motor_Driver_DeInit(void)
 595:MyHardWare/Src/motor.c **** {
 596:MyHardWare/Src/motor.c ****     Motor_StopAll();
 597:MyHardWare/Src/motor.c ****     TIM_Cmd(TIM1, DISABLE);
 598:MyHardWare/Src/motor.c ****     TIM_CtrlPWMOutputs(TIM1, DISABLE);
 599:MyHardWare/Src/motor.c **** #ifdef QUAD_MOTOR_DRIVE
ARM GAS  /tmp/ccZenB3o.s 			page 36


 600:MyHardWare/Src/motor.c ****     TIM_Cmd(TIM8, DISABLE);
 601:MyHardWare/Src/motor.c ****     TIM_CtrlPWMOutputs(TIM8, DISABLE);
 602:MyHardWare/Src/motor.c **** #endif
 603:MyHardWare/Src/motor.c **** }
 604:MyHardWare/Src/motor.c **** 
 605:MyHardWare/Src/motor.c **** /**
 606:MyHardWare/Src/motor.c ****  * @brief 停止所有电机
 607:MyHardWare/Src/motor.c ****  */
 608:MyHardWare/Src/motor.c **** void Motor_StopAll(void)
 609:MyHardWare/Src/motor.c **** {
 1289              		.loc 1 609 1 is_stmt 1 view -0
 1290              		.cfi_startproc
 1291              		@ args = 0, pretend = 0, frame = 0
 1292              		@ frame_needed = 0, uses_anonymous_args = 0
 1293 0000 08B5     		push	{r3, lr}
 1294              	.LCFI25:
 1295              		.cfi_def_cfa_offset 8
 1296              		.cfi_offset 3, -8
 1297              		.cfi_offset 14, -4
 610:MyHardWare/Src/motor.c **** #ifdef QUAD_MOTOR_DRIVE
 611:MyHardWare/Src/motor.c ****     Motor_FR.Stop();
 612:MyHardWare/Src/motor.c ****     Motor_FL.Stop();
 613:MyHardWare/Src/motor.c ****     Motor_BR.Stop();
 614:MyHardWare/Src/motor.c ****     Motor_BL.Stop();
 615:MyHardWare/Src/motor.c **** #else
 616:MyHardWare/Src/motor.c ****     Motor_Right.Stop();
 1298              		.loc 1 616 5 view .LVU297
 1299              		.loc 1 616 16 is_stmt 0 view .LVU298
 1300 0002 034B     		ldr	r3, .L101
 1301 0004 1B6A     		ldr	r3, [r3, #32]
 1302              		.loc 1 616 5 view .LVU299
 1303 0006 9847     		blx	r3
 1304              	.LVL109:
 617:MyHardWare/Src/motor.c ****     Motor_Left.Stop();
 1305              		.loc 1 617 5 is_stmt 1 view .LVU300
 1306              		.loc 1 617 15 is_stmt 0 view .LVU301
 1307 0008 024B     		ldr	r3, .L101+4
 1308 000a 1B6A     		ldr	r3, [r3, #32]
 1309              		.loc 1 617 5 view .LVU302
 1310 000c 9847     		blx	r3
 1311              	.LVL110:
 618:MyHardWare/Src/motor.c **** #endif
 619:MyHardWare/Src/motor.c **** }
 1312              		.loc 1 619 1 view .LVU303
 1313 000e 08BD     		pop	{r3, pc}
 1314              	.L102:
 1315              		.align	2
 1316              	.L101:
 1317 0010 00000000 		.word	Motor_Right
 1318 0014 00000000 		.word	Motor_Left
 1319              		.cfi_endproc
 1320              	.LFE143:
 1322              		.section	.text.Motor_Driver_DeInit,"ax",%progbits
 1323              		.align	1
 1324              		.global	Motor_Driver_DeInit
 1325              		.syntax unified
 1326              		.thumb
ARM GAS  /tmp/ccZenB3o.s 			page 37


 1327              		.thumb_func
 1329              	Motor_Driver_DeInit:
 1330              	.LFB142:
 595:MyHardWare/Src/motor.c ****     Motor_StopAll();
 1331              		.loc 1 595 1 is_stmt 1 view -0
 1332              		.cfi_startproc
 1333              		@ args = 0, pretend = 0, frame = 0
 1334              		@ frame_needed = 0, uses_anonymous_args = 0
 1335 0000 10B5     		push	{r4, lr}
 1336              	.LCFI26:
 1337              		.cfi_def_cfa_offset 8
 1338              		.cfi_offset 4, -8
 1339              		.cfi_offset 14, -4
 596:MyHardWare/Src/motor.c ****     TIM_Cmd(TIM1, DISABLE);
 1340              		.loc 1 596 5 view .LVU305
 1341 0002 FFF7FEFF 		bl	Motor_StopAll
 1342              	.LVL111:
 597:MyHardWare/Src/motor.c ****     TIM_CtrlPWMOutputs(TIM1, DISABLE);
 1343              		.loc 1 597 5 view .LVU306
 1344 0006 054C     		ldr	r4, .L105
 1345 0008 0021     		movs	r1, #0
 1346 000a 2046     		mov	r0, r4
 1347 000c FFF7FEFF 		bl	TIM_Cmd
 1348              	.LVL112:
 598:MyHardWare/Src/motor.c **** #ifdef QUAD_MOTOR_DRIVE
 1349              		.loc 1 598 5 view .LVU307
 1350 0010 0021     		movs	r1, #0
 1351 0012 2046     		mov	r0, r4
 1352 0014 FFF7FEFF 		bl	TIM_CtrlPWMOutputs
 1353              	.LVL113:
 603:MyHardWare/Src/motor.c **** 
 1354              		.loc 1 603 1 is_stmt 0 view .LVU308
 1355 0018 10BD     		pop	{r4, pc}
 1356              	.L106:
 1357 001a 00BF     		.align	2
 1358              	.L105:
 1359 001c 00000140 		.word	1073807360
 1360              		.cfi_endproc
 1361              	.LFE142:
 1363              		.section	.text.Motor_BrakeAll,"ax",%progbits
 1364              		.align	1
 1365              		.global	Motor_BrakeAll
 1366              		.syntax unified
 1367              		.thumb
 1368              		.thumb_func
 1370              	Motor_BrakeAll:
 1371              	.LFB144:
 620:MyHardWare/Src/motor.c **** 
 621:MyHardWare/Src/motor.c **** /**
 622:MyHardWare/Src/motor.c ****  * @brief 刹车所有电机
 623:MyHardWare/Src/motor.c ****  */
 624:MyHardWare/Src/motor.c **** void Motor_BrakeAll(void)
 625:MyHardWare/Src/motor.c **** {
 1372              		.loc 1 625 1 is_stmt 1 view -0
 1373              		.cfi_startproc
 1374              		@ args = 0, pretend = 0, frame = 0
 1375              		@ frame_needed = 0, uses_anonymous_args = 0
ARM GAS  /tmp/ccZenB3o.s 			page 38


 1376 0000 08B5     		push	{r3, lr}
 1377              	.LCFI27:
 1378              		.cfi_def_cfa_offset 8
 1379              		.cfi_offset 3, -8
 1380              		.cfi_offset 14, -4
 626:MyHardWare/Src/motor.c **** #ifdef QUAD_MOTOR_DRIVE
 627:MyHardWare/Src/motor.c ****     Motor_FR.Brake();
 628:MyHardWare/Src/motor.c ****     Motor_FL.Brake();
 629:MyHardWare/Src/motor.c ****     Motor_BR.Brake();
 630:MyHardWare/Src/motor.c ****     Motor_BL.Brake();
 631:MyHardWare/Src/motor.c **** #else
 632:MyHardWare/Src/motor.c ****     Motor_Right.Brake();
 1381              		.loc 1 632 5 view .LVU310
 1382              		.loc 1 632 16 is_stmt 0 view .LVU311
 1383 0002 034B     		ldr	r3, .L109
 1384 0004 5B6A     		ldr	r3, [r3, #36]
 1385              		.loc 1 632 5 view .LVU312
 1386 0006 9847     		blx	r3
 1387              	.LVL114:
 633:MyHardWare/Src/motor.c ****     Motor_Left.Brake();
 1388              		.loc 1 633 5 is_stmt 1 view .LVU313
 1389              		.loc 1 633 15 is_stmt 0 view .LVU314
 1390 0008 024B     		ldr	r3, .L109+4
 1391 000a 5B6A     		ldr	r3, [r3, #36]
 1392              		.loc 1 633 5 view .LVU315
 1393 000c 9847     		blx	r3
 1394              	.LVL115:
 634:MyHardWare/Src/motor.c **** #endif
 635:MyHardWare/Src/motor.c **** }
 1395              		.loc 1 635 1 view .LVU316
 1396 000e 08BD     		pop	{r3, pc}
 1397              	.L110:
 1398              		.align	2
 1399              	.L109:
 1400 0010 00000000 		.word	Motor_Right
 1401 0014 00000000 		.word	Motor_Left
 1402              		.cfi_endproc
 1403              	.LFE144:
 1405              		.section	.text.Motor_StartTimers,"ax",%progbits
 1406              		.align	1
 1407              		.global	Motor_StartTimers
 1408              		.syntax unified
 1409              		.thumb
 1410              		.thumb_func
 1412              	Motor_StartTimers:
 1413              	.LFB145:
 636:MyHardWare/Src/motor.c **** 
 637:MyHardWare/Src/motor.c **** /**
 638:MyHardWare/Src/motor.c ****  * @brief 启动所有电机定时器
 639:MyHardWare/Src/motor.c ****  */
 640:MyHardWare/Src/motor.c **** void Motor_StartTimers(void)
 641:MyHardWare/Src/motor.c **** {
 1414              		.loc 1 641 1 is_stmt 1 view -0
 1415              		.cfi_startproc
 1416              		@ args = 0, pretend = 0, frame = 0
 1417              		@ frame_needed = 0, uses_anonymous_args = 0
 1418 0000 10B5     		push	{r4, lr}
ARM GAS  /tmp/ccZenB3o.s 			page 39


 1419              	.LCFI28:
 1420              		.cfi_def_cfa_offset 8
 1421              		.cfi_offset 4, -8
 1422              		.cfi_offset 14, -4
 642:MyHardWare/Src/motor.c ****     TIM_CtrlPWMOutputs(TIM1, ENABLE);
 1423              		.loc 1 642 5 view .LVU318
 1424 0002 054C     		ldr	r4, .L113
 1425 0004 0121     		movs	r1, #1
 1426 0006 2046     		mov	r0, r4
 1427 0008 FFF7FEFF 		bl	TIM_CtrlPWMOutputs
 1428              	.LVL116:
 643:MyHardWare/Src/motor.c ****     TIM_Cmd(TIM1, ENABLE);
 1429              		.loc 1 643 5 view .LVU319
 1430 000c 0121     		movs	r1, #1
 1431 000e 2046     		mov	r0, r4
 1432 0010 FFF7FEFF 		bl	TIM_Cmd
 1433              	.LVL117:
 644:MyHardWare/Src/motor.c **** #ifdef QUAD_MOTOR_DRIVE
 645:MyHardWare/Src/motor.c ****     TIM_CtrlPWMOutputs(TIM8, ENABLE);
 646:MyHardWare/Src/motor.c ****     TIM_Cmd(TIM8, ENABLE);
 647:MyHardWare/Src/motor.c **** #endif
 648:MyHardWare/Src/motor.c **** }
 1434              		.loc 1 648 1 is_stmt 0 view .LVU320
 1435 0014 10BD     		pop	{r4, pc}
 1436              	.L114:
 1437 0016 00BF     		.align	2
 1438              	.L113:
 1439 0018 00000140 		.word	1073807360
 1440              		.cfi_endproc
 1441              	.LFE145:
 1443              		.section	.text.Motor_StopTimers,"ax",%progbits
 1444              		.align	1
 1445              		.global	Motor_StopTimers
 1446              		.syntax unified
 1447              		.thumb
 1448              		.thumb_func
 1450              	Motor_StopTimers:
 1451              	.LFB146:
 649:MyHardWare/Src/motor.c **** 
 650:MyHardWare/Src/motor.c **** /**
 651:MyHardWare/Src/motor.c ****  * @brief 停止所有电机定时器
 652:MyHardWare/Src/motor.c ****  */
 653:MyHardWare/Src/motor.c **** void Motor_StopTimers(void)
 654:MyHardWare/Src/motor.c **** {
 1452              		.loc 1 654 1 is_stmt 1 view -0
 1453              		.cfi_startproc
 1454              		@ args = 0, pretend = 0, frame = 0
 1455              		@ frame_needed = 0, uses_anonymous_args = 0
 1456 0000 10B5     		push	{r4, lr}
 1457              	.LCFI29:
 1458              		.cfi_def_cfa_offset 8
 1459              		.cfi_offset 4, -8
 1460              		.cfi_offset 14, -4
 655:MyHardWare/Src/motor.c ****     TIM_CtrlPWMOutputs(TIM1, DISABLE);
 1461              		.loc 1 655 5 view .LVU322
 1462 0002 054C     		ldr	r4, .L117
 1463 0004 0021     		movs	r1, #0
ARM GAS  /tmp/ccZenB3o.s 			page 40


 1464 0006 2046     		mov	r0, r4
 1465 0008 FFF7FEFF 		bl	TIM_CtrlPWMOutputs
 1466              	.LVL118:
 656:MyHardWare/Src/motor.c ****     TIM_Cmd(TIM1, DISABLE);
 1467              		.loc 1 656 5 view .LVU323
 1468 000c 0021     		movs	r1, #0
 1469 000e 2046     		mov	r0, r4
 1470 0010 FFF7FEFF 		bl	TIM_Cmd
 1471              	.LVL119:
 657:MyHardWare/Src/motor.c **** #ifdef QUAD_MOTOR_DRIVE
 658:MyHardWare/Src/motor.c ****     TIM_CtrlPWMOutputs(TIM8, DISABLE);
 659:MyHardWare/Src/motor.c ****     TIM_Cmd(TIM8, DISABLE);
 660:MyHardWare/Src/motor.c **** #endif
 661:MyHardWare/Src/motor.c **** }
 1472              		.loc 1 661 1 is_stmt 0 view .LVU324
 1473 0014 10BD     		pop	{r4, pc}
 1474              	.L118:
 1475 0016 00BF     		.align	2
 1476              	.L117:
 1477 0018 00000140 		.word	1073807360
 1478              		.cfi_endproc
 1479              	.LFE146:
 1481              		.global	Motor_Left
 1482              		.section	.bss.Motor_Left,"aw",%nobits
 1483              		.align	2
 1486              	Motor_Left:
 1487 0000 00000000 		.space	40
 1487      00000000 
 1487      00000000 
 1487      00000000 
 1487      00000000 
 1488              		.global	Motor_Right
 1489              		.section	.bss.Motor_Right,"aw",%nobits
 1490              		.align	2
 1493              	Motor_Right:
 1494 0000 00000000 		.space	40
 1494      00000000 
 1494      00000000 
 1494      00000000 
 1494      00000000 
 1495              		.text
 1496              	.Letext0:
 1497              		.file 2 "/usr/lib/gcc/arm-none-eabi/13.2.1/include/stdint.h"
 1498              		.file 3 "CMSIS/stm32f4xx.h"
 1499              		.file 4 "Lib/StdPeriphs/inc/stm32f4xx_gpio.h"
 1500              		.file 5 "Lib/StdPeriphs/inc/stm32f4xx_tim.h"
 1501              		.file 6 "MyHardWare/Inc/motor.h"
 1502              		.file 7 "Lib/StdPeriphs/inc/stm32f4xx_rcc.h"
ARM GAS  /tmp/ccZenB3o.s 			page 41


DEFINED SYMBOLS
                            *ABS*:00000000 motor.c
     /tmp/ccZenB3o.s:21     .text.Motor_Instance_SetSpeed:00000000 $t
     /tmp/ccZenB3o.s:26     .text.Motor_Instance_SetSpeed:00000000 Motor_Instance_SetSpeed
     /tmp/ccZenB3o.s:123    .text.Motor_Instance_SetSpeed:00000048 $d
     /tmp/ccZenB3o.s:128    .text.Motor_Right_DeInit:00000000 $t
     /tmp/ccZenB3o.s:133    .text.Motor_Right_DeInit:00000000 Motor_Right_DeInit
     /tmp/ccZenB3o.s:150    .text.Motor_Right_DeInit:00000008 $d
     /tmp/ccZenB3o.s:1493   .bss.Motor_Right:00000000 Motor_Right
     /tmp/ccZenB3o.s:155    .text.Motor_Right_SetSpeed:00000000 $t
     /tmp/ccZenB3o.s:160    .text.Motor_Right_SetSpeed:00000000 Motor_Right_SetSpeed
     /tmp/ccZenB3o.s:185    .text.Motor_Right_SetSpeed:0000000c $d
     /tmp/ccZenB3o.s:190    .text.Motor_Left_DeInit:00000000 $t
     /tmp/ccZenB3o.s:195    .text.Motor_Left_DeInit:00000000 Motor_Left_DeInit
     /tmp/ccZenB3o.s:212    .text.Motor_Left_DeInit:00000008 $d
     /tmp/ccZenB3o.s:1486   .bss.Motor_Left:00000000 Motor_Left
     /tmp/ccZenB3o.s:217    .text.Motor_Left_SetSpeed:00000000 $t
     /tmp/ccZenB3o.s:222    .text.Motor_Left_SetSpeed:00000000 Motor_Left_SetSpeed
     /tmp/ccZenB3o.s:247    .text.Motor_Left_SetSpeed:0000000c $d
     /tmp/ccZenB3o.s:252    .text.Motor_Left_SetDuty:00000000 $t
     /tmp/ccZenB3o.s:257    .text.Motor_Left_SetDuty:00000000 Motor_Left_SetDuty
     /tmp/ccZenB3o.s:289    .text.Motor_Left_SetDuty:00000018 $d
     /tmp/ccZenB3o.s:294    .text.Motor_Left_SetDirection:00000000 $t
     /tmp/ccZenB3o.s:299    .text.Motor_Left_SetDirection:00000000 Motor_Left_SetDirection
     /tmp/ccZenB3o.s:317    .text.Motor_Left_SetDirection:0000000a $d
     /tmp/ccZenB3o.s:321    .text.Motor_Left_SetDirection:0000000e $t
     /tmp/ccZenB3o.s:383    .text.Motor_Left_SetDirection:00000058 $d
     /tmp/ccZenB3o.s:388    .text.Motor_Left_Brake:00000000 $t
     /tmp/ccZenB3o.s:393    .text.Motor_Left_Brake:00000000 Motor_Left_Brake
     /tmp/ccZenB3o.s:418    .text.Motor_Left_Stop:00000000 $t
     /tmp/ccZenB3o.s:423    .text.Motor_Left_Stop:00000000 Motor_Left_Stop
     /tmp/ccZenB3o.s:448    .text.Motor_Right_SetDirection:00000000 $t
     /tmp/ccZenB3o.s:453    .text.Motor_Right_SetDirection:00000000 Motor_Right_SetDirection
     /tmp/ccZenB3o.s:471    .text.Motor_Right_SetDirection:0000000a $d
     /tmp/ccZenB3o.s:475    .text.Motor_Right_SetDirection:0000000e $t
     /tmp/ccZenB3o.s:537    .text.Motor_Right_SetDirection:00000058 $d
     /tmp/ccZenB3o.s:542    .text.Motor_GPIO_Init:00000000 $t
     /tmp/ccZenB3o.s:547    .text.Motor_GPIO_Init:00000000 Motor_GPIO_Init
     /tmp/ccZenB3o.s:736    .text.Motor_GPIO_Init:000000ec $d
     /tmp/ccZenB3o.s:741    .text.Motor_Left_Init:00000000 $t
     /tmp/ccZenB3o.s:746    .text.Motor_Left_Init:00000000 Motor_Left_Init
     /tmp/ccZenB3o.s:771    .text.Motor_Left_Init:00000010 $d
     /tmp/ccZenB3o.s:776    .text.Motor_Right_Init:00000000 $t
     /tmp/ccZenB3o.s:781    .text.Motor_Right_Init:00000000 Motor_Right_Init
     /tmp/ccZenB3o.s:806    .text.Motor_Right_Init:00000010 $d
     /tmp/ccZenB3o.s:811    .text.Motor_Right_SetDuty:00000000 $t
     /tmp/ccZenB3o.s:816    .text.Motor_Right_SetDuty:00000000 Motor_Right_SetDuty
     /tmp/ccZenB3o.s:848    .text.Motor_Right_SetDuty:00000018 $d
     /tmp/ccZenB3o.s:853    .text.Motor_Right_Brake:00000000 $t
     /tmp/ccZenB3o.s:858    .text.Motor_Right_Brake:00000000 Motor_Right_Brake
     /tmp/ccZenB3o.s:883    .text.Motor_Right_Stop:00000000 $t
     /tmp/ccZenB3o.s:888    .text.Motor_Right_Stop:00000000 Motor_Right_Stop
     /tmp/ccZenB3o.s:913    .text.Motor_TIM_Init:00000000 $t
     /tmp/ccZenB3o.s:918    .text.Motor_TIM_Init:00000000 Motor_TIM_Init
     /tmp/ccZenB3o.s:979    .text.Motor_TIM_Channel_Init:00000000 $t
     /tmp/ccZenB3o.s:984    .text.Motor_TIM_Channel_Init:00000000 Motor_TIM_Channel_Init
     /tmp/ccZenB3o.s:1035   .text.Motor_TIM_Channel_Init:00000034 $d
ARM GAS  /tmp/ccZenB3o.s 			page 42


     /tmp/ccZenB3o.s:1122   .text.Motor_Driver_Init:00000000 $t
     /tmp/ccZenB3o.s:1128   .text.Motor_Driver_Init:00000000 Motor_Driver_Init
     /tmp/ccZenB3o.s:1260   .text.Motor_Driver_Init:00000084 $d
     /tmp/ccZenB3o.s:1281   .text.Motor_StopAll:00000000 $t
     /tmp/ccZenB3o.s:1287   .text.Motor_StopAll:00000000 Motor_StopAll
     /tmp/ccZenB3o.s:1317   .text.Motor_StopAll:00000010 $d
     /tmp/ccZenB3o.s:1323   .text.Motor_Driver_DeInit:00000000 $t
     /tmp/ccZenB3o.s:1329   .text.Motor_Driver_DeInit:00000000 Motor_Driver_DeInit
     /tmp/ccZenB3o.s:1359   .text.Motor_Driver_DeInit:0000001c $d
     /tmp/ccZenB3o.s:1364   .text.Motor_BrakeAll:00000000 $t
     /tmp/ccZenB3o.s:1370   .text.Motor_BrakeAll:00000000 Motor_BrakeAll
     /tmp/ccZenB3o.s:1400   .text.Motor_BrakeAll:00000010 $d
     /tmp/ccZenB3o.s:1406   .text.Motor_StartTimers:00000000 $t
     /tmp/ccZenB3o.s:1412   .text.Motor_StartTimers:00000000 Motor_StartTimers
     /tmp/ccZenB3o.s:1439   .text.Motor_StartTimers:00000018 $d
     /tmp/ccZenB3o.s:1444   .text.Motor_StopTimers:00000000 $t
     /tmp/ccZenB3o.s:1450   .text.Motor_StopTimers:00000000 Motor_StopTimers
     /tmp/ccZenB3o.s:1477   .text.Motor_StopTimers:00000018 $d
     /tmp/ccZenB3o.s:1483   .bss.Motor_Left:00000000 $d
     /tmp/ccZenB3o.s:1490   .bss.Motor_Right:00000000 $d
     /tmp/ccZenB3o.s:1048   .text.Motor_TIM_Channel_Init:00000041 $d
     /tmp/ccZenB3o.s:1048   .text.Motor_TIM_Channel_Init:00000042 $t

UNDEFINED SYMBOLS
TIM_SetCompare2
GPIO_SetBits
GPIO_ResetBits
RCC_AHB1PeriphClockCmd
GPIO_Init
GPIO_PinAFConfig
TIM_SetCompare1
RCC_APB2PeriphClockCmd
TIM_TimeBaseInit
TIM_ARRPreloadConfig
TIM_OC1Init
TIM_OC1PreloadConfig
TIM_OC2Init
TIM_OC2PreloadConfig
TIM_OC3Init
TIM_OC3PreloadConfig
TIM_OC4Init
TIM_OC4PreloadConfig
TIM_CtrlPWMOutputs
TIM_Cmd
