ARM GAS  C:\Users\asus\AppData\Local\Temp\ccRDJV5h.s 			page 1


   1              		.cpu cortex-m4
   2              		.arch armv7e-m
   3              		.fpu fpv4-sp-d16
   4              		.eabi_attribute 27, 1
   5              		.eabi_attribute 28, 1
   6              		.eabi_attribute 20, 1
   7              		.eabi_attribute 21, 1
   8              		.eabi_attribute 23, 3
   9              		.eabi_attribute 24, 1
  10              		.eabi_attribute 25, 1
  11              		.eabi_attribute 26, 1
  12              		.eabi_attribute 30, 1
  13              		.eabi_attribute 34, 1
  14              		.eabi_attribute 18, 4
  15              		.file	"myiic.c"
  16              		.text
  17              	.Ltext0:
  18              		.cfi_sections	.debug_frame
  19              		.file 1 "MyHardWare/Src/myiic.c"
  20              		.section	.text.IIC_Init,"ax",%progbits
  21              		.align	1
  22              		.global	IIC_Init
  23              		.syntax unified
  24              		.thumb
  25              		.thumb_func
  27              	IIC_Init:
  28              	.LFB123:
   1:MyHardWare/Src/myiic.c **** #include "myiic.h"
   2:MyHardWare/Src/myiic.c **** #include "delay.h"
   3:MyHardWare/Src/myiic.c **** #include "stm32f4xx_gpio.h"
   4:MyHardWare/Src/myiic.c **** //////////////////////////////////////////////////////////////////////////////////
   5:MyHardWare/Src/myiic.c **** // 本程序只供学习使用，未经作者许可，不得用于其它任何用途
   6:MyHardWare/Src/myiic.c **** // ALIENTEK STM32F407开发板
   7:MyHardWare/Src/myiic.c **** // IIC 驱动代码
   8:MyHardWare/Src/myiic.c **** // 正点原子@ALIENTEK
   9:MyHardWare/Src/myiic.c **** // 技术论坛:www.openedv.com
  10:MyHardWare/Src/myiic.c **** // 创建日期:2014/5/6
  11:MyHardWare/Src/myiic.c **** // 版本：V1.0
  12:MyHardWare/Src/myiic.c **** // 版权所有，盗版必究。
  13:MyHardWare/Src/myiic.c **** // Copyright(C) 广州市星翼电子科技有限公司 2014-2024
  14:MyHardWare/Src/myiic.c **** // All rights reserved
  15:MyHardWare/Src/myiic.c **** //////////////////////////////////////////////////////////////////////////////////
  16:MyHardWare/Src/myiic.c **** 
  17:MyHardWare/Src/myiic.c **** // 初始化IIC
  18:MyHardWare/Src/myiic.c **** void IIC_Init(void) {
  29              		.loc 1 18 21 view -0
  30              		.cfi_startproc
  31              		@ args = 0, pretend = 0, frame = 8
  32              		@ frame_needed = 0, uses_anonymous_args = 0
  33 0000 10B5     		push	{r4, lr}
  34              	.LCFI0:
  35              		.cfi_def_cfa_offset 8
  36              		.cfi_offset 4, -8
  37              		.cfi_offset 14, -4
  38 0002 82B0     		sub	sp, sp, #8
  39              	.LCFI1:
  40              		.cfi_def_cfa_offset 16
ARM GAS  C:\Users\asus\AppData\Local\Temp\ccRDJV5h.s 			page 2


  19:MyHardWare/Src/myiic.c ****   GPIO_InitTypeDef GPIO_InitStructure;
  41              		.loc 1 19 3 view .LVU1
  20:MyHardWare/Src/myiic.c **** 
  21:MyHardWare/Src/myiic.c ****   RCC_AHB1PeriphClockCmd(RCC_AHB1Periph_GPIOB, ENABLE); // 使能GPIOB时钟
  42              		.loc 1 21 3 view .LVU2
  43 0004 0121     		movs	r1, #1
  44 0006 0220     		movs	r0, #2
  45 0008 FFF7FEFF 		bl	RCC_AHB1PeriphClockCmd
  46              	.LVL0:
  22:MyHardWare/Src/myiic.c **** 
  23:MyHardWare/Src/myiic.c ****   // GPIOB8,B9初始化设置
  24:MyHardWare/Src/myiic.c ****   GPIO_InitStructure.GPIO_Pin = GPIO_Pin_8 | GPIO_Pin_9;
  47              		.loc 1 24 3 view .LVU3
  48              		.loc 1 24 31 is_stmt 0 view .LVU4
  49 000c 4FF44073 		mov	r3, #768
  50 0010 0093     		str	r3, [sp]
  25:MyHardWare/Src/myiic.c ****   GPIO_InitStructure.GPIO_Mode = GPIO_Mode_OUT;      // 普通输出模式
  51              		.loc 1 25 3 is_stmt 1 view .LVU5
  52              		.loc 1 25 32 is_stmt 0 view .LVU6
  53 0012 0124     		movs	r4, #1
  54 0014 8DF80440 		strb	r4, [sp, #4]
  26:MyHardWare/Src/myiic.c ****   GPIO_InitStructure.GPIO_OType = GPIO_OType_OD;     // 推挽输出
  55              		.loc 1 26 3 is_stmt 1 view .LVU7
  56              		.loc 1 26 33 is_stmt 0 view .LVU8
  57 0018 8DF80640 		strb	r4, [sp, #6]
  27:MyHardWare/Src/myiic.c ****   GPIO_InitStructure.GPIO_Speed = GPIO_Speed_100MHz; // 100MHz
  58              		.loc 1 27 3 is_stmt 1 view .LVU9
  59              		.loc 1 27 33 is_stmt 0 view .LVU10
  60 001c 0323     		movs	r3, #3
  61 001e 8DF80530 		strb	r3, [sp, #5]
  28:MyHardWare/Src/myiic.c ****   GPIO_InitStructure.GPIO_PuPd = GPIO_PuPd_UP;       // 上拉
  62              		.loc 1 28 3 is_stmt 1 view .LVU11
  63              		.loc 1 28 32 is_stmt 0 view .LVU12
  64 0022 8DF80740 		strb	r4, [sp, #7]
  29:MyHardWare/Src/myiic.c ****   GPIO_Init(GPIOB, &GPIO_InitStructure);             // 初始化
  65              		.loc 1 29 3 is_stmt 1 view .LVU13
  66 0026 6946     		mov	r1, sp
  67 0028 0448     		ldr	r0, .L3
  68 002a FFF7FEFF 		bl	GPIO_Init
  69              	.LVL1:
  30:MyHardWare/Src/myiic.c ****   IIC_SCL = 1;
  70              		.loc 1 30 3 view .LVU14
  71              		.loc 1 30 11 is_stmt 0 view .LVU15
  72 002e 044B     		ldr	r3, .L3+4
  73 0030 C3F8A042 		str	r4, [r3, #672]
  31:MyHardWare/Src/myiic.c ****   IIC_SDA = 1;
  74              		.loc 1 31 3 is_stmt 1 view .LVU16
  75              		.loc 1 31 11 is_stmt 0 view .LVU17
  76 0034 C3F8A442 		str	r4, [r3, #676]
  32:MyHardWare/Src/myiic.c **** }
  77              		.loc 1 32 1 view .LVU18
  78 0038 02B0     		add	sp, sp, #8
  79              	.LCFI2:
  80              		.cfi_def_cfa_offset 8
  81              		@ sp needed
  82 003a 10BD     		pop	{r4, pc}
  83              	.L4:
ARM GAS  C:\Users\asus\AppData\Local\Temp\ccRDJV5h.s 			page 3


  84              		.align	2
  85              	.L3:
  86 003c 00040240 		.word	1073873920
  87 0040 00804042 		.word	1111523328
  88              		.cfi_endproc
  89              	.LFE123:
  91              		.section	.text.IIC_Start,"ax",%progbits
  92              		.align	1
  93              		.global	IIC_Start
  94              		.syntax unified
  95              		.thumb
  96              		.thumb_func
  98              	IIC_Start:
  99              	.LFB124:
  33:MyHardWare/Src/myiic.c **** // 产生IIC起始信号
  34:MyHardWare/Src/myiic.c **** void IIC_Start(void) {
 100              		.loc 1 34 22 is_stmt 1 view -0
 101              		.cfi_startproc
 102              		@ args = 0, pretend = 0, frame = 0
 103              		@ frame_needed = 0, uses_anonymous_args = 0
 104 0000 38B5     		push	{r3, r4, r5, lr}
 105              	.LCFI3:
 106              		.cfi_def_cfa_offset 16
 107              		.cfi_offset 3, -16
 108              		.cfi_offset 4, -12
 109              		.cfi_offset 5, -8
 110              		.cfi_offset 14, -4
  35:MyHardWare/Src/myiic.c ****   SDA_OUT(); // sda线输出
 111              		.loc 1 35 3 view .LVU20
 112 0002 0D4B     		ldr	r3, .L7
 113 0004 1A68     		ldr	r2, [r3]
 114 0006 22F44022 		bic	r2, r2, #786432
 115 000a 1A60     		str	r2, [r3]
 116              		.loc 1 35 3 view .LVU21
 117 000c 1A68     		ldr	r2, [r3]
 118 000e 42F48022 		orr	r2, r2, #262144
 119 0012 1A60     		str	r2, [r3]
 120              		.loc 1 35 12 view .LVU22
  36:MyHardWare/Src/myiic.c ****   IIC_SDA = 1;
 121              		.loc 1 36 3 view .LVU23
 122              		.loc 1 36 11 is_stmt 0 view .LVU24
 123 0014 094C     		ldr	r4, .L7+4
 124 0016 0123     		movs	r3, #1
 125 0018 C4F8A432 		str	r3, [r4, #676]
  37:MyHardWare/Src/myiic.c ****   IIC_SCL = 1;
 126              		.loc 1 37 3 is_stmt 1 view .LVU25
 127              		.loc 1 37 11 is_stmt 0 view .LVU26
 128 001c C4F8A032 		str	r3, [r4, #672]
  38:MyHardWare/Src/myiic.c ****   delay_us(4);
 129              		.loc 1 38 3 is_stmt 1 view .LVU27
 130 0020 0420     		movs	r0, #4
 131 0022 FFF7FEFF 		bl	delay_us
 132              	.LVL2:
  39:MyHardWare/Src/myiic.c ****   IIC_SDA = 0; // START:when CLK is high,DATA change form high to low
 133              		.loc 1 39 3 view .LVU28
 134              		.loc 1 39 11 is_stmt 0 view .LVU29
 135 0026 0025     		movs	r5, #0
ARM GAS  C:\Users\asus\AppData\Local\Temp\ccRDJV5h.s 			page 4


 136 0028 C4F8A452 		str	r5, [r4, #676]
  40:MyHardWare/Src/myiic.c ****   delay_us(4);
 137              		.loc 1 40 3 is_stmt 1 view .LVU30
 138 002c 0420     		movs	r0, #4
 139 002e FFF7FEFF 		bl	delay_us
 140              	.LVL3:
  41:MyHardWare/Src/myiic.c ****   IIC_SCL = 0; // 钳住I2C总线，准备发送或接收数据
 141              		.loc 1 41 3 view .LVU31
 142              		.loc 1 41 11 is_stmt 0 view .LVU32
 143 0032 C4F8A052 		str	r5, [r4, #672]
  42:MyHardWare/Src/myiic.c **** }
 144              		.loc 1 42 1 view .LVU33
 145 0036 38BD     		pop	{r3, r4, r5, pc}
 146              	.L8:
 147              		.align	2
 148              	.L7:
 149 0038 00040240 		.word	1073873920
 150 003c 00804042 		.word	1111523328
 151              		.cfi_endproc
 152              	.LFE124:
 154              		.section	.text.IIC_Stop,"ax",%progbits
 155              		.align	1
 156              		.global	IIC_Stop
 157              		.syntax unified
 158              		.thumb
 159              		.thumb_func
 161              	IIC_Stop:
 162              	.LFB125:
  43:MyHardWare/Src/myiic.c **** // 产生IIC停止信号
  44:MyHardWare/Src/myiic.c **** void IIC_Stop(void) {
 163              		.loc 1 44 21 is_stmt 1 view -0
 164              		.cfi_startproc
 165              		@ args = 0, pretend = 0, frame = 0
 166              		@ frame_needed = 0, uses_anonymous_args = 0
 167 0000 10B5     		push	{r4, lr}
 168              	.LCFI4:
 169              		.cfi_def_cfa_offset 8
 170              		.cfi_offset 4, -8
 171              		.cfi_offset 14, -4
  45:MyHardWare/Src/myiic.c ****   SDA_OUT(); // sda线输出
 172              		.loc 1 45 3 view .LVU35
 173 0002 0D4B     		ldr	r3, .L11
 174 0004 1A68     		ldr	r2, [r3]
 175 0006 22F44022 		bic	r2, r2, #786432
 176 000a 1A60     		str	r2, [r3]
 177              		.loc 1 45 3 view .LVU36
 178 000c 1A68     		ldr	r2, [r3]
 179 000e 42F48022 		orr	r2, r2, #262144
 180 0012 1A60     		str	r2, [r3]
 181              		.loc 1 45 12 view .LVU37
  46:MyHardWare/Src/myiic.c ****   IIC_SCL = 0;
 182              		.loc 1 46 3 view .LVU38
 183              		.loc 1 46 11 is_stmt 0 view .LVU39
 184 0014 094C     		ldr	r4, .L11+4
 185 0016 0023     		movs	r3, #0
 186 0018 C4F8A032 		str	r3, [r4, #672]
  47:MyHardWare/Src/myiic.c ****   IIC_SDA = 0; // STOP:when CLK is high DATA change form low to high
ARM GAS  C:\Users\asus\AppData\Local\Temp\ccRDJV5h.s 			page 5


 187              		.loc 1 47 3 is_stmt 1 view .LVU40
 188              		.loc 1 47 11 is_stmt 0 view .LVU41
 189 001c C4F8A432 		str	r3, [r4, #676]
  48:MyHardWare/Src/myiic.c ****   delay_us(4);
 190              		.loc 1 48 3 is_stmt 1 view .LVU42
 191 0020 0420     		movs	r0, #4
 192 0022 FFF7FEFF 		bl	delay_us
 193              	.LVL4:
  49:MyHardWare/Src/myiic.c ****   IIC_SCL = 1;
 194              		.loc 1 49 3 view .LVU43
 195              		.loc 1 49 11 is_stmt 0 view .LVU44
 196 0026 0123     		movs	r3, #1
 197 0028 C4F8A032 		str	r3, [r4, #672]
  50:MyHardWare/Src/myiic.c ****   IIC_SDA = 1; // 发送I2C总线结束信号
 198              		.loc 1 50 3 is_stmt 1 view .LVU45
 199              		.loc 1 50 11 is_stmt 0 view .LVU46
 200 002c C4F8A432 		str	r3, [r4, #676]
  51:MyHardWare/Src/myiic.c ****   delay_us(4);
 201              		.loc 1 51 3 is_stmt 1 view .LVU47
 202 0030 0420     		movs	r0, #4
 203 0032 FFF7FEFF 		bl	delay_us
 204              	.LVL5:
  52:MyHardWare/Src/myiic.c **** }
 205              		.loc 1 52 1 is_stmt 0 view .LVU48
 206 0036 10BD     		pop	{r4, pc}
 207              	.L12:
 208              		.align	2
 209              	.L11:
 210 0038 00040240 		.word	1073873920
 211 003c 00804042 		.word	1111523328
 212              		.cfi_endproc
 213              	.LFE125:
 215              		.section	.text.IIC_Wait_Ack,"ax",%progbits
 216              		.align	1
 217              		.global	IIC_Wait_Ack
 218              		.syntax unified
 219              		.thumb
 220              		.thumb_func
 222              	IIC_Wait_Ack:
 223              	.LFB126:
  53:MyHardWare/Src/myiic.c **** // 等待应答信号到来
  54:MyHardWare/Src/myiic.c **** // 返回值：1，接收应答失败
  55:MyHardWare/Src/myiic.c **** //         0，接收应答成功
  56:MyHardWare/Src/myiic.c **** u8 IIC_Wait_Ack(void) {
 224              		.loc 1 56 23 is_stmt 1 view -0
 225              		.cfi_startproc
 226              		@ args = 0, pretend = 0, frame = 0
 227              		@ frame_needed = 0, uses_anonymous_args = 0
 228 0000 38B5     		push	{r3, r4, r5, lr}
 229              	.LCFI5:
 230              		.cfi_def_cfa_offset 16
 231              		.cfi_offset 3, -16
 232              		.cfi_offset 4, -12
 233              		.cfi_offset 5, -8
 234              		.cfi_offset 14, -4
  57:MyHardWare/Src/myiic.c ****   u8 ucErrTime = 0;
 235              		.loc 1 57 3 view .LVU50
ARM GAS  C:\Users\asus\AppData\Local\Temp\ccRDJV5h.s 			page 6


 236              	.LVL6:
  58:MyHardWare/Src/myiic.c ****   SDA_IN(); // SDA设置为输入
 237              		.loc 1 58 3 view .LVU51
 238 0002 124B     		ldr	r3, .L19
 239 0004 1A68     		ldr	r2, [r3]
 240 0006 22F44022 		bic	r2, r2, #786432
 241 000a 1A60     		str	r2, [r3]
 242              		.loc 1 58 3 view .LVU52
 243 000c 1A68     		ldr	r2, [r3]
 244 000e 1A60     		str	r2, [r3]
 245              		.loc 1 58 11 view .LVU53
  59:MyHardWare/Src/myiic.c ****   IIC_SDA = 1;
 246              		.loc 1 59 3 view .LVU54
 247              		.loc 1 59 11 is_stmt 0 view .LVU55
 248 0010 0F4D     		ldr	r5, .L19+4
 249 0012 0124     		movs	r4, #1
 250 0014 C5F8A442 		str	r4, [r5, #676]
  60:MyHardWare/Src/myiic.c ****   delay_us(1);
 251              		.loc 1 60 3 is_stmt 1 view .LVU56
 252 0018 2046     		mov	r0, r4
 253 001a FFF7FEFF 		bl	delay_us
 254              	.LVL7:
  61:MyHardWare/Src/myiic.c ****   IIC_SCL = 1;
 255              		.loc 1 61 3 view .LVU57
 256              		.loc 1 61 11 is_stmt 0 view .LVU58
 257 001e C5F8A042 		str	r4, [r5, #672]
  62:MyHardWare/Src/myiic.c ****   delay_us(1);
 258              		.loc 1 62 3 is_stmt 1 view .LVU59
 259 0022 2046     		mov	r0, r4
 260 0024 FFF7FEFF 		bl	delay_us
 261              	.LVL8:
  63:MyHardWare/Src/myiic.c ****   while (READ_SDA) {
 262              		.loc 1 63 3 view .LVU60
  57:MyHardWare/Src/myiic.c ****   SDA_IN(); // SDA设置为输入
 263              		.loc 1 57 6 is_stmt 0 view .LVU61
 264 0028 0023     		movs	r3, #0
 265              	.LVL9:
 266              	.L14:
 267              		.loc 1 63 10 is_stmt 1 view .LVU62
 268 002a 094A     		ldr	r2, .L19+4
 269 002c D2F82422 		ldr	r2, [r2, #548]
 270 0030 3AB1     		cbz	r2, .L18
  64:MyHardWare/Src/myiic.c ****     ucErrTime++;
 271              		.loc 1 64 5 view .LVU63
 272              		.loc 1 64 14 is_stmt 0 view .LVU64
 273 0032 0133     		adds	r3, r3, #1
 274              	.LVL10:
 275              		.loc 1 64 14 view .LVU65
 276 0034 DBB2     		uxtb	r3, r3
 277              	.LVL11:
  65:MyHardWare/Src/myiic.c ****     if (ucErrTime > 250) {
 278              		.loc 1 65 5 is_stmt 1 view .LVU66
 279              		.loc 1 65 8 is_stmt 0 view .LVU67
 280 0036 FA2B     		cmp	r3, #250
 281 0038 F7D9     		bls	.L14
  66:MyHardWare/Src/myiic.c ****       IIC_Stop();
 282              		.loc 1 66 7 is_stmt 1 view .LVU68
ARM GAS  C:\Users\asus\AppData\Local\Temp\ccRDJV5h.s 			page 7


 283 003a FFF7FEFF 		bl	IIC_Stop
 284              	.LVL12:
  67:MyHardWare/Src/myiic.c ****       return 1;
 285              		.loc 1 67 7 view .LVU69
 286              		.loc 1 67 14 is_stmt 0 view .LVU70
 287 003e 0120     		movs	r0, #1
 288 0040 03E0     		b	.L15
 289              	.LVL13:
 290              	.L18:
  68:MyHardWare/Src/myiic.c ****     }
  69:MyHardWare/Src/myiic.c ****   }
  70:MyHardWare/Src/myiic.c ****   IIC_SCL = 0; // 时钟输出0
 291              		.loc 1 70 3 is_stmt 1 view .LVU71
 292              		.loc 1 70 11 is_stmt 0 view .LVU72
 293 0042 0020     		movs	r0, #0
 294 0044 024B     		ldr	r3, .L19+4
 295              	.LVL14:
 296              		.loc 1 70 11 view .LVU73
 297 0046 C3F8A002 		str	r0, [r3, #672]
  71:MyHardWare/Src/myiic.c ****   return 0;
 298              		.loc 1 71 3 is_stmt 1 view .LVU74
 299              	.LVL15:
 300              	.L15:
  72:MyHardWare/Src/myiic.c **** }
 301              		.loc 1 72 1 is_stmt 0 view .LVU75
 302 004a 38BD     		pop	{r3, r4, r5, pc}
 303              	.L20:
 304              		.align	2
 305              	.L19:
 306 004c 00040240 		.word	1073873920
 307 0050 00804042 		.word	1111523328
 308              		.cfi_endproc
 309              	.LFE126:
 311              		.section	.text.IIC_Ack,"ax",%progbits
 312              		.align	1
 313              		.global	IIC_Ack
 314              		.syntax unified
 315              		.thumb
 316              		.thumb_func
 318              	IIC_Ack:
 319              	.LFB127:
  73:MyHardWare/Src/myiic.c **** // 产生ACK应答
  74:MyHardWare/Src/myiic.c **** void IIC_Ack(void) {
 320              		.loc 1 74 20 is_stmt 1 view -0
 321              		.cfi_startproc
 322              		@ args = 0, pretend = 0, frame = 0
 323              		@ frame_needed = 0, uses_anonymous_args = 0
 324 0000 38B5     		push	{r3, r4, r5, lr}
 325              	.LCFI6:
 326              		.cfi_def_cfa_offset 16
 327              		.cfi_offset 3, -16
 328              		.cfi_offset 4, -12
 329              		.cfi_offset 5, -8
 330              		.cfi_offset 14, -4
  75:MyHardWare/Src/myiic.c ****   IIC_SCL = 0;
 331              		.loc 1 75 3 view .LVU77
 332              		.loc 1 75 11 is_stmt 0 view .LVU78
ARM GAS  C:\Users\asus\AppData\Local\Temp\ccRDJV5h.s 			page 8


 333 0002 0D4C     		ldr	r4, .L23
 334 0004 0025     		movs	r5, #0
 335 0006 C4F8A052 		str	r5, [r4, #672]
  76:MyHardWare/Src/myiic.c ****   SDA_OUT();
 336              		.loc 1 76 3 is_stmt 1 view .LVU79
 337 000a 0C4B     		ldr	r3, .L23+4
 338 000c 1A68     		ldr	r2, [r3]
 339 000e 22F44022 		bic	r2, r2, #786432
 340 0012 1A60     		str	r2, [r3]
 341              		.loc 1 76 3 view .LVU80
 342 0014 1A68     		ldr	r2, [r3]
 343 0016 42F48022 		orr	r2, r2, #262144
 344 001a 1A60     		str	r2, [r3]
 345              		.loc 1 76 12 view .LVU81
  77:MyHardWare/Src/myiic.c ****   IIC_SDA = 0;
 346              		.loc 1 77 3 view .LVU82
 347              		.loc 1 77 11 is_stmt 0 view .LVU83
 348 001c C4F8A452 		str	r5, [r4, #676]
  78:MyHardWare/Src/myiic.c ****   delay_us(2);
 349              		.loc 1 78 3 is_stmt 1 view .LVU84
 350 0020 0220     		movs	r0, #2
 351 0022 FFF7FEFF 		bl	delay_us
 352              	.LVL16:
  79:MyHardWare/Src/myiic.c ****   IIC_SCL = 1;
 353              		.loc 1 79 3 view .LVU85
 354              		.loc 1 79 11 is_stmt 0 view .LVU86
 355 0026 0123     		movs	r3, #1
 356 0028 C4F8A032 		str	r3, [r4, #672]
  80:MyHardWare/Src/myiic.c ****   delay_us(2);
 357              		.loc 1 80 3 is_stmt 1 view .LVU87
 358 002c 0220     		movs	r0, #2
 359 002e FFF7FEFF 		bl	delay_us
 360              	.LVL17:
  81:MyHardWare/Src/myiic.c ****   IIC_SCL = 0;
 361              		.loc 1 81 3 view .LVU88
 362              		.loc 1 81 11 is_stmt 0 view .LVU89
 363 0032 C4F8A052 		str	r5, [r4, #672]
  82:MyHardWare/Src/myiic.c **** }
 364              		.loc 1 82 1 view .LVU90
 365 0036 38BD     		pop	{r3, r4, r5, pc}
 366              	.L24:
 367              		.align	2
 368              	.L23:
 369 0038 00804042 		.word	1111523328
 370 003c 00040240 		.word	1073873920
 371              		.cfi_endproc
 372              	.LFE127:
 374              		.section	.text.IIC_NAck,"ax",%progbits
 375              		.align	1
 376              		.global	IIC_NAck
 377              		.syntax unified
 378              		.thumb
 379              		.thumb_func
 381              	IIC_NAck:
 382              	.LFB128:
  83:MyHardWare/Src/myiic.c **** // 不产生ACK应答
  84:MyHardWare/Src/myiic.c **** void IIC_NAck(void) {
ARM GAS  C:\Users\asus\AppData\Local\Temp\ccRDJV5h.s 			page 9


 383              		.loc 1 84 21 is_stmt 1 view -0
 384              		.cfi_startproc
 385              		@ args = 0, pretend = 0, frame = 0
 386              		@ frame_needed = 0, uses_anonymous_args = 0
 387 0000 70B5     		push	{r4, r5, r6, lr}
 388              	.LCFI7:
 389              		.cfi_def_cfa_offset 16
 390              		.cfi_offset 4, -16
 391              		.cfi_offset 5, -12
 392              		.cfi_offset 6, -8
 393              		.cfi_offset 14, -4
  85:MyHardWare/Src/myiic.c ****   IIC_SCL = 0;
 394              		.loc 1 85 3 view .LVU92
 395              		.loc 1 85 11 is_stmt 0 view .LVU93
 396 0002 0D4C     		ldr	r4, .L27
 397 0004 0025     		movs	r5, #0
 398 0006 C4F8A052 		str	r5, [r4, #672]
  86:MyHardWare/Src/myiic.c ****   SDA_OUT();
 399              		.loc 1 86 3 is_stmt 1 view .LVU94
 400 000a 0C4B     		ldr	r3, .L27+4
 401 000c 1A68     		ldr	r2, [r3]
 402 000e 22F44022 		bic	r2, r2, #786432
 403 0012 1A60     		str	r2, [r3]
 404              		.loc 1 86 3 view .LVU95
 405 0014 1A68     		ldr	r2, [r3]
 406 0016 42F48022 		orr	r2, r2, #262144
 407 001a 1A60     		str	r2, [r3]
 408              		.loc 1 86 12 view .LVU96
  87:MyHardWare/Src/myiic.c ****   IIC_SDA = 1;
 409              		.loc 1 87 3 view .LVU97
 410              		.loc 1 87 11 is_stmt 0 view .LVU98
 411 001c 0126     		movs	r6, #1
 412 001e C4F8A462 		str	r6, [r4, #676]
  88:MyHardWare/Src/myiic.c ****   delay_us(2);
 413              		.loc 1 88 3 is_stmt 1 view .LVU99
 414 0022 0220     		movs	r0, #2
 415 0024 FFF7FEFF 		bl	delay_us
 416              	.LVL18:
  89:MyHardWare/Src/myiic.c ****   IIC_SCL = 1;
 417              		.loc 1 89 3 view .LVU100
 418              		.loc 1 89 11 is_stmt 0 view .LVU101
 419 0028 C4F8A062 		str	r6, [r4, #672]
  90:MyHardWare/Src/myiic.c ****   delay_us(2);
 420              		.loc 1 90 3 is_stmt 1 view .LVU102
 421 002c 0220     		movs	r0, #2
 422 002e FFF7FEFF 		bl	delay_us
 423              	.LVL19:
  91:MyHardWare/Src/myiic.c ****   IIC_SCL = 0;
 424              		.loc 1 91 3 view .LVU103
 425              		.loc 1 91 11 is_stmt 0 view .LVU104
 426 0032 C4F8A052 		str	r5, [r4, #672]
  92:MyHardWare/Src/myiic.c **** }
 427              		.loc 1 92 1 view .LVU105
 428 0036 70BD     		pop	{r4, r5, r6, pc}
 429              	.L28:
 430              		.align	2
 431              	.L27:
ARM GAS  C:\Users\asus\AppData\Local\Temp\ccRDJV5h.s 			page 10


 432 0038 00804042 		.word	1111523328
 433 003c 00040240 		.word	1073873920
 434              		.cfi_endproc
 435              	.LFE128:
 437              		.section	.text.IIC_Send_Byte,"ax",%progbits
 438              		.align	1
 439              		.global	IIC_Send_Byte
 440              		.syntax unified
 441              		.thumb
 442              		.thumb_func
 444              	IIC_Send_Byte:
 445              	.LVL20:
 446              	.LFB129:
  93:MyHardWare/Src/myiic.c **** // IIC发送一个字节
  94:MyHardWare/Src/myiic.c **** // 返回从机有无应答
  95:MyHardWare/Src/myiic.c **** // 1，有应答
  96:MyHardWare/Src/myiic.c **** // 0，无应答
  97:MyHardWare/Src/myiic.c **** void IIC_Send_Byte(u8 txd) {
 447              		.loc 1 97 28 is_stmt 1 view -0
 448              		.cfi_startproc
 449              		@ args = 0, pretend = 0, frame = 0
 450              		@ frame_needed = 0, uses_anonymous_args = 0
 451              		.loc 1 97 28 is_stmt 0 view .LVU107
 452 0000 70B5     		push	{r4, r5, r6, lr}
 453              	.LCFI8:
 454              		.cfi_def_cfa_offset 16
 455              		.cfi_offset 4, -16
 456              		.cfi_offset 5, -12
 457              		.cfi_offset 6, -8
 458              		.cfi_offset 14, -4
 459 0002 0546     		mov	r5, r0
  98:MyHardWare/Src/myiic.c ****   u8 t;
 460              		.loc 1 98 3 is_stmt 1 view .LVU108
  99:MyHardWare/Src/myiic.c ****   SDA_OUT();
 461              		.loc 1 99 3 view .LVU109
 462 0004 134B     		ldr	r3, .L33
 463 0006 1A68     		ldr	r2, [r3]
 464 0008 22F44022 		bic	r2, r2, #786432
 465 000c 1A60     		str	r2, [r3]
 466              		.loc 1 99 3 view .LVU110
 467 000e 1A68     		ldr	r2, [r3]
 468 0010 42F48022 		orr	r2, r2, #262144
 469 0014 1A60     		str	r2, [r3]
 470              		.loc 1 99 12 view .LVU111
 100:MyHardWare/Src/myiic.c ****   IIC_SCL = 0; // 拉低时钟开始数据传输
 471              		.loc 1 100 3 view .LVU112
 472              		.loc 1 100 11 is_stmt 0 view .LVU113
 473 0016 0024     		movs	r4, #0
 474 0018 0F4B     		ldr	r3, .L33+4
 475 001a C3F8A042 		str	r4, [r3, #672]
 101:MyHardWare/Src/myiic.c ****   for (t = 0; t < 8; t++) {
 476              		.loc 1 101 3 is_stmt 1 view .LVU114
 477              	.LVL21:
 478              		.loc 1 101 3 is_stmt 0 view .LVU115
 479 001e 16E0     		b	.L30
 480              	.LVL22:
 481              	.L31:
ARM GAS  C:\Users\asus\AppData\Local\Temp\ccRDJV5h.s 			page 11


 102:MyHardWare/Src/myiic.c ****     IIC_SDA = (txd & 0x80) >> 7;
 482              		.loc 1 102 5 is_stmt 1 view .LVU116
 483              		.loc 1 102 28 is_stmt 0 view .LVU117
 484 0020 EB09     		lsrs	r3, r5, #7
 485              		.loc 1 102 13 view .LVU118
 486 0022 0D4E     		ldr	r6, .L33+4
 487 0024 C6F8A432 		str	r3, [r6, #676]
 103:MyHardWare/Src/myiic.c ****     txd <<= 1;
 488              		.loc 1 103 5 is_stmt 1 view .LVU119
 489              		.loc 1 103 9 is_stmt 0 view .LVU120
 490 0028 6D00     		lsls	r5, r5, #1
 491              	.LVL23:
 492              		.loc 1 103 9 view .LVU121
 493 002a EDB2     		uxtb	r5, r5
 494              	.LVL24:
 104:MyHardWare/Src/myiic.c ****     delay_us(2); // 对TEA5767这三个延时都是必须的
 495              		.loc 1 104 5 is_stmt 1 view .LVU122
 496 002c 0220     		movs	r0, #2
 497 002e FFF7FEFF 		bl	delay_us
 498              	.LVL25:
 105:MyHardWare/Src/myiic.c ****     IIC_SCL = 1;
 499              		.loc 1 105 5 view .LVU123
 500              		.loc 1 105 13 is_stmt 0 view .LVU124
 501 0032 0123     		movs	r3, #1
 502 0034 C6F8A032 		str	r3, [r6, #672]
 106:MyHardWare/Src/myiic.c ****     delay_us(2);
 503              		.loc 1 106 5 is_stmt 1 view .LVU125
 504 0038 0220     		movs	r0, #2
 505 003a FFF7FEFF 		bl	delay_us
 506              	.LVL26:
 107:MyHardWare/Src/myiic.c ****     IIC_SCL = 0;
 507              		.loc 1 107 5 view .LVU126
 508              		.loc 1 107 13 is_stmt 0 view .LVU127
 509 003e 0023     		movs	r3, #0
 510 0040 C6F8A032 		str	r3, [r6, #672]
 108:MyHardWare/Src/myiic.c ****     delay_us(2);
 511              		.loc 1 108 5 is_stmt 1 view .LVU128
 512 0044 0220     		movs	r0, #2
 513 0046 FFF7FEFF 		bl	delay_us
 514              	.LVL27:
 101:MyHardWare/Src/myiic.c ****     IIC_SDA = (txd & 0x80) >> 7;
 515              		.loc 1 101 23 discriminator 3 view .LVU129
 516 004a 0134     		adds	r4, r4, #1
 517              	.LVL28:
 101:MyHardWare/Src/myiic.c ****     IIC_SDA = (txd & 0x80) >> 7;
 518              		.loc 1 101 23 is_stmt 0 discriminator 3 view .LVU130
 519 004c E4B2     		uxtb	r4, r4
 520              	.LVL29:
 521              	.L30:
 101:MyHardWare/Src/myiic.c ****     IIC_SDA = (txd & 0x80) >> 7;
 522              		.loc 1 101 17 is_stmt 1 discriminator 1 view .LVU131
 523 004e 072C     		cmp	r4, #7
 524 0050 E6D9     		bls	.L31
 109:MyHardWare/Src/myiic.c ****   }
 110:MyHardWare/Src/myiic.c **** }
 525              		.loc 1 110 1 is_stmt 0 view .LVU132
 526 0052 70BD     		pop	{r4, r5, r6, pc}
ARM GAS  C:\Users\asus\AppData\Local\Temp\ccRDJV5h.s 			page 12


 527              	.LVL30:
 528              	.L34:
 529              		.loc 1 110 1 view .LVU133
 530              		.align	2
 531              	.L33:
 532 0054 00040240 		.word	1073873920
 533 0058 00804042 		.word	1111523328
 534              		.cfi_endproc
 535              	.LFE129:
 537              		.section	.text.IIC_Read_Byte,"ax",%progbits
 538              		.align	1
 539              		.global	IIC_Read_Byte
 540              		.syntax unified
 541              		.thumb
 542              		.thumb_func
 544              	IIC_Read_Byte:
 545              	.LVL31:
 546              	.LFB130:
 111:MyHardWare/Src/myiic.c **** // 读1个字节，ack=1时，发送ACK，ack=0，发送nACK
 112:MyHardWare/Src/myiic.c **** u8 IIC_Read_Byte(unsigned char ack) {
 547              		.loc 1 112 37 is_stmt 1 view -0
 548              		.cfi_startproc
 549              		@ args = 0, pretend = 0, frame = 0
 550              		@ frame_needed = 0, uses_anonymous_args = 0
 551              		.loc 1 112 37 is_stmt 0 view .LVU135
 552 0000 F8B5     		push	{r3, r4, r5, r6, r7, lr}
 553              	.LCFI9:
 554              		.cfi_def_cfa_offset 24
 555              		.cfi_offset 3, -24
 556              		.cfi_offset 4, -20
 557              		.cfi_offset 5, -16
 558              		.cfi_offset 6, -12
 559              		.cfi_offset 7, -8
 560              		.cfi_offset 14, -4
 561 0002 0746     		mov	r7, r0
 113:MyHardWare/Src/myiic.c ****   unsigned char i, receive = 0;
 562              		.loc 1 113 3 is_stmt 1 view .LVU136
 563              	.LVL32:
 114:MyHardWare/Src/myiic.c ****   SDA_IN(); // SDA设置为输入
 564              		.loc 1 114 3 view .LVU137
 565 0004 154B     		ldr	r3, .L43
 566 0006 1A68     		ldr	r2, [r3]
 567 0008 22F44022 		bic	r2, r2, #786432
 568 000c 1A60     		str	r2, [r3]
 569              		.loc 1 114 3 view .LVU138
 570 000e 1A68     		ldr	r2, [r3]
 571 0010 1A60     		str	r2, [r3]
 572              		.loc 1 114 11 view .LVU139
 115:MyHardWare/Src/myiic.c ****   for (i = 0; i < 8; i++) {
 573              		.loc 1 115 3 view .LVU140
 574              	.LVL33:
 113:MyHardWare/Src/myiic.c ****   unsigned char i, receive = 0;
 575              		.loc 1 113 20 is_stmt 0 view .LVU141
 576 0012 0024     		movs	r4, #0
 577              		.loc 1 115 10 view .LVU142
 578 0014 2546     		mov	r5, r4
 579              		.loc 1 115 3 view .LVU143
ARM GAS  C:\Users\asus\AppData\Local\Temp\ccRDJV5h.s 			page 13


 580 0016 04E0     		b	.L36
 581              	.LVL34:
 582              	.L37:
 116:MyHardWare/Src/myiic.c ****     IIC_SCL = 0;
 117:MyHardWare/Src/myiic.c ****     delay_us(2);
 118:MyHardWare/Src/myiic.c ****     IIC_SCL = 1;
 119:MyHardWare/Src/myiic.c ****     receive <<= 1;
 120:MyHardWare/Src/myiic.c ****     if (READ_SDA)
 121:MyHardWare/Src/myiic.c ****       receive++;
 122:MyHardWare/Src/myiic.c ****     delay_us(1);
 583              		.loc 1 122 5 is_stmt 1 view .LVU144
 584 0018 0120     		movs	r0, #1
 585 001a FFF7FEFF 		bl	delay_us
 586              	.LVL35:
 115:MyHardWare/Src/myiic.c ****   for (i = 0; i < 8; i++) {
 587              		.loc 1 115 23 discriminator 2 view .LVU145
 588 001e 0135     		adds	r5, r5, #1
 589              	.LVL36:
 115:MyHardWare/Src/myiic.c ****   for (i = 0; i < 8; i++) {
 590              		.loc 1 115 23 is_stmt 0 discriminator 2 view .LVU146
 591 0020 EDB2     		uxtb	r5, r5
 592              	.LVL37:
 593              	.L36:
 115:MyHardWare/Src/myiic.c ****   for (i = 0; i < 8; i++) {
 594              		.loc 1 115 17 is_stmt 1 discriminator 1 view .LVU147
 595 0022 072D     		cmp	r5, #7
 596 0024 12D8     		bhi	.L42
 116:MyHardWare/Src/myiic.c ****     IIC_SCL = 0;
 597              		.loc 1 116 5 view .LVU148
 116:MyHardWare/Src/myiic.c ****     IIC_SCL = 0;
 598              		.loc 1 116 13 is_stmt 0 view .LVU149
 599 0026 0E4E     		ldr	r6, .L43+4
 600 0028 0023     		movs	r3, #0
 601 002a C6F8A032 		str	r3, [r6, #672]
 117:MyHardWare/Src/myiic.c ****     IIC_SCL = 1;
 602              		.loc 1 117 5 is_stmt 1 view .LVU150
 603 002e 0220     		movs	r0, #2
 604 0030 FFF7FEFF 		bl	delay_us
 605              	.LVL38:
 118:MyHardWare/Src/myiic.c ****     receive <<= 1;
 606              		.loc 1 118 5 view .LVU151
 118:MyHardWare/Src/myiic.c ****     receive <<= 1;
 607              		.loc 1 118 13 is_stmt 0 view .LVU152
 608 0034 0123     		movs	r3, #1
 609 0036 C6F8A032 		str	r3, [r6, #672]
 119:MyHardWare/Src/myiic.c ****     if (READ_SDA)
 610              		.loc 1 119 5 is_stmt 1 view .LVU153
 119:MyHardWare/Src/myiic.c ****     if (READ_SDA)
 611              		.loc 1 119 13 is_stmt 0 view .LVU154
 612 003a 9C40     		lsls	r4, r4, r3
 613              	.LVL39:
 119:MyHardWare/Src/myiic.c ****     if (READ_SDA)
 614              		.loc 1 119 13 view .LVU155
 615 003c E4B2     		uxtb	r4, r4
 616              	.LVL40:
 120:MyHardWare/Src/myiic.c ****       receive++;
 617              		.loc 1 120 5 is_stmt 1 view .LVU156
ARM GAS  C:\Users\asus\AppData\Local\Temp\ccRDJV5h.s 			page 14


 120:MyHardWare/Src/myiic.c ****       receive++;
 618              		.loc 1 120 9 is_stmt 0 view .LVU157
 619 003e D6F82432 		ldr	r3, [r6, #548]
 120:MyHardWare/Src/myiic.c ****       receive++;
 620              		.loc 1 120 8 view .LVU158
 621 0042 002B     		cmp	r3, #0
 622 0044 E8D0     		beq	.L37
 121:MyHardWare/Src/myiic.c ****     delay_us(1);
 623              		.loc 1 121 7 is_stmt 1 view .LVU159
 121:MyHardWare/Src/myiic.c ****     delay_us(1);
 624              		.loc 1 121 14 is_stmt 0 view .LVU160
 625 0046 0134     		adds	r4, r4, #1
 626              	.LVL41:
 121:MyHardWare/Src/myiic.c ****     delay_us(1);
 627              		.loc 1 121 14 view .LVU161
 628 0048 E4B2     		uxtb	r4, r4
 629              	.LVL42:
 121:MyHardWare/Src/myiic.c ****     delay_us(1);
 630              		.loc 1 121 14 view .LVU162
 631 004a E5E7     		b	.L37
 632              	.L42:
 123:MyHardWare/Src/myiic.c ****   }
 124:MyHardWare/Src/myiic.c ****   if (!ack)
 633              		.loc 1 124 3 is_stmt 1 view .LVU163
 634              		.loc 1 124 6 is_stmt 0 view .LVU164
 635 004c 1FB9     		cbnz	r7, .L39
 125:MyHardWare/Src/myiic.c ****     IIC_NAck(); // 发送nACK
 636              		.loc 1 125 5 is_stmt 1 view .LVU165
 637 004e FFF7FEFF 		bl	IIC_NAck
 638              	.LVL43:
 639              	.L40:
 126:MyHardWare/Src/myiic.c ****   else
 127:MyHardWare/Src/myiic.c ****     IIC_Ack(); // 发送ACK
 128:MyHardWare/Src/myiic.c ****   return receive;
 640              		.loc 1 128 3 view .LVU166
 129:MyHardWare/Src/myiic.c **** }
 641              		.loc 1 129 1 is_stmt 0 view .LVU167
 642 0052 2046     		mov	r0, r4
 643 0054 F8BD     		pop	{r3, r4, r5, r6, r7, pc}
 644              	.LVL44:
 645              	.L39:
 127:MyHardWare/Src/myiic.c ****   return receive;
 646              		.loc 1 127 5 is_stmt 1 view .LVU168
 647 0056 FFF7FEFF 		bl	IIC_Ack
 648              	.LVL45:
 649 005a FAE7     		b	.L40
 650              	.L44:
 651              		.align	2
 652              	.L43:
 653 005c 00040240 		.word	1073873920
 654 0060 00804042 		.word	1111523328
 655              		.cfi_endproc
 656              	.LFE130:
 658              		.section	.text.Write_IIC_Byte,"ax",%progbits
 659              		.align	1
 660              		.global	Write_IIC_Byte
 661              		.syntax unified
ARM GAS  C:\Users\asus\AppData\Local\Temp\ccRDJV5h.s 			page 15


 662              		.thumb
 663              		.thumb_func
 665              	Write_IIC_Byte:
 666              	.LVL46:
 667              	.LFB131:
 130:MyHardWare/Src/myiic.c **** 
 131:MyHardWare/Src/myiic.c **** /**********************************************
 132:MyHardWare/Src/myiic.c **** // IIC Write byte
 133:MyHardWare/Src/myiic.c **** **********************************************/
 134:MyHardWare/Src/myiic.c **** 
 135:MyHardWare/Src/myiic.c **** void Write_IIC_Byte(unsigned char txd) {
 668              		.loc 1 135 40 view -0
 669              		.cfi_startproc
 670              		@ args = 0, pretend = 0, frame = 0
 671              		@ frame_needed = 0, uses_anonymous_args = 0
 672              		.loc 1 135 40 is_stmt 0 view .LVU170
 673 0000 70B5     		push	{r4, r5, r6, lr}
 674              	.LCFI10:
 675              		.cfi_def_cfa_offset 16
 676              		.cfi_offset 4, -16
 677              		.cfi_offset 5, -12
 678              		.cfi_offset 6, -8
 679              		.cfi_offset 14, -4
 680 0002 0546     		mov	r5, r0
 136:MyHardWare/Src/myiic.c ****   u8 t;
 681              		.loc 1 136 3 is_stmt 1 view .LVU171
 137:MyHardWare/Src/myiic.c ****   SDA_OUT();
 682              		.loc 1 137 3 view .LVU172
 683 0004 134B     		ldr	r3, .L49
 684 0006 1A68     		ldr	r2, [r3]
 685 0008 22F44022 		bic	r2, r2, #786432
 686 000c 1A60     		str	r2, [r3]
 687              		.loc 1 137 3 view .LVU173
 688 000e 1A68     		ldr	r2, [r3]
 689 0010 42F48022 		orr	r2, r2, #262144
 690 0014 1A60     		str	r2, [r3]
 691              		.loc 1 137 12 view .LVU174
 138:MyHardWare/Src/myiic.c ****   IIC_SCL = 0; // 拉低时钟开始数据传输
 692              		.loc 1 138 3 view .LVU175
 693              		.loc 1 138 11 is_stmt 0 view .LVU176
 694 0016 0024     		movs	r4, #0
 695 0018 0F4B     		ldr	r3, .L49+4
 696 001a C3F8A042 		str	r4, [r3, #672]
 139:MyHardWare/Src/myiic.c ****   for (t = 0; t < 8; t++) {
 697              		.loc 1 139 3 is_stmt 1 view .LVU177
 698              	.LVL47:
 699              		.loc 1 139 3 is_stmt 0 view .LVU178
 700 001e 16E0     		b	.L46
 701              	.LVL48:
 702              	.L47:
 140:MyHardWare/Src/myiic.c ****     IIC_SDA = (txd & 0x80) >> 7;
 703              		.loc 1 140 5 is_stmt 1 view .LVU179
 704              		.loc 1 140 28 is_stmt 0 view .LVU180
 705 0020 EB09     		lsrs	r3, r5, #7
 706              		.loc 1 140 13 view .LVU181
 707 0022 0D4E     		ldr	r6, .L49+4
 708 0024 C6F8A432 		str	r3, [r6, #676]
ARM GAS  C:\Users\asus\AppData\Local\Temp\ccRDJV5h.s 			page 16


 141:MyHardWare/Src/myiic.c ****     txd <<= 1;
 709              		.loc 1 141 5 is_stmt 1 view .LVU182
 710              		.loc 1 141 9 is_stmt 0 view .LVU183
 711 0028 6D00     		lsls	r5, r5, #1
 712              	.LVL49:
 713              		.loc 1 141 9 view .LVU184
 714 002a EDB2     		uxtb	r5, r5
 715              	.LVL50:
 142:MyHardWare/Src/myiic.c ****     delay_us(2); // 对TEA5767这三个延时都是必须的
 716              		.loc 1 142 5 is_stmt 1 view .LVU185
 717 002c 0220     		movs	r0, #2
 718 002e FFF7FEFF 		bl	delay_us
 719              	.LVL51:
 143:MyHardWare/Src/myiic.c ****     IIC_SCL = 1;
 720              		.loc 1 143 5 view .LVU186
 721              		.loc 1 143 13 is_stmt 0 view .LVU187
 722 0032 0123     		movs	r3, #1
 723 0034 C6F8A032 		str	r3, [r6, #672]
 144:MyHardWare/Src/myiic.c ****     delay_us(2);
 724              		.loc 1 144 5 is_stmt 1 view .LVU188
 725 0038 0220     		movs	r0, #2
 726 003a FFF7FEFF 		bl	delay_us
 727              	.LVL52:
 145:MyHardWare/Src/myiic.c ****     IIC_SCL = 0;
 728              		.loc 1 145 5 view .LVU189
 729              		.loc 1 145 13 is_stmt 0 view .LVU190
 730 003e 0023     		movs	r3, #0
 731 0040 C6F8A032 		str	r3, [r6, #672]
 146:MyHardWare/Src/myiic.c ****     delay_us(2);
 732              		.loc 1 146 5 is_stmt 1 view .LVU191
 733 0044 0220     		movs	r0, #2
 734 0046 FFF7FEFF 		bl	delay_us
 735              	.LVL53:
 139:MyHardWare/Src/myiic.c ****     IIC_SDA = (txd & 0x80) >> 7;
 736              		.loc 1 139 23 discriminator 3 view .LVU192
 737 004a 0134     		adds	r4, r4, #1
 738              	.LVL54:
 139:MyHardWare/Src/myiic.c ****     IIC_SDA = (txd & 0x80) >> 7;
 739              		.loc 1 139 23 is_stmt 0 discriminator 3 view .LVU193
 740 004c E4B2     		uxtb	r4, r4
 741              	.LVL55:
 742              	.L46:
 139:MyHardWare/Src/myiic.c ****     IIC_SDA = (txd & 0x80) >> 7;
 743              		.loc 1 139 17 is_stmt 1 discriminator 1 view .LVU194
 744 004e 072C     		cmp	r4, #7
 745 0050 E6D9     		bls	.L47
 147:MyHardWare/Src/myiic.c ****   }
 148:MyHardWare/Src/myiic.c **** }
 746              		.loc 1 148 1 is_stmt 0 view .LVU195
 747 0052 70BD     		pop	{r4, r5, r6, pc}
 748              	.LVL56:
 749              	.L50:
 750              		.loc 1 148 1 view .LVU196
 751              		.align	2
 752              	.L49:
 753 0054 00040240 		.word	1073873920
 754 0058 00804042 		.word	1111523328
ARM GAS  C:\Users\asus\AppData\Local\Temp\ccRDJV5h.s 			page 17


 755              		.cfi_endproc
 756              	.LFE131:
 758              		.section	.text.Write_IIC_Command,"ax",%progbits
 759              		.align	1
 760              		.global	Write_IIC_Command
 761              		.syntax unified
 762              		.thumb
 763              		.thumb_func
 765              	Write_IIC_Command:
 766              	.LVL57:
 767              	.LFB132:
 149:MyHardWare/Src/myiic.c **** /**********************************************
 150:MyHardWare/Src/myiic.c **** // IIC Write Command
 151:MyHardWare/Src/myiic.c **** **********************************************/
 152:MyHardWare/Src/myiic.c **** void Write_IIC_Command(unsigned char IIC_Command) {
 768              		.loc 1 152 51 is_stmt 1 view -0
 769              		.cfi_startproc
 770              		@ args = 0, pretend = 0, frame = 0
 771              		@ frame_needed = 0, uses_anonymous_args = 0
 772              		.loc 1 152 51 is_stmt 0 view .LVU198
 773 0000 10B5     		push	{r4, lr}
 774              	.LCFI11:
 775              		.cfi_def_cfa_offset 8
 776              		.cfi_offset 4, -8
 777              		.cfi_offset 14, -4
 778 0002 0446     		mov	r4, r0
 153:MyHardWare/Src/myiic.c ****   IIC_Start();
 779              		.loc 1 153 3 is_stmt 1 view .LVU199
 780 0004 FFF7FEFF 		bl	IIC_Start
 781              	.LVL58:
 154:MyHardWare/Src/myiic.c ****   Write_IIC_Byte(0x78); // Slave address,SA0=0
 782              		.loc 1 154 3 view .LVU200
 783 0008 7820     		movs	r0, #120
 784 000a FFF7FEFF 		bl	Write_IIC_Byte
 785              	.LVL59:
 155:MyHardWare/Src/myiic.c ****   IIC_Wait_Ack();
 786              		.loc 1 155 3 view .LVU201
 787 000e FFF7FEFF 		bl	IIC_Wait_Ack
 788              	.LVL60:
 156:MyHardWare/Src/myiic.c ****   Write_IIC_Byte(0x00); // write command
 789              		.loc 1 156 3 view .LVU202
 790 0012 0020     		movs	r0, #0
 791 0014 FFF7FEFF 		bl	Write_IIC_Byte
 792              	.LVL61:
 157:MyHardWare/Src/myiic.c ****   IIC_Wait_Ack();
 793              		.loc 1 157 3 view .LVU203
 794 0018 FFF7FEFF 		bl	IIC_Wait_Ack
 795              	.LVL62:
 158:MyHardWare/Src/myiic.c ****   Write_IIC_Byte(IIC_Command);
 796              		.loc 1 158 3 view .LVU204
 797 001c 2046     		mov	r0, r4
 798 001e FFF7FEFF 		bl	Write_IIC_Byte
 799              	.LVL63:
 159:MyHardWare/Src/myiic.c ****   IIC_Wait_Ack();
 800              		.loc 1 159 3 view .LVU205
 801 0022 FFF7FEFF 		bl	IIC_Wait_Ack
 802              	.LVL64:
ARM GAS  C:\Users\asus\AppData\Local\Temp\ccRDJV5h.s 			page 18


 160:MyHardWare/Src/myiic.c ****   IIC_Stop();
 803              		.loc 1 160 3 view .LVU206
 804 0026 FFF7FEFF 		bl	IIC_Stop
 805              	.LVL65:
 161:MyHardWare/Src/myiic.c **** }
 806              		.loc 1 161 1 is_stmt 0 view .LVU207
 807 002a 10BD     		pop	{r4, pc}
 808              		.loc 1 161 1 view .LVU208
 809              		.cfi_endproc
 810              	.LFE132:
 812              		.section	.text.Write_IIC_Data,"ax",%progbits
 813              		.align	1
 814              		.global	Write_IIC_Data
 815              		.syntax unified
 816              		.thumb
 817              		.thumb_func
 819              	Write_IIC_Data:
 820              	.LVL66:
 821              	.LFB133:
 162:MyHardWare/Src/myiic.c **** /**********************************************
 163:MyHardWare/Src/myiic.c **** // IIC Write Data
 164:MyHardWare/Src/myiic.c **** **********************************************/
 165:MyHardWare/Src/myiic.c **** void Write_IIC_Data(unsigned char IIC_Data) {
 822              		.loc 1 165 45 is_stmt 1 view -0
 823              		.cfi_startproc
 824              		@ args = 0, pretend = 0, frame = 0
 825              		@ frame_needed = 0, uses_anonymous_args = 0
 826              		.loc 1 165 45 is_stmt 0 view .LVU210
 827 0000 10B5     		push	{r4, lr}
 828              	.LCFI12:
 829              		.cfi_def_cfa_offset 8
 830              		.cfi_offset 4, -8
 831              		.cfi_offset 14, -4
 832 0002 0446     		mov	r4, r0
 166:MyHardWare/Src/myiic.c ****   IIC_Start();
 833              		.loc 1 166 3 is_stmt 1 view .LVU211
 834 0004 FFF7FEFF 		bl	IIC_Start
 835              	.LVL67:
 167:MyHardWare/Src/myiic.c ****   Write_IIC_Byte(0x78); // D/C#=0; R/W#=0
 836              		.loc 1 167 3 view .LVU212
 837 0008 7820     		movs	r0, #120
 838 000a FFF7FEFF 		bl	Write_IIC_Byte
 839              	.LVL68:
 168:MyHardWare/Src/myiic.c ****   IIC_Wait_Ack();
 840              		.loc 1 168 3 view .LVU213
 841 000e FFF7FEFF 		bl	IIC_Wait_Ack
 842              	.LVL69:
 169:MyHardWare/Src/myiic.c ****   Write_IIC_Byte(0x40); // write data
 843              		.loc 1 169 3 view .LVU214
 844 0012 4020     		movs	r0, #64
 845 0014 FFF7FEFF 		bl	Write_IIC_Byte
 846              	.LVL70:
 170:MyHardWare/Src/myiic.c ****   IIC_Wait_Ack();
 847              		.loc 1 170 3 view .LVU215
 848 0018 FFF7FEFF 		bl	IIC_Wait_Ack
 849              	.LVL71:
 171:MyHardWare/Src/myiic.c ****   Write_IIC_Byte(IIC_Data);
ARM GAS  C:\Users\asus\AppData\Local\Temp\ccRDJV5h.s 			page 19


 850              		.loc 1 171 3 view .LVU216
 851 001c 2046     		mov	r0, r4
 852 001e FFF7FEFF 		bl	Write_IIC_Byte
 853              	.LVL72:
 172:MyHardWare/Src/myiic.c ****   IIC_Wait_Ack();
 854              		.loc 1 172 3 view .LVU217
 855 0022 FFF7FEFF 		bl	IIC_Wait_Ack
 856              	.LVL73:
 173:MyHardWare/Src/myiic.c ****   IIC_Stop();
 857              		.loc 1 173 3 view .LVU218
 858 0026 FFF7FEFF 		bl	IIC_Stop
 859              	.LVL74:
 174:MyHardWare/Src/myiic.c **** }
 860              		.loc 1 174 1 is_stmt 0 view .LVU219
 861 002a 10BD     		pop	{r4, pc}
 862              		.loc 1 174 1 view .LVU220
 863              		.cfi_endproc
 864              	.LFE133:
 866              		.text
 867              	.Letext0:
 868              		.file 2 "C:/Program Files (x86)/Arm GNU Toolchain arm-none-eabi/13.2 Rel1/arm-none-eabi/include/ma
 869              		.file 3 "C:/Program Files (x86)/Arm GNU Toolchain arm-none-eabi/13.2 Rel1/arm-none-eabi/include/sy
 870              		.file 4 "CMSIS/stm32f4xx.h"
 871              		.file 5 "Lib/StdPeriphs/inc/stm32f4xx_gpio.h"
 872              		.file 6 "MyHardWare/Inc/delay.h"
 873              		.file 7 "Lib/StdPeriphs/inc/stm32f4xx_rcc.h"
ARM GAS  C:\Users\asus\AppData\Local\Temp\ccRDJV5h.s 			page 20

