ARM GAS  C:\Users\asus\AppData\Local\Temp\ccCXoZzh.s 			page 1


   1              		.cpu cortex-m4
   2              		.arch armv7e-m
   3              		.fpu fpv4-sp-d16
   4              		.eabi_attribute 27, 1
   5              		.eabi_attribute 28, 1
   6              		.eabi_attribute 20, 1
   7              		.eabi_attribute 21, 1
   8              		.eabi_attribute 23, 3
   9              		.eabi_attribute 24, 1
  10              		.eabi_attribute 25, 1
  11              		.eabi_attribute 26, 1
  12              		.eabi_attribute 30, 1
  13              		.eabi_attribute 34, 1
  14              		.eabi_attribute 18, 4
  15              		.file	"oled.c"
  16              		.text
  17              	.Ltext0:
  18              		.cfi_sections	.debug_frame
  19              		.file 1 "MyHardWare/Src/oled.c"
  20              		.section	.text.OLED_WR_Byte,"ax",%progbits
  21              		.align	1
  22              		.global	OLED_WR_Byte
  23              		.syntax unified
  24              		.thumb
  25              		.thumb_func
  27              	OLED_WR_Byte:
  28              	.LVL0:
  29              	.LFB123:
   1:MyHardWare/Src/oled.c **** #include "oled.h"
   2:MyHardWare/Src/oled.c **** #include "delay.h"
   3:MyHardWare/Src/oled.c **** #include "oledfont.h"
   4:MyHardWare/Src/oled.c **** #include "stdlib.h"
   5:MyHardWare/Src/oled.c **** // OLEDńÜäµśŠÕŁś
   6:MyHardWare/Src/oled.c **** // ÕŁśµöŠµĀ╝Õ╝ÅÕ”éõĖŗ.
   7:MyHardWare/Src/oled.c **** //[0]0 1 2 3 ... 127
   8:MyHardWare/Src/oled.c **** //[1]0 1 2 3 ... 127
   9:MyHardWare/Src/oled.c **** //[2]0 1 2 3 ... 127
  10:MyHardWare/Src/oled.c **** //[3]0 1 2 3 ... 127
  11:MyHardWare/Src/oled.c **** //[4]0 1 2 3 ... 127
  12:MyHardWare/Src/oled.c **** //[5]0 1 2 3 ... 127
  13:MyHardWare/Src/oled.c **** //[6]0 1 2 3 ... 127
  14:MyHardWare/Src/oled.c **** //[7]0 1 2 3 ... 127
  15:MyHardWare/Src/oled.c **** void OLED_WR_Byte(unsigned dat, unsigned cmd) {
  30              		.loc 1 15 47 view -0
  31              		.cfi_startproc
  32              		@ args = 0, pretend = 0, frame = 0
  33              		@ frame_needed = 0, uses_anonymous_args = 0
  34              		.loc 1 15 47 is_stmt 0 view .LVU1
  35 0000 08B5     		push	{r3, lr}
  36              	.LCFI0:
  37              		.cfi_def_cfa_offset 8
  38              		.cfi_offset 3, -8
  39              		.cfi_offset 14, -4
  16:MyHardWare/Src/oled.c ****   if (cmd) {
  40              		.loc 1 16 3 is_stmt 1 view .LVU2
  41              		.loc 1 16 6 is_stmt 0 view .LVU3
  42 0002 19B1     		cbz	r1, .L2
ARM GAS  C:\Users\asus\AppData\Local\Temp\ccCXoZzh.s 			page 2


  17:MyHardWare/Src/oled.c **** 
  18:MyHardWare/Src/oled.c ****     Write_IIC_Data(dat);
  43              		.loc 1 18 5 is_stmt 1 view .LVU4
  44 0004 C0B2     		uxtb	r0, r0
  45              	.LVL1:
  46              		.loc 1 18 5 is_stmt 0 view .LVU5
  47 0006 FFF7FEFF 		bl	Write_IIC_Data
  48              	.LVL2:
  49              	.L1:
  19:MyHardWare/Src/oled.c **** 
  20:MyHardWare/Src/oled.c ****   } else {
  21:MyHardWare/Src/oled.c ****     Write_IIC_Command(dat);
  22:MyHardWare/Src/oled.c ****   }
  23:MyHardWare/Src/oled.c **** }
  50              		.loc 1 23 1 view .LVU6
  51 000a 08BD     		pop	{r3, pc}
  52              	.LVL3:
  53              	.L2:
  21:MyHardWare/Src/oled.c ****   }
  54              		.loc 1 21 5 is_stmt 1 view .LVU7
  55 000c C0B2     		uxtb	r0, r0
  56              	.LVL4:
  21:MyHardWare/Src/oled.c ****   }
  57              		.loc 1 21 5 is_stmt 0 view .LVU8
  58 000e FFF7FEFF 		bl	Write_IIC_Command
  59              	.LVL5:
  60              		.loc 1 23 1 view .LVU9
  61 0012 FAE7     		b	.L1
  62              		.cfi_endproc
  63              	.LFE123:
  65              		.section	.text.fill_picture,"ax",%progbits
  66              		.align	1
  67              		.global	fill_picture
  68              		.syntax unified
  69              		.thumb
  70              		.thumb_func
  72              	fill_picture:
  73              	.LVL6:
  74              	.LFB124:
  24:MyHardWare/Src/oled.c **** 
  25:MyHardWare/Src/oled.c **** /********************************************
  26:MyHardWare/Src/oled.c **** // fill_Picture
  27:MyHardWare/Src/oled.c **** ********************************************/
  28:MyHardWare/Src/oled.c **** void fill_picture(unsigned char fill_Data) {
  75              		.loc 1 28 44 is_stmt 1 view -0
  76              		.cfi_startproc
  77              		@ args = 0, pretend = 0, frame = 0
  78              		@ frame_needed = 0, uses_anonymous_args = 0
  79              		.loc 1 28 44 is_stmt 0 view .LVU11
  80 0000 70B5     		push	{r4, r5, r6, lr}
  81              	.LCFI1:
  82              		.cfi_def_cfa_offset 16
  83              		.cfi_offset 4, -16
  84              		.cfi_offset 5, -12
  85              		.cfi_offset 6, -8
  86              		.cfi_offset 14, -4
  87 0002 0546     		mov	r5, r0
ARM GAS  C:\Users\asus\AppData\Local\Temp\ccCXoZzh.s 			page 3


  29:MyHardWare/Src/oled.c ****   unsigned char m, n;
  88              		.loc 1 29 3 is_stmt 1 view .LVU12
  30:MyHardWare/Src/oled.c ****   for (m = 0; m < 8; m++) {
  89              		.loc 1 30 3 view .LVU13
  90              	.LVL7:
  91              		.loc 1 30 10 is_stmt 0 view .LVU14
  92 0004 0026     		movs	r6, #0
  93              		.loc 1 30 3 view .LVU15
  94 0006 0AE0     		b	.L6
  95              	.LVL8:
  96              	.L8:
  31:MyHardWare/Src/oled.c ****     OLED_WR_Byte(0xb0 + m, 0); // page0-page1
  32:MyHardWare/Src/oled.c ****     OLED_WR_Byte(0x00, 0);     // low column start address
  33:MyHardWare/Src/oled.c ****     OLED_WR_Byte(0x10, 0);     // high column start address
  34:MyHardWare/Src/oled.c ****     for (n = 0; n < 128; n++) {
  35:MyHardWare/Src/oled.c ****       OLED_WR_Byte(fill_Data, 1);
  97              		.loc 1 35 7 is_stmt 1 view .LVU16
  98 0008 0121     		movs	r1, #1
  99 000a 2846     		mov	r0, r5
 100 000c FFF7FEFF 		bl	OLED_WR_Byte
 101              	.LVL9:
  34:MyHardWare/Src/oled.c ****       OLED_WR_Byte(fill_Data, 1);
 102              		.loc 1 34 27 discriminator 3 view .LVU17
 103 0010 0134     		adds	r4, r4, #1
 104              	.LVL10:
  34:MyHardWare/Src/oled.c ****       OLED_WR_Byte(fill_Data, 1);
 105              		.loc 1 34 27 is_stmt 0 discriminator 3 view .LVU18
 106 0012 E4B2     		uxtb	r4, r4
 107              	.LVL11:
 108              	.L7:
  34:MyHardWare/Src/oled.c ****       OLED_WR_Byte(fill_Data, 1);
 109              		.loc 1 34 19 is_stmt 1 discriminator 1 view .LVU19
 110 0014 14F0800F 		tst	r4, #128
 111 0018 F6D0     		beq	.L8
  30:MyHardWare/Src/oled.c ****   for (m = 0; m < 8; m++) {
 112              		.loc 1 30 23 discriminator 2 view .LVU20
 113 001a 0136     		adds	r6, r6, #1
 114              	.LVL12:
  30:MyHardWare/Src/oled.c ****   for (m = 0; m < 8; m++) {
 115              		.loc 1 30 23 is_stmt 0 discriminator 2 view .LVU21
 116 001c F6B2     		uxtb	r6, r6
 117              	.LVL13:
 118              	.L6:
  30:MyHardWare/Src/oled.c ****   for (m = 0; m < 8; m++) {
 119              		.loc 1 30 17 is_stmt 1 discriminator 1 view .LVU22
 120 001e 072E     		cmp	r6, #7
 121 0020 0ED8     		bhi	.L11
  31:MyHardWare/Src/oled.c ****     OLED_WR_Byte(0xb0 + m, 0); // page0-page1
 122              		.loc 1 31 5 view .LVU23
 123 0022 0021     		movs	r1, #0
 124 0024 06F1B000 		add	r0, r6, #176
 125 0028 FFF7FEFF 		bl	OLED_WR_Byte
 126              	.LVL14:
  32:MyHardWare/Src/oled.c ****     OLED_WR_Byte(0x10, 0);     // high column start address
 127              		.loc 1 32 5 view .LVU24
 128 002c 0021     		movs	r1, #0
 129 002e 0846     		mov	r0, r1
ARM GAS  C:\Users\asus\AppData\Local\Temp\ccCXoZzh.s 			page 4


 130 0030 FFF7FEFF 		bl	OLED_WR_Byte
 131              	.LVL15:
  33:MyHardWare/Src/oled.c ****     for (n = 0; n < 128; n++) {
 132              		.loc 1 33 5 view .LVU25
 133 0034 0021     		movs	r1, #0
 134 0036 1020     		movs	r0, #16
 135 0038 FFF7FEFF 		bl	OLED_WR_Byte
 136              	.LVL16:
  34:MyHardWare/Src/oled.c ****       OLED_WR_Byte(fill_Data, 1);
 137              		.loc 1 34 5 view .LVU26
  34:MyHardWare/Src/oled.c ****       OLED_WR_Byte(fill_Data, 1);
 138              		.loc 1 34 12 is_stmt 0 view .LVU27
 139 003c 0024     		movs	r4, #0
  34:MyHardWare/Src/oled.c ****       OLED_WR_Byte(fill_Data, 1);
 140              		.loc 1 34 5 view .LVU28
 141 003e E9E7     		b	.L7
 142              	.LVL17:
 143              	.L11:
  36:MyHardWare/Src/oled.c ****     }
  37:MyHardWare/Src/oled.c ****   }
  38:MyHardWare/Src/oled.c **** }
 144              		.loc 1 38 1 view .LVU29
 145 0040 70BD     		pop	{r4, r5, r6, pc}
 146              		.loc 1 38 1 view .LVU30
 147              		.cfi_endproc
 148              	.LFE124:
 150              		.section	.text.Delay_50ms,"ax",%progbits
 151              		.align	1
 152              		.global	Delay_50ms
 153              		.syntax unified
 154              		.thumb
 155              		.thumb_func
 157              	Delay_50ms:
 158              	.LVL18:
 159              	.LFB125:
  39:MyHardWare/Src/oled.c **** 
  40:MyHardWare/Src/oled.c **** /***********************Delay****************************************/
  41:MyHardWare/Src/oled.c **** void Delay_50ms(unsigned int Del_50ms) {
 160              		.loc 1 41 40 is_stmt 1 view -0
 161              		.cfi_startproc
 162              		@ args = 0, pretend = 0, frame = 0
 163              		@ frame_needed = 0, uses_anonymous_args = 0
 164              		@ link register save eliminated.
  42:MyHardWare/Src/oled.c ****   unsigned int m;
 165              		.loc 1 42 3 view .LVU32
  43:MyHardWare/Src/oled.c ****   for (; Del_50ms > 0; Del_50ms--)
 166              		.loc 1 43 3 view .LVU33
 167 0000 03E0     		b	.L13
 168              	.LVL19:
 169              	.L14:
  44:MyHardWare/Src/oled.c ****     for (m = 6245; m > 0; m--)
 170              		.loc 1 44 28 discriminator 3 view .LVU34
 171 0002 013B     		subs	r3, r3, #1
 172              	.LVL20:
 173              	.L15:
 174              		.loc 1 44 22 discriminator 1 view .LVU35
 175 0004 002B     		cmp	r3, #0
ARM GAS  C:\Users\asus\AppData\Local\Temp\ccCXoZzh.s 			page 5


 176 0006 FCD1     		bne	.L14
  43:MyHardWare/Src/oled.c ****   for (; Del_50ms > 0; Del_50ms--)
 177              		.loc 1 43 32 view .LVU36
 178 0008 0138     		subs	r0, r0, #1
 179              	.LVL21:
 180              	.L13:
  43:MyHardWare/Src/oled.c ****   for (; Del_50ms > 0; Del_50ms--)
 181              		.loc 1 43 19 discriminator 1 view .LVU37
 182 000a 10B1     		cbz	r0, .L17
 183              		.loc 1 44 12 is_stmt 0 view .LVU38
 184 000c 41F66503 		movw	r3, #6245
 185 0010 F8E7     		b	.L15
 186              	.L17:
  45:MyHardWare/Src/oled.c ****       ;
  46:MyHardWare/Src/oled.c **** }
 187              		.loc 1 46 1 view .LVU39
 188 0012 7047     		bx	lr
 189              		.cfi_endproc
 190              	.LFE125:
 192              		.section	.text.Delay_1ms,"ax",%progbits
 193              		.align	1
 194              		.global	Delay_1ms
 195              		.syntax unified
 196              		.thumb
 197              		.thumb_func
 199              	Delay_1ms:
 200              	.LVL22:
 201              	.LFB126:
  47:MyHardWare/Src/oled.c **** 
  48:MyHardWare/Src/oled.c **** void Delay_1ms(unsigned int Del_1ms) {
 202              		.loc 1 48 38 is_stmt 1 view -0
 203              		.cfi_startproc
 204              		@ args = 0, pretend = 0, frame = 0
 205              		@ frame_needed = 0, uses_anonymous_args = 0
 206              		@ link register save eliminated.
 207              		.loc 1 48 38 is_stmt 0 view .LVU41
 208 0000 0246     		mov	r2, r0
  49:MyHardWare/Src/oled.c ****   unsigned char j;
 209              		.loc 1 49 3 is_stmt 1 view .LVU42
  50:MyHardWare/Src/oled.c ****   while (Del_1ms--) {
 210              		.loc 1 50 3 view .LVU43
 211              		.loc 1 50 9 is_stmt 0 view .LVU44
 212 0002 03E0     		b	.L19
 213              	.LVL23:
 214              	.L20:
  51:MyHardWare/Src/oled.c ****     for (j = 0; j < 123; j++)
 215              		.loc 1 51 27 is_stmt 1 discriminator 3 view .LVU45
 216 0004 0133     		adds	r3, r3, #1
 217              	.LVL24:
 218              		.loc 1 51 27 is_stmt 0 discriminator 3 view .LVU46
 219 0006 DBB2     		uxtb	r3, r3
 220              	.LVL25:
 221              	.L21:
 222              		.loc 1 51 19 is_stmt 1 discriminator 1 view .LVU47
 223 0008 7A2B     		cmp	r3, #122
 224 000a FBD9     		bls	.L20
 225              	.LVL26:
ARM GAS  C:\Users\asus\AppData\Local\Temp\ccCXoZzh.s 			page 6


 226              	.L19:
  50:MyHardWare/Src/oled.c ****   while (Del_1ms--) {
 227              		.loc 1 50 10 view .LVU48
 228 000c 1346     		mov	r3, r2
  50:MyHardWare/Src/oled.c ****   while (Del_1ms--) {
 229              		.loc 1 50 17 is_stmt 0 view .LVU49
 230 000e 013A     		subs	r2, r2, #1
 231              	.LVL27:
  50:MyHardWare/Src/oled.c ****   while (Del_1ms--) {
 232              		.loc 1 50 10 view .LVU50
 233 0010 0BB1     		cbz	r3, .L23
 234              		.loc 1 51 12 view .LVU51
 235 0012 0023     		movs	r3, #0
 236 0014 F8E7     		b	.L21
 237              	.L23:
  52:MyHardWare/Src/oled.c ****       ;
  53:MyHardWare/Src/oled.c ****   }
  54:MyHardWare/Src/oled.c **** }
 238              		.loc 1 54 1 view .LVU52
 239 0016 7047     		bx	lr
 240              		.cfi_endproc
 241              	.LFE126:
 243              		.section	.text.OLED_Set_Pos,"ax",%progbits
 244              		.align	1
 245              		.global	OLED_Set_Pos
 246              		.syntax unified
 247              		.thumb
 248              		.thumb_func
 250              	OLED_Set_Pos:
 251              	.LVL28:
 252              	.LFB127:
  55:MyHardWare/Src/oled.c **** 
  56:MyHardWare/Src/oled.c **** // ÕØÉµĀćĶ«ŠńĮ«
  57:MyHardWare/Src/oled.c **** 
  58:MyHardWare/Src/oled.c **** void OLED_Set_Pos(unsigned char x, unsigned char y) {
 253              		.loc 1 58 53 is_stmt 1 view -0
 254              		.cfi_startproc
 255              		@ args = 0, pretend = 0, frame = 0
 256              		@ frame_needed = 0, uses_anonymous_args = 0
 257              		.loc 1 58 53 is_stmt 0 view .LVU54
 258 0000 10B5     		push	{r4, lr}
 259              	.LCFI2:
 260              		.cfi_def_cfa_offset 8
 261              		.cfi_offset 4, -8
 262              		.cfi_offset 14, -4
 263 0002 0446     		mov	r4, r0
 264 0004 0846     		mov	r0, r1
 265              	.LVL29:
  59:MyHardWare/Src/oled.c ****   OLED_WR_Byte(0xb0 + y, OLED_CMD);
 266              		.loc 1 59 3 is_stmt 1 view .LVU55
 267 0006 0021     		movs	r1, #0
 268              	.LVL30:
 269              		.loc 1 59 3 is_stmt 0 view .LVU56
 270 0008 B030     		adds	r0, r0, #176
 271              	.LVL31:
 272              		.loc 1 59 3 view .LVU57
 273 000a FFF7FEFF 		bl	OLED_WR_Byte
ARM GAS  C:\Users\asus\AppData\Local\Temp\ccCXoZzh.s 			page 7


 274              	.LVL32:
  60:MyHardWare/Src/oled.c ****   OLED_WR_Byte(((x & 0xf0) >> 4) | 0x10, OLED_CMD);
 275              		.loc 1 60 3 is_stmt 1 view .LVU58
 276              		.loc 1 60 28 is_stmt 0 view .LVU59
 277 000e 2009     		lsrs	r0, r4, #4
 278              		.loc 1 60 3 view .LVU60
 279 0010 0021     		movs	r1, #0
 280 0012 40F01000 		orr	r0, r0, #16
 281 0016 FFF7FEFF 		bl	OLED_WR_Byte
 282              	.LVL33:
  61:MyHardWare/Src/oled.c ****   OLED_WR_Byte((x & 0x0f), OLED_CMD);
 283              		.loc 1 61 3 is_stmt 1 view .LVU61
 284 001a 0021     		movs	r1, #0
 285 001c 04F00F00 		and	r0, r4, #15
 286 0020 FFF7FEFF 		bl	OLED_WR_Byte
 287              	.LVL34:
  62:MyHardWare/Src/oled.c **** }
 288              		.loc 1 62 1 is_stmt 0 view .LVU62
 289 0024 10BD     		pop	{r4, pc}
 290              		.loc 1 62 1 view .LVU63
 291              		.cfi_endproc
 292              	.LFE127:
 294              		.section	.text.OLED_Display_On,"ax",%progbits
 295              		.align	1
 296              		.global	OLED_Display_On
 297              		.syntax unified
 298              		.thumb
 299              		.thumb_func
 301              	OLED_Display_On:
 302              	.LFB128:
  63:MyHardWare/Src/oled.c **** // Õ╝ĆÕÉ»OLEDµśŠńż║
  64:MyHardWare/Src/oled.c **** void OLED_Display_On(void) {
 303              		.loc 1 64 28 is_stmt 1 view -0
 304              		.cfi_startproc
 305              		@ args = 0, pretend = 0, frame = 0
 306              		@ frame_needed = 0, uses_anonymous_args = 0
 307 0000 08B5     		push	{r3, lr}
 308              	.LCFI3:
 309              		.cfi_def_cfa_offset 8
 310              		.cfi_offset 3, -8
 311              		.cfi_offset 14, -4
  65:MyHardWare/Src/oled.c ****   OLED_WR_Byte(0X8D, OLED_CMD); // SET DCDCÕæĮõ╗ż
 312              		.loc 1 65 3 view .LVU65
 313 0002 0021     		movs	r1, #0
 314 0004 8D20     		movs	r0, #141
 315 0006 FFF7FEFF 		bl	OLED_WR_Byte
 316              	.LVL35:
  66:MyHardWare/Src/oled.c ****   OLED_WR_Byte(0X14, OLED_CMD); // DCDC ON
 317              		.loc 1 66 3 view .LVU66
 318 000a 0021     		movs	r1, #0
 319 000c 1420     		movs	r0, #20
 320 000e FFF7FEFF 		bl	OLED_WR_Byte
 321              	.LVL36:
  67:MyHardWare/Src/oled.c ****   OLED_WR_Byte(0XAF, OLED_CMD); // DISPLAY ON
 322              		.loc 1 67 3 view .LVU67
 323 0012 0021     		movs	r1, #0
 324 0014 AF20     		movs	r0, #175
ARM GAS  C:\Users\asus\AppData\Local\Temp\ccCXoZzh.s 			page 8


 325 0016 FFF7FEFF 		bl	OLED_WR_Byte
 326              	.LVL37:
  68:MyHardWare/Src/oled.c **** }
 327              		.loc 1 68 1 is_stmt 0 view .LVU68
 328 001a 08BD     		pop	{r3, pc}
 329              		.cfi_endproc
 330              	.LFE128:
 332              		.section	.text.OLED_Display_Off,"ax",%progbits
 333              		.align	1
 334              		.global	OLED_Display_Off
 335              		.syntax unified
 336              		.thumb
 337              		.thumb_func
 339              	OLED_Display_Off:
 340              	.LFB129:
  69:MyHardWare/Src/oled.c **** // Õģ│ķŚŁOLEDµśŠńż║
  70:MyHardWare/Src/oled.c **** void OLED_Display_Off(void) {
 341              		.loc 1 70 29 is_stmt 1 view -0
 342              		.cfi_startproc
 343              		@ args = 0, pretend = 0, frame = 0
 344              		@ frame_needed = 0, uses_anonymous_args = 0
 345 0000 08B5     		push	{r3, lr}
 346              	.LCFI4:
 347              		.cfi_def_cfa_offset 8
 348              		.cfi_offset 3, -8
 349              		.cfi_offset 14, -4
  71:MyHardWare/Src/oled.c ****   OLED_WR_Byte(0X8D, OLED_CMD); // SET DCDCÕæĮõ╗ż
 350              		.loc 1 71 3 view .LVU70
 351 0002 0021     		movs	r1, #0
 352 0004 8D20     		movs	r0, #141
 353 0006 FFF7FEFF 		bl	OLED_WR_Byte
 354              	.LVL38:
  72:MyHardWare/Src/oled.c ****   OLED_WR_Byte(0X10, OLED_CMD); // DCDC OFF
 355              		.loc 1 72 3 view .LVU71
 356 000a 0021     		movs	r1, #0
 357 000c 1020     		movs	r0, #16
 358 000e FFF7FEFF 		bl	OLED_WR_Byte
 359              	.LVL39:
  73:MyHardWare/Src/oled.c ****   OLED_WR_Byte(0XAE, OLED_CMD); // DISPLAY OFF
 360              		.loc 1 73 3 view .LVU72
 361 0012 0021     		movs	r1, #0
 362 0014 AE20     		movs	r0, #174
 363 0016 FFF7FEFF 		bl	OLED_WR_Byte
 364              	.LVL40:
  74:MyHardWare/Src/oled.c **** }
 365              		.loc 1 74 1 is_stmt 0 view .LVU73
 366 001a 08BD     		pop	{r3, pc}
 367              		.cfi_endproc
 368              	.LFE129:
 370              		.section	.text.OLED_Clear,"ax",%progbits
 371              		.align	1
 372              		.global	OLED_Clear
 373              		.syntax unified
 374              		.thumb
 375              		.thumb_func
 377              	OLED_Clear:
 378              	.LFB130:
ARM GAS  C:\Users\asus\AppData\Local\Temp\ccCXoZzh.s 			page 9


  75:MyHardWare/Src/oled.c **** // µĖģÕ▒ÅÕćĮµĢ░,µĖģÕ«īÕ▒Å,µĢ┤õĖ¬Õ▒ÅÕ╣Ģµś»ķ╗æĶē▓ńÜä!ÕÆīµ▓Īńé╣õ║«õĖĆµĀĘ!!!
  76:MyHardWare/Src/oled.c **** void OLED_Clear(void) {
 379              		.loc 1 76 23 is_stmt 1 view -0
 380              		.cfi_startproc
 381              		@ args = 0, pretend = 0, frame = 0
 382              		@ frame_needed = 0, uses_anonymous_args = 0
 383 0000 38B5     		push	{r3, r4, r5, lr}
 384              	.LCFI5:
 385              		.cfi_def_cfa_offset 16
 386              		.cfi_offset 3, -16
 387              		.cfi_offset 4, -12
 388              		.cfi_offset 5, -8
 389              		.cfi_offset 14, -4
  77:MyHardWare/Src/oled.c ****   u8 i, n;
 390              		.loc 1 77 3 view .LVU75
  78:MyHardWare/Src/oled.c ****   for (i = 0; i < 8; i++) {
 391              		.loc 1 78 3 view .LVU76
 392              	.LVL41:
 393              		.loc 1 78 10 is_stmt 0 view .LVU77
 394 0002 0025     		movs	r5, #0
 395              		.loc 1 78 3 view .LVU78
 396 0004 0AE0     		b	.L31
 397              	.LVL42:
 398              	.L33:
  79:MyHardWare/Src/oled.c ****     OLED_WR_Byte(0xb0 + i, OLED_CMD); // Ķ«ŠńĮ«ķĪĄÕ£░ÕØĆ’╝ł0~7’╝ē
  80:MyHardWare/Src/oled.c ****     OLED_WR_Byte(0x00, OLED_CMD);     // Ķ«ŠńĮ«µśŠńż║õĮŹńĮ«ŌĆöÕłŚõĮÄÕ£░ÕØĆ
  81:MyHardWare/Src/oled.c ****     OLED_WR_Byte(0x10, OLED_CMD);     // Ķ«ŠńĮ«µśŠńż║õĮŹńĮ«ŌĆöÕłŚķ½śÕ£░ÕØĆ
  82:MyHardWare/Src/oled.c ****     for (n = 0; n < 128; n++)
  83:MyHardWare/Src/oled.c ****       OLED_WR_Byte(0, OLED_DATA);
 399              		.loc 1 83 7 is_stmt 1 view .LVU79
 400 0006 0121     		movs	r1, #1
 401 0008 0020     		movs	r0, #0
 402 000a FFF7FEFF 		bl	OLED_WR_Byte
 403              	.LVL43:
  82:MyHardWare/Src/oled.c ****       OLED_WR_Byte(0, OLED_DATA);
 404              		.loc 1 82 27 discriminator 3 view .LVU80
 405 000e 0134     		adds	r4, r4, #1
 406              	.LVL44:
  82:MyHardWare/Src/oled.c ****       OLED_WR_Byte(0, OLED_DATA);
 407              		.loc 1 82 27 is_stmt 0 discriminator 3 view .LVU81
 408 0010 E4B2     		uxtb	r4, r4
 409              	.LVL45:
 410              	.L32:
  82:MyHardWare/Src/oled.c ****       OLED_WR_Byte(0, OLED_DATA);
 411              		.loc 1 82 19 is_stmt 1 discriminator 1 view .LVU82
 412 0012 14F0800F 		tst	r4, #128
 413 0016 F6D0     		beq	.L33
  78:MyHardWare/Src/oled.c ****   for (i = 0; i < 8; i++) {
 414              		.loc 1 78 23 discriminator 2 view .LVU83
 415 0018 0135     		adds	r5, r5, #1
 416              	.LVL46:
  78:MyHardWare/Src/oled.c ****   for (i = 0; i < 8; i++) {
 417              		.loc 1 78 23 is_stmt 0 discriminator 2 view .LVU84
 418 001a EDB2     		uxtb	r5, r5
 419              	.LVL47:
 420              	.L31:
  78:MyHardWare/Src/oled.c ****   for (i = 0; i < 8; i++) {
ARM GAS  C:\Users\asus\AppData\Local\Temp\ccCXoZzh.s 			page 10


 421              		.loc 1 78 17 is_stmt 1 discriminator 1 view .LVU85
 422 001c 072D     		cmp	r5, #7
 423 001e 0ED8     		bhi	.L36
  79:MyHardWare/Src/oled.c ****     OLED_WR_Byte(0xb0 + i, OLED_CMD); // Ķ«ŠńĮ«ķĪĄÕ£░ÕØĆ’╝ł0~7’╝ē
 424              		.loc 1 79 5 view .LVU86
 425 0020 0021     		movs	r1, #0
 426 0022 05F1B000 		add	r0, r5, #176
 427 0026 FFF7FEFF 		bl	OLED_WR_Byte
 428              	.LVL48:
  80:MyHardWare/Src/oled.c ****     OLED_WR_Byte(0x10, OLED_CMD);     // Ķ«ŠńĮ«µśŠńż║õĮŹńĮ«ŌĆöÕłŚķ½śÕ£░ÕØĆ
 429              		.loc 1 80 5 view .LVU87
 430 002a 0021     		movs	r1, #0
 431 002c 0846     		mov	r0, r1
 432 002e FFF7FEFF 		bl	OLED_WR_Byte
 433              	.LVL49:
  81:MyHardWare/Src/oled.c ****     for (n = 0; n < 128; n++)
 434              		.loc 1 81 5 view .LVU88
 435 0032 0021     		movs	r1, #0
 436 0034 1020     		movs	r0, #16
 437 0036 FFF7FEFF 		bl	OLED_WR_Byte
 438              	.LVL50:
  82:MyHardWare/Src/oled.c ****       OLED_WR_Byte(0, OLED_DATA);
 439              		.loc 1 82 5 view .LVU89
  82:MyHardWare/Src/oled.c ****       OLED_WR_Byte(0, OLED_DATA);
 440              		.loc 1 82 12 is_stmt 0 view .LVU90
 441 003a 0024     		movs	r4, #0
  82:MyHardWare/Src/oled.c ****       OLED_WR_Byte(0, OLED_DATA);
 442              		.loc 1 82 5 view .LVU91
 443 003c E9E7     		b	.L32
 444              	.LVL51:
 445              	.L36:
  84:MyHardWare/Src/oled.c ****   } // µø┤µ¢░µśŠńż║
  85:MyHardWare/Src/oled.c **** }
 446              		.loc 1 85 1 view .LVU92
 447 003e 38BD     		pop	{r3, r4, r5, pc}
 448              		.loc 1 85 1 view .LVU93
 449              		.cfi_endproc
 450              	.LFE130:
 452              		.section	.text.OLED_On,"ax",%progbits
 453              		.align	1
 454              		.global	OLED_On
 455              		.syntax unified
 456              		.thumb
 457              		.thumb_func
 459              	OLED_On:
 460              	.LFB131:
  86:MyHardWare/Src/oled.c **** void OLED_On(void) {
 461              		.loc 1 86 20 is_stmt 1 view -0
 462              		.cfi_startproc
 463              		@ args = 0, pretend = 0, frame = 0
 464              		@ frame_needed = 0, uses_anonymous_args = 0
 465 0000 38B5     		push	{r3, r4, r5, lr}
 466              	.LCFI6:
 467              		.cfi_def_cfa_offset 16
 468              		.cfi_offset 3, -16
 469              		.cfi_offset 4, -12
 470              		.cfi_offset 5, -8
ARM GAS  C:\Users\asus\AppData\Local\Temp\ccCXoZzh.s 			page 11


 471              		.cfi_offset 14, -4
  87:MyHardWare/Src/oled.c ****   u8 i, n;
 472              		.loc 1 87 3 view .LVU95
  88:MyHardWare/Src/oled.c ****   for (i = 0; i < 8; i++) {
 473              		.loc 1 88 3 view .LVU96
 474              	.LVL52:
 475              		.loc 1 88 10 is_stmt 0 view .LVU97
 476 0002 0025     		movs	r5, #0
 477              		.loc 1 88 3 view .LVU98
 478 0004 0AE0     		b	.L38
 479              	.LVL53:
 480              	.L40:
  89:MyHardWare/Src/oled.c ****     OLED_WR_Byte(0xb0 + i, OLED_CMD); // Ķ«ŠńĮ«ķĪĄÕ£░ÕØĆ’╝ł0~7’╝ē
  90:MyHardWare/Src/oled.c ****     OLED_WR_Byte(0x00, OLED_CMD);     // Ķ«ŠńĮ«µśŠńż║õĮŹńĮ«ŌĆöÕłŚõĮÄÕ£░ÕØĆ
  91:MyHardWare/Src/oled.c ****     OLED_WR_Byte(0x10, OLED_CMD);     // Ķ«ŠńĮ«µśŠńż║õĮŹńĮ«ŌĆöÕłŚķ½śÕ£░ÕØĆ
  92:MyHardWare/Src/oled.c ****     for (n = 0; n < 128; n++)
  93:MyHardWare/Src/oled.c ****       OLED_WR_Byte(1, OLED_DATA);
 481              		.loc 1 93 7 is_stmt 1 view .LVU99
 482 0006 0121     		movs	r1, #1
 483 0008 0846     		mov	r0, r1
 484 000a FFF7FEFF 		bl	OLED_WR_Byte
 485              	.LVL54:
  92:MyHardWare/Src/oled.c ****       OLED_WR_Byte(1, OLED_DATA);
 486              		.loc 1 92 27 discriminator 3 view .LVU100
 487 000e 0134     		adds	r4, r4, #1
 488              	.LVL55:
  92:MyHardWare/Src/oled.c ****       OLED_WR_Byte(1, OLED_DATA);
 489              		.loc 1 92 27 is_stmt 0 discriminator 3 view .LVU101
 490 0010 E4B2     		uxtb	r4, r4
 491              	.LVL56:
 492              	.L39:
  92:MyHardWare/Src/oled.c ****       OLED_WR_Byte(1, OLED_DATA);
 493              		.loc 1 92 19 is_stmt 1 discriminator 1 view .LVU102
 494 0012 14F0800F 		tst	r4, #128
 495 0016 F6D0     		beq	.L40
  88:MyHardWare/Src/oled.c ****   for (i = 0; i < 8; i++) {
 496              		.loc 1 88 23 discriminator 2 view .LVU103
 497 0018 0135     		adds	r5, r5, #1
 498              	.LVL57:
  88:MyHardWare/Src/oled.c ****   for (i = 0; i < 8; i++) {
 499              		.loc 1 88 23 is_stmt 0 discriminator 2 view .LVU104
 500 001a EDB2     		uxtb	r5, r5
 501              	.LVL58:
 502              	.L38:
  88:MyHardWare/Src/oled.c ****   for (i = 0; i < 8; i++) {
 503              		.loc 1 88 17 is_stmt 1 discriminator 1 view .LVU105
 504 001c 072D     		cmp	r5, #7
 505 001e 0ED8     		bhi	.L43
  89:MyHardWare/Src/oled.c ****     OLED_WR_Byte(0xb0 + i, OLED_CMD); // Ķ«ŠńĮ«ķĪĄÕ£░ÕØĆ’╝ł0~7’╝ē
 506              		.loc 1 89 5 view .LVU106
 507 0020 0021     		movs	r1, #0
 508 0022 05F1B000 		add	r0, r5, #176
 509 0026 FFF7FEFF 		bl	OLED_WR_Byte
 510              	.LVL59:
  90:MyHardWare/Src/oled.c ****     OLED_WR_Byte(0x10, OLED_CMD);     // Ķ«ŠńĮ«µśŠńż║õĮŹńĮ«ŌĆöÕłŚķ½śÕ£░ÕØĆ
 511              		.loc 1 90 5 view .LVU107
 512 002a 0021     		movs	r1, #0
ARM GAS  C:\Users\asus\AppData\Local\Temp\ccCXoZzh.s 			page 12


 513 002c 0846     		mov	r0, r1
 514 002e FFF7FEFF 		bl	OLED_WR_Byte
 515              	.LVL60:
  91:MyHardWare/Src/oled.c ****     for (n = 0; n < 128; n++)
 516              		.loc 1 91 5 view .LVU108
 517 0032 0021     		movs	r1, #0
 518 0034 1020     		movs	r0, #16
 519 0036 FFF7FEFF 		bl	OLED_WR_Byte
 520              	.LVL61:
  92:MyHardWare/Src/oled.c ****       OLED_WR_Byte(1, OLED_DATA);
 521              		.loc 1 92 5 view .LVU109
  92:MyHardWare/Src/oled.c ****       OLED_WR_Byte(1, OLED_DATA);
 522              		.loc 1 92 12 is_stmt 0 view .LVU110
 523 003a 0024     		movs	r4, #0
  92:MyHardWare/Src/oled.c ****       OLED_WR_Byte(1, OLED_DATA);
 524              		.loc 1 92 5 view .LVU111
 525 003c E9E7     		b	.L39
 526              	.LVL62:
 527              	.L43:
  94:MyHardWare/Src/oled.c ****   } // µø┤µ¢░µśŠńż║
  95:MyHardWare/Src/oled.c **** }
 528              		.loc 1 95 1 view .LVU112
 529 003e 38BD     		pop	{r3, r4, r5, pc}
 530              		.loc 1 95 1 view .LVU113
 531              		.cfi_endproc
 532              	.LFE131:
 534              		.section	.text.OLED_ShowChar,"ax",%progbits
 535              		.align	1
 536              		.global	OLED_ShowChar
 537              		.syntax unified
 538              		.thumb
 539              		.thumb_func
 541              	OLED_ShowChar:
 542              	.LVL63:
 543              	.LFB132:
  96:MyHardWare/Src/oled.c **** // Õ£©µīćÕ«ÜõĮŹńĮ«µśŠńż║õĖĆõĖ¬ÕŁŚń¼”,Õīģµŗ¼ķā©ÕłåÕŁŚń¼”
  97:MyHardWare/Src/oled.c **** // x:0~127
  98:MyHardWare/Src/oled.c **** // y:0~63
  99:MyHardWare/Src/oled.c **** // mode:0,ÕÅŹńÖĮµśŠńż║;1,µŁŻÕĖĖµśŠńż║
 100:MyHardWare/Src/oled.c **** // size:ķĆēµŗ®ÕŁŚõĮō 16/12
 101:MyHardWare/Src/oled.c **** void OLED_ShowChar(u8 x, u8 y, u8 chr, u8 Char_Size) {
 544              		.loc 1 101 54 is_stmt 1 view -0
 545              		.cfi_startproc
 546              		@ args = 0, pretend = 0, frame = 0
 547              		@ frame_needed = 0, uses_anonymous_args = 0
 548              		.loc 1 101 54 is_stmt 0 view .LVU115
 549 0000 F8B5     		push	{r3, r4, r5, r6, r7, lr}
 550              	.LCFI7:
 551              		.cfi_def_cfa_offset 24
 552              		.cfi_offset 3, -24
 553              		.cfi_offset 4, -20
 554              		.cfi_offset 5, -16
 555              		.cfi_offset 6, -12
 556              		.cfi_offset 7, -8
 557              		.cfi_offset 14, -4
 558 0002 0746     		mov	r7, r0
 559 0004 0E46     		mov	r6, r1
ARM GAS  C:\Users\asus\AppData\Local\Temp\ccCXoZzh.s 			page 13


 102:MyHardWare/Src/oled.c ****   unsigned char c = 0, i = 0;
 560              		.loc 1 102 3 is_stmt 1 view .LVU116
 561              	.LVL64:
 103:MyHardWare/Src/oled.c ****   c = chr - ' '; // ÕŠŚÕł░ÕüÅń¦╗ÕÉÄńÜäÕĆ╝
 562              		.loc 1 103 3 view .LVU117
 563              		.loc 1 103 5 is_stmt 0 view .LVU118
 564 0006 203A     		subs	r2, r2, #32
 565              	.LVL65:
 566              		.loc 1 103 5 view .LVU119
 567 0008 D5B2     		uxtb	r5, r2
 568              	.LVL66:
 104:MyHardWare/Src/oled.c ****   if (x > Max_Column - 1) {
 569              		.loc 1 104 3 is_stmt 1 view .LVU120
 570              		.loc 1 104 6 is_stmt 0 view .LVU121
 571 000a 10F0800F 		tst	r0, #128
 572 000e 07D1     		bne	.L55
 573              	.LVL67:
 574              	.L45:
 105:MyHardWare/Src/oled.c ****     x = 0;
 106:MyHardWare/Src/oled.c ****     y = y + 2;
 107:MyHardWare/Src/oled.c ****   }
 108:MyHardWare/Src/oled.c ****   if (Char_Size == 16) {
 575              		.loc 1 108 3 is_stmt 1 view .LVU122
 576              		.loc 1 108 6 is_stmt 0 view .LVU123
 577 0010 102B     		cmp	r3, #16
 578 0012 09D0     		beq	.L56
 109:MyHardWare/Src/oled.c ****     OLED_Set_Pos(x, y);
 110:MyHardWare/Src/oled.c ****     for (i = 0; i < 8; i++)
 111:MyHardWare/Src/oled.c ****       OLED_WR_Byte(F8X16[c * 16 + i], OLED_DATA);
 112:MyHardWare/Src/oled.c ****     OLED_Set_Pos(x, y + 1);
 113:MyHardWare/Src/oled.c ****     for (i = 0; i < 8; i++)
 114:MyHardWare/Src/oled.c ****       OLED_WR_Byte(F8X16[c * 16 + i + 8], OLED_DATA);
 115:MyHardWare/Src/oled.c ****   } else {
 116:MyHardWare/Src/oled.c ****     OLED_Set_Pos(x, y);
 579              		.loc 1 116 5 is_stmt 1 view .LVU124
 580 0014 3146     		mov	r1, r6
 581 0016 3846     		mov	r0, r7
 582 0018 FFF7FEFF 		bl	OLED_Set_Pos
 583              	.LVL68:
 117:MyHardWare/Src/oled.c ****     for (i = 0; i < 6; i++)
 584              		.loc 1 117 5 view .LVU125
 585              		.loc 1 117 12 is_stmt 0 view .LVU126
 586 001c 0024     		movs	r4, #0
 587              		.loc 1 117 5 view .LVU127
 588 001e 33E0     		b	.L52
 589              	.LVL69:
 590              	.L55:
 105:MyHardWare/Src/oled.c ****     x = 0;
 591              		.loc 1 105 5 is_stmt 1 view .LVU128
 106:MyHardWare/Src/oled.c ****   }
 592              		.loc 1 106 5 view .LVU129
 106:MyHardWare/Src/oled.c ****   }
 593              		.loc 1 106 7 is_stmt 0 view .LVU130
 594 0020 0236     		adds	r6, r6, #2
 595 0022 F6B2     		uxtb	r6, r6
 596              	.LVL70:
 105:MyHardWare/Src/oled.c ****     y = y + 2;
ARM GAS  C:\Users\asus\AppData\Local\Temp\ccCXoZzh.s 			page 14


 597              		.loc 1 105 7 view .LVU131
 598 0024 0027     		movs	r7, #0
 599 0026 F3E7     		b	.L45
 600              	.LVL71:
 601              	.L56:
 109:MyHardWare/Src/oled.c ****     for (i = 0; i < 8; i++)
 602              		.loc 1 109 5 is_stmt 1 view .LVU132
 603 0028 3146     		mov	r1, r6
 604 002a 3846     		mov	r0, r7
 605 002c FFF7FEFF 		bl	OLED_Set_Pos
 606              	.LVL72:
 110:MyHardWare/Src/oled.c ****       OLED_WR_Byte(F8X16[c * 16 + i], OLED_DATA);
 607              		.loc 1 110 5 view .LVU133
 110:MyHardWare/Src/oled.c ****       OLED_WR_Byte(F8X16[c * 16 + i], OLED_DATA);
 608              		.loc 1 110 12 is_stmt 0 view .LVU134
 609 0030 0024     		movs	r4, #0
 110:MyHardWare/Src/oled.c ****       OLED_WR_Byte(F8X16[c * 16 + i], OLED_DATA);
 610              		.loc 1 110 5 view .LVU135
 611 0032 08E0     		b	.L47
 612              	.LVL73:
 613              	.L48:
 111:MyHardWare/Src/oled.c ****     OLED_Set_Pos(x, y + 1);
 614              		.loc 1 111 7 is_stmt 1 view .LVU136
 111:MyHardWare/Src/oled.c ****     OLED_Set_Pos(x, y + 1);
 615              		.loc 1 111 33 is_stmt 0 view .LVU137
 616 0034 04EB0513 		add	r3, r4, r5, lsl #4
 111:MyHardWare/Src/oled.c ****     OLED_Set_Pos(x, y + 1);
 617              		.loc 1 111 7 view .LVU138
 618 0038 0121     		movs	r1, #1
 619 003a 154A     		ldr	r2, .L57
 620 003c D05C     		ldrb	r0, [r2, r3]	@ zero_extendqisi2
 621 003e FFF7FEFF 		bl	OLED_WR_Byte
 622              	.LVL74:
 110:MyHardWare/Src/oled.c ****       OLED_WR_Byte(F8X16[c * 16 + i], OLED_DATA);
 623              		.loc 1 110 25 is_stmt 1 discriminator 3 view .LVU139
 624 0042 0134     		adds	r4, r4, #1
 625              	.LVL75:
 110:MyHardWare/Src/oled.c ****       OLED_WR_Byte(F8X16[c * 16 + i], OLED_DATA);
 626              		.loc 1 110 25 is_stmt 0 discriminator 3 view .LVU140
 627 0044 E4B2     		uxtb	r4, r4
 628              	.LVL76:
 629              	.L47:
 110:MyHardWare/Src/oled.c ****       OLED_WR_Byte(F8X16[c * 16 + i], OLED_DATA);
 630              		.loc 1 110 19 is_stmt 1 discriminator 1 view .LVU141
 631 0046 072C     		cmp	r4, #7
 632 0048 F4D9     		bls	.L48
 112:MyHardWare/Src/oled.c ****     for (i = 0; i < 8; i++)
 633              		.loc 1 112 5 view .LVU142
 634 004a 711C     		adds	r1, r6, #1
 635 004c C9B2     		uxtb	r1, r1
 636 004e 3846     		mov	r0, r7
 637 0050 FFF7FEFF 		bl	OLED_Set_Pos
 638              	.LVL77:
 113:MyHardWare/Src/oled.c ****       OLED_WR_Byte(F8X16[c * 16 + i + 8], OLED_DATA);
 639              		.loc 1 113 5 view .LVU143
 113:MyHardWare/Src/oled.c ****       OLED_WR_Byte(F8X16[c * 16 + i + 8], OLED_DATA);
 640              		.loc 1 113 12 is_stmt 0 view .LVU144
ARM GAS  C:\Users\asus\AppData\Local\Temp\ccCXoZzh.s 			page 15


 641 0054 0024     		movs	r4, #0
 113:MyHardWare/Src/oled.c ****       OLED_WR_Byte(F8X16[c * 16 + i + 8], OLED_DATA);
 642              		.loc 1 113 5 view .LVU145
 643 0056 09E0     		b	.L49
 644              	.LVL78:
 645              	.L50:
 114:MyHardWare/Src/oled.c ****   } else {
 646              		.loc 1 114 7 is_stmt 1 view .LVU146
 114:MyHardWare/Src/oled.c ****   } else {
 647              		.loc 1 114 33 is_stmt 0 view .LVU147
 648 0058 04EB0513 		add	r3, r4, r5, lsl #4
 114:MyHardWare/Src/oled.c ****   } else {
 649              		.loc 1 114 37 view .LVU148
 650 005c 0833     		adds	r3, r3, #8
 114:MyHardWare/Src/oled.c ****   } else {
 651              		.loc 1 114 7 view .LVU149
 652 005e 0121     		movs	r1, #1
 653 0060 0B4A     		ldr	r2, .L57
 654 0062 D05C     		ldrb	r0, [r2, r3]	@ zero_extendqisi2
 655 0064 FFF7FEFF 		bl	OLED_WR_Byte
 656              	.LVL79:
 113:MyHardWare/Src/oled.c ****       OLED_WR_Byte(F8X16[c * 16 + i + 8], OLED_DATA);
 657              		.loc 1 113 25 is_stmt 1 discriminator 3 view .LVU150
 658 0068 0134     		adds	r4, r4, #1
 659              	.LVL80:
 113:MyHardWare/Src/oled.c ****       OLED_WR_Byte(F8X16[c * 16 + i + 8], OLED_DATA);
 660              		.loc 1 113 25 is_stmt 0 discriminator 3 view .LVU151
 661 006a E4B2     		uxtb	r4, r4
 662              	.LVL81:
 663              	.L49:
 113:MyHardWare/Src/oled.c ****       OLED_WR_Byte(F8X16[c * 16 + i + 8], OLED_DATA);
 664              		.loc 1 113 19 is_stmt 1 discriminator 1 view .LVU152
 665 006c 072C     		cmp	r4, #7
 666 006e F3D9     		bls	.L50
 667 0070 0CE0     		b	.L44
 668              	.L53:
 118:MyHardWare/Src/oled.c ****       OLED_WR_Byte(F6x8[c][i], OLED_DATA);
 669              		.loc 1 118 7 view .LVU153
 670              		.loc 1 118 27 is_stmt 0 view .LVU154
 671 0072 05EB4502 		add	r2, r5, r5, lsl #1
 672 0076 074B     		ldr	r3, .L57+4
 673 0078 03EB4203 		add	r3, r3, r2, lsl #1
 674              		.loc 1 118 7 view .LVU155
 675 007c 0121     		movs	r1, #1
 676 007e 185D     		ldrb	r0, [r3, r4]	@ zero_extendqisi2
 677 0080 FFF7FEFF 		bl	OLED_WR_Byte
 678              	.LVL82:
 117:MyHardWare/Src/oled.c ****       OLED_WR_Byte(F6x8[c][i], OLED_DATA);
 679              		.loc 1 117 25 is_stmt 1 discriminator 3 view .LVU156
 680 0084 0134     		adds	r4, r4, #1
 681              	.LVL83:
 117:MyHardWare/Src/oled.c ****       OLED_WR_Byte(F6x8[c][i], OLED_DATA);
 682              		.loc 1 117 25 is_stmt 0 discriminator 3 view .LVU157
 683 0086 E4B2     		uxtb	r4, r4
 684              	.LVL84:
 685              	.L52:
 117:MyHardWare/Src/oled.c ****       OLED_WR_Byte(F6x8[c][i], OLED_DATA);
ARM GAS  C:\Users\asus\AppData\Local\Temp\ccCXoZzh.s 			page 16


 686              		.loc 1 117 19 is_stmt 1 discriminator 1 view .LVU158
 687 0088 052C     		cmp	r4, #5
 688 008a F2D9     		bls	.L53
 689              	.L44:
 119:MyHardWare/Src/oled.c ****   }
 120:MyHardWare/Src/oled.c **** }
 690              		.loc 1 120 1 is_stmt 0 view .LVU159
 691 008c F8BD     		pop	{r3, r4, r5, r6, r7, pc}
 692              	.LVL85:
 693              	.L58:
 694              		.loc 1 120 1 view .LVU160
 695 008e 00BF     		.align	2
 696              	.L57:
 697 0090 00000000 		.word	F8X16
 698 0094 00000000 		.word	F6x8
 699              		.cfi_endproc
 700              	.LFE132:
 702              		.section	.text.oled_pow,"ax",%progbits
 703              		.align	1
 704              		.global	oled_pow
 705              		.syntax unified
 706              		.thumb
 707              		.thumb_func
 709              	oled_pow:
 710              	.LVL86:
 711              	.LFB133:
 121:MyHardWare/Src/oled.c **** // m^nÕćĮµĢ░
 122:MyHardWare/Src/oled.c **** u32 oled_pow(u8 m, u8 n) {
 712              		.loc 1 122 26 is_stmt 1 view -0
 713              		.cfi_startproc
 714              		@ args = 0, pretend = 0, frame = 0
 715              		@ frame_needed = 0, uses_anonymous_args = 0
 716              		@ link register save eliminated.
 717              		.loc 1 122 26 is_stmt 0 view .LVU162
 718 0000 0246     		mov	r2, r0
 123:MyHardWare/Src/oled.c ****   u32 result = 1;
 719              		.loc 1 123 3 is_stmt 1 view .LVU163
 720              	.LVL87:
 124:MyHardWare/Src/oled.c ****   while (n--)
 721              		.loc 1 124 3 view .LVU164
 123:MyHardWare/Src/oled.c ****   u32 result = 1;
 722              		.loc 1 123 7 is_stmt 0 view .LVU165
 723 0002 0120     		movs	r0, #1
 724              	.LVL88:
 725              		.loc 1 124 9 view .LVU166
 726 0004 02E0     		b	.L60
 727              	.LVL89:
 728              	.L61:
 125:MyHardWare/Src/oled.c ****     result *= m;
 729              		.loc 1 125 5 is_stmt 1 view .LVU167
 730              		.loc 1 125 12 is_stmt 0 view .LVU168
 731 0006 02FB00F0 		mul	r0, r2, r0
 732              	.LVL90:
 124:MyHardWare/Src/oled.c ****   while (n--)
 733              		.loc 1 124 11 view .LVU169
 734 000a 1946     		mov	r1, r3
 735              	.LVL91:
ARM GAS  C:\Users\asus\AppData\Local\Temp\ccCXoZzh.s 			page 17


 736              	.L60:
 124:MyHardWare/Src/oled.c ****   while (n--)
 737              		.loc 1 124 10 is_stmt 1 view .LVU170
 124:MyHardWare/Src/oled.c ****   while (n--)
 738              		.loc 1 124 11 is_stmt 0 view .LVU171
 739 000c 4B1E     		subs	r3, r1, #1
 740 000e DBB2     		uxtb	r3, r3
 741              	.LVL92:
 124:MyHardWare/Src/oled.c ****   while (n--)
 742              		.loc 1 124 10 view .LVU172
 743 0010 0029     		cmp	r1, #0
 744 0012 F8D1     		bne	.L61
 126:MyHardWare/Src/oled.c ****   return result;
 745              		.loc 1 126 3 is_stmt 1 view .LVU173
 127:MyHardWare/Src/oled.c **** }
 746              		.loc 1 127 1 is_stmt 0 view .LVU174
 747 0014 7047     		bx	lr
 748              		.cfi_endproc
 749              	.LFE133:
 751              		.section	.text.OLED_ShowNum,"ax",%progbits
 752              		.align	1
 753              		.global	OLED_ShowNum
 754              		.syntax unified
 755              		.thumb
 756              		.thumb_func
 758              	OLED_ShowNum:
 759              	.LVL93:
 760              	.LFB134:
 128:MyHardWare/Src/oled.c **** // µśŠńż║2õĖ¬µĢ░ÕŁŚ
 129:MyHardWare/Src/oled.c **** // x,y :ĶĄĘńé╣ÕØÉµĀć
 130:MyHardWare/Src/oled.c **** // len :µĢ░ÕŁŚńÜäõĮŹµĢ░
 131:MyHardWare/Src/oled.c **** // size:ÕŁŚõĮōÕż¦Õ░Å
 132:MyHardWare/Src/oled.c **** // mode:µ©ĪÕ╝Å	0,ÕĪ½Õģģµ©ĪÕ╝Å;1,ÕÅĀÕŖĀµ©ĪÕ╝Å
 133:MyHardWare/Src/oled.c **** // num:µĢ░ÕĆ╝(0~4294967295);
 134:MyHardWare/Src/oled.c **** void OLED_ShowNum(u8 x, u8 y, u32 num, u8 len, u8 size2) {
 761              		.loc 1 134 58 is_stmt 1 view -0
 762              		.cfi_startproc
 763              		@ args = 4, pretend = 0, frame = 0
 764              		@ frame_needed = 0, uses_anonymous_args = 0
 765              		.loc 1 134 58 is_stmt 0 view .LVU176
 766 0000 2DE9F047 		push	{r4, r5, r6, r7, r8, r9, r10, lr}
 767              	.LCFI8:
 768              		.cfi_def_cfa_offset 32
 769              		.cfi_offset 4, -32
 770              		.cfi_offset 5, -28
 771              		.cfi_offset 6, -24
 772              		.cfi_offset 7, -20
 773              		.cfi_offset 8, -16
 774              		.cfi_offset 9, -12
 775              		.cfi_offset 10, -8
 776              		.cfi_offset 14, -4
 777 0004 8246     		mov	r10, r0
 778 0006 8946     		mov	r9, r1
 779 0008 9046     		mov	r8, r2
 780 000a 1D46     		mov	r5, r3
 781 000c 9DF82060 		ldrb	r6, [sp, #32]	@ zero_extendqisi2
 135:MyHardWare/Src/oled.c ****   u8 t, temp;
ARM GAS  C:\Users\asus\AppData\Local\Temp\ccCXoZzh.s 			page 18


 782              		.loc 1 135 3 is_stmt 1 view .LVU177
 136:MyHardWare/Src/oled.c ****   u8 enshow = 0;
 783              		.loc 1 136 3 view .LVU178
 784              	.LVL94:
 137:MyHardWare/Src/oled.c ****   for (t = 0; t < len; t++) {
 785              		.loc 1 137 3 view .LVU179
 136:MyHardWare/Src/oled.c ****   u8 enshow = 0;
 786              		.loc 1 136 6 is_stmt 0 view .LVU180
 787 0010 0027     		movs	r7, #0
 788              		.loc 1 137 10 view .LVU181
 789 0012 3C46     		mov	r4, r7
 790              		.loc 1 137 3 view .LVU182
 791 0014 19E0     		b	.L63
 792              	.LVL95:
 793              	.L70:
 138:MyHardWare/Src/oled.c ****     temp = (num / oled_pow(10, len - t - 1)) % 10;
 139:MyHardWare/Src/oled.c ****     if (enshow == 0 && t < (len - 1)) {
 140:MyHardWare/Src/oled.c ****       if (temp == 0) {
 141:MyHardWare/Src/oled.c ****         OLED_ShowChar(x + (size2 / 2) * t, y, ' ', size2);
 794              		.loc 1 141 9 is_stmt 1 view .LVU183
 795              		.loc 1 141 39 is_stmt 0 view .LVU184
 796 0016 7008     		lsrs	r0, r6, #1
 797 0018 10FB04F0 		smulbb	r0, r0, r4
 798              		.loc 1 141 9 view .LVU185
 799 001c 5AFA80F0 		uxtab	r0, r10, r0
 800 0020 3346     		mov	r3, r6
 801 0022 2022     		movs	r2, #32
 802              	.LVL96:
 803              		.loc 1 141 9 view .LVU186
 804 0024 4946     		mov	r1, r9
 805 0026 C0B2     		uxtb	r0, r0
 806 0028 FFF7FEFF 		bl	OLED_ShowChar
 807              	.LVL97:
 142:MyHardWare/Src/oled.c ****         continue;
 808              		.loc 1 142 9 is_stmt 1 view .LVU187
 809 002c 0BE0     		b	.L65
 810              	.LVL98:
 811              	.L64:
 143:MyHardWare/Src/oled.c ****       } else
 144:MyHardWare/Src/oled.c ****         enshow = 1;
 145:MyHardWare/Src/oled.c ****     }
 146:MyHardWare/Src/oled.c ****     OLED_ShowChar(x + (size2 / 2) * t, y, temp + '0', size2);
 812              		.loc 1 146 5 view .LVU188
 813              		.loc 1 146 35 is_stmt 0 view .LVU189
 814 002e 7008     		lsrs	r0, r6, #1
 815 0030 10FB04F0 		smulbb	r0, r0, r4
 816              		.loc 1 146 5 view .LVU190
 817 0034 3032     		adds	r2, r2, #48
 818              	.LVL99:
 819              		.loc 1 146 5 view .LVU191
 820 0036 5AFA80F0 		uxtab	r0, r10, r0
 821 003a 3346     		mov	r3, r6
 822 003c D2B2     		uxtb	r2, r2
 823              	.LVL100:
 824              		.loc 1 146 5 view .LVU192
 825 003e 4946     		mov	r1, r9
 826 0040 C0B2     		uxtb	r0, r0
ARM GAS  C:\Users\asus\AppData\Local\Temp\ccCXoZzh.s 			page 19


 827 0042 FFF7FEFF 		bl	OLED_ShowChar
 828              	.LVL101:
 829              	.L65:
 137:MyHardWare/Src/oled.c ****     temp = (num / oled_pow(10, len - t - 1)) % 10;
 830              		.loc 1 137 25 is_stmt 1 discriminator 2 view .LVU193
 831 0046 0134     		adds	r4, r4, #1
 832              	.LVL102:
 137:MyHardWare/Src/oled.c ****     temp = (num / oled_pow(10, len - t - 1)) % 10;
 833              		.loc 1 137 25 is_stmt 0 discriminator 2 view .LVU194
 834 0048 E4B2     		uxtb	r4, r4
 835              	.LVL103:
 836              	.L63:
 137:MyHardWare/Src/oled.c ****     temp = (num / oled_pow(10, len - t - 1)) % 10;
 837              		.loc 1 137 17 is_stmt 1 discriminator 1 view .LVU195
 838 004a AC42     		cmp	r4, r5
 839 004c 1CD2     		bcs	.L69
 138:MyHardWare/Src/oled.c ****     if (enshow == 0 && t < (len - 1)) {
 840              		.loc 1 138 5 view .LVU196
 138:MyHardWare/Src/oled.c ****     if (enshow == 0 && t < (len - 1)) {
 841              		.loc 1 138 36 is_stmt 0 view .LVU197
 842 004e 291B     		subs	r1, r5, r4
 843 0050 C9B2     		uxtb	r1, r1
 138:MyHardWare/Src/oled.c ****     if (enshow == 0 && t < (len - 1)) {
 844              		.loc 1 138 19 view .LVU198
 845 0052 0139     		subs	r1, r1, #1
 846 0054 C9B2     		uxtb	r1, r1
 847 0056 0A20     		movs	r0, #10
 848 0058 FFF7FEFF 		bl	oled_pow
 849              	.LVL104:
 138:MyHardWare/Src/oled.c ****     if (enshow == 0 && t < (len - 1)) {
 850              		.loc 1 138 17 discriminator 1 view .LVU199
 851 005c B8FBF0F0 		udiv	r0, r8, r0
 138:MyHardWare/Src/oled.c ****     if (enshow == 0 && t < (len - 1)) {
 852              		.loc 1 138 46 discriminator 1 view .LVU200
 853 0060 0A4B     		ldr	r3, .L71
 854 0062 A3FB003C 		umull	r3, ip, r3, r0
 855 0066 4FEADC0C 		lsr	ip, ip, #3
 856 006a 0CEB8C0C 		add	ip, ip, ip, lsl #2
 857 006e A0EB4C0C 		sub	ip, r0, ip, lsl #1
 138:MyHardWare/Src/oled.c ****     if (enshow == 0 && t < (len - 1)) {
 858              		.loc 1 138 10 discriminator 1 view .LVU201
 859 0072 5FFA8CF2 		uxtb	r2, ip
 860              	.LVL105:
 139:MyHardWare/Src/oled.c ****       if (temp == 0) {
 861              		.loc 1 139 5 is_stmt 1 view .LVU202
 139:MyHardWare/Src/oled.c ****       if (temp == 0) {
 862              		.loc 1 139 8 is_stmt 0 view .LVU203
 863 0076 002F     		cmp	r7, #0
 864 0078 D9D1     		bne	.L64
 139:MyHardWare/Src/oled.c ****       if (temp == 0) {
 865              		.loc 1 139 33 discriminator 1 view .LVU204
 866 007a 6B1E     		subs	r3, r5, #1
 139:MyHardWare/Src/oled.c ****       if (temp == 0) {
 867              		.loc 1 139 21 discriminator 1 view .LVU205
 868 007c 9C42     		cmp	r4, r3
 869 007e D6DA     		bge	.L64
 140:MyHardWare/Src/oled.c ****         OLED_ShowChar(x + (size2 / 2) * t, y, ' ', size2);
ARM GAS  C:\Users\asus\AppData\Local\Temp\ccCXoZzh.s 			page 20


 870              		.loc 1 140 7 is_stmt 1 view .LVU206
 140:MyHardWare/Src/oled.c ****         OLED_ShowChar(x + (size2 / 2) * t, y, ' ', size2);
 871              		.loc 1 140 10 is_stmt 0 view .LVU207
 872 0080 002A     		cmp	r2, #0
 873 0082 C8D0     		beq	.L70
 144:MyHardWare/Src/oled.c ****     }
 874              		.loc 1 144 16 view .LVU208
 875 0084 0127     		movs	r7, #1
 876              	.LVL106:
 144:MyHardWare/Src/oled.c ****     }
 877              		.loc 1 144 16 view .LVU209
 878 0086 D2E7     		b	.L64
 879              	.LVL107:
 880              	.L69:
 147:MyHardWare/Src/oled.c ****   }
 148:MyHardWare/Src/oled.c **** }
 881              		.loc 1 148 1 view .LVU210
 882 0088 BDE8F087 		pop	{r4, r5, r6, r7, r8, r9, r10, pc}
 883              	.LVL108:
 884              	.L72:
 885              		.loc 1 148 1 view .LVU211
 886              		.align	2
 887              	.L71:
 888 008c CDCCCCCC 		.word	-858993459
 889              		.cfi_endproc
 890              	.LFE134:
 892              		.section	.text.OLED_ShowString,"ax",%progbits
 893              		.align	1
 894              		.global	OLED_ShowString
 895              		.syntax unified
 896              		.thumb
 897              		.thumb_func
 899              	OLED_ShowString:
 900              	.LVL109:
 901              	.LFB135:
 149:MyHardWare/Src/oled.c **** // µśŠńż║õĖĆõĖ¬ÕŁŚń¼”ÕÅĘõĖ▓
 150:MyHardWare/Src/oled.c **** void OLED_ShowString(u8 x, u8 y, u8 *chr, u8 Char_Size) {
 902              		.loc 1 150 57 is_stmt 1 view -0
 903              		.cfi_startproc
 904              		@ args = 0, pretend = 0, frame = 0
 905              		@ frame_needed = 0, uses_anonymous_args = 0
 906              		.loc 1 150 57 is_stmt 0 view .LVU213
 907 0000 2DE9F041 		push	{r4, r5, r6, r7, r8, lr}
 908              	.LCFI9:
 909              		.cfi_def_cfa_offset 24
 910              		.cfi_offset 4, -24
 911              		.cfi_offset 5, -20
 912              		.cfi_offset 6, -16
 913              		.cfi_offset 7, -12
 914              		.cfi_offset 8, -8
 915              		.cfi_offset 14, -4
 916 0004 0446     		mov	r4, r0
 917 0006 0E46     		mov	r6, r1
 918 0008 1746     		mov	r7, r2
 919 000a 9846     		mov	r8, r3
 151:MyHardWare/Src/oled.c ****   unsigned char j = 0;
 920              		.loc 1 151 3 is_stmt 1 view .LVU214
ARM GAS  C:\Users\asus\AppData\Local\Temp\ccCXoZzh.s 			page 21


 921              	.LVL110:
 152:MyHardWare/Src/oled.c ****   while (chr[j] != '\0') {
 922              		.loc 1 152 3 view .LVU215
 151:MyHardWare/Src/oled.c ****   unsigned char j = 0;
 923              		.loc 1 151 17 is_stmt 0 view .LVU216
 924 000c 0025     		movs	r5, #0
 925              		.loc 1 152 9 view .LVU217
 926 000e 01E0     		b	.L74
 927              	.LVL111:
 928              	.L75:
 153:MyHardWare/Src/oled.c ****     OLED_ShowChar(x, y, chr[j], Char_Size);
 154:MyHardWare/Src/oled.c ****     x += 8;
 155:MyHardWare/Src/oled.c ****     if (x > 120) {
 156:MyHardWare/Src/oled.c ****       x = 0;
 157:MyHardWare/Src/oled.c ****       y += 2;
 158:MyHardWare/Src/oled.c ****     }
 159:MyHardWare/Src/oled.c ****     j++;
 929              		.loc 1 159 5 is_stmt 1 view .LVU218
 930              		.loc 1 159 6 is_stmt 0 view .LVU219
 931 0010 0135     		adds	r5, r5, #1
 932              	.LVL112:
 933              		.loc 1 159 6 view .LVU220
 934 0012 EDB2     		uxtb	r5, r5
 935              	.LVL113:
 936              	.L74:
 152:MyHardWare/Src/oled.c ****   while (chr[j] != '\0') {
 937              		.loc 1 152 17 is_stmt 1 view .LVU221
 152:MyHardWare/Src/oled.c ****   while (chr[j] != '\0') {
 938              		.loc 1 152 13 is_stmt 0 view .LVU222
 939 0014 7A5D     		ldrb	r2, [r7, r5]	@ zero_extendqisi2
 152:MyHardWare/Src/oled.c ****   while (chr[j] != '\0') {
 940              		.loc 1 152 17 view .LVU223
 941 0016 62B1     		cbz	r2, .L78
 153:MyHardWare/Src/oled.c ****     OLED_ShowChar(x, y, chr[j], Char_Size);
 942              		.loc 1 153 5 is_stmt 1 view .LVU224
 943 0018 4346     		mov	r3, r8
 944 001a 3146     		mov	r1, r6
 945 001c 2046     		mov	r0, r4
 946 001e FFF7FEFF 		bl	OLED_ShowChar
 947              	.LVL114:
 154:MyHardWare/Src/oled.c ****     if (x > 120) {
 948              		.loc 1 154 5 view .LVU225
 154:MyHardWare/Src/oled.c ****     if (x > 120) {
 949              		.loc 1 154 7 is_stmt 0 view .LVU226
 950 0022 0834     		adds	r4, r4, #8
 951              	.LVL115:
 154:MyHardWare/Src/oled.c ****     if (x > 120) {
 952              		.loc 1 154 7 view .LVU227
 953 0024 E4B2     		uxtb	r4, r4
 954              	.LVL116:
 155:MyHardWare/Src/oled.c ****       x = 0;
 955              		.loc 1 155 5 is_stmt 1 view .LVU228
 155:MyHardWare/Src/oled.c ****       x = 0;
 956              		.loc 1 155 8 is_stmt 0 view .LVU229
 957 0026 782C     		cmp	r4, #120
 958 0028 F2D9     		bls	.L75
 156:MyHardWare/Src/oled.c ****       y += 2;
ARM GAS  C:\Users\asus\AppData\Local\Temp\ccCXoZzh.s 			page 22


 959              		.loc 1 156 7 is_stmt 1 view .LVU230
 960              	.LVL117:
 157:MyHardWare/Src/oled.c ****     }
 961              		.loc 1 157 7 view .LVU231
 157:MyHardWare/Src/oled.c ****     }
 962              		.loc 1 157 9 is_stmt 0 view .LVU232
 963 002a 0236     		adds	r6, r6, #2
 964              	.LVL118:
 157:MyHardWare/Src/oled.c ****     }
 965              		.loc 1 157 9 view .LVU233
 966 002c F6B2     		uxtb	r6, r6
 967              	.LVL119:
 156:MyHardWare/Src/oled.c ****       y += 2;
 968              		.loc 1 156 9 view .LVU234
 969 002e 0024     		movs	r4, #0
 970 0030 EEE7     		b	.L75
 971              	.LVL120:
 972              	.L78:
 160:MyHardWare/Src/oled.c ****   }
 161:MyHardWare/Src/oled.c **** }
 973              		.loc 1 161 1 view .LVU235
 974 0032 BDE8F081 		pop	{r4, r5, r6, r7, r8, pc}
 975              		.loc 1 161 1 view .LVU236
 976              		.cfi_endproc
 977              	.LFE135:
 979              		.section	.text.OLED_ShowCHinese,"ax",%progbits
 980              		.align	1
 981              		.global	OLED_ShowCHinese
 982              		.syntax unified
 983              		.thumb
 984              		.thumb_func
 986              	OLED_ShowCHinese:
 987              	.LVL121:
 988              	.LFB136:
 162:MyHardWare/Src/oled.c **** // µśŠńż║µ▒ēÕŁŚ
 163:MyHardWare/Src/oled.c **** void OLED_ShowCHinese(u8 x, u8 y, u8 no) {
 989              		.loc 1 163 42 is_stmt 1 view -0
 990              		.cfi_startproc
 991              		@ args = 0, pretend = 0, frame = 0
 992              		@ frame_needed = 0, uses_anonymous_args = 0
 993              		.loc 1 163 42 is_stmt 0 view .LVU238
 994 0000 F8B5     		push	{r3, r4, r5, r6, r7, lr}
 995              	.LCFI10:
 996              		.cfi_def_cfa_offset 24
 997              		.cfi_offset 3, -24
 998              		.cfi_offset 4, -20
 999              		.cfi_offset 5, -16
 1000              		.cfi_offset 6, -12
 1001              		.cfi_offset 7, -8
 1002              		.cfi_offset 14, -4
 1003 0002 0746     		mov	r7, r0
 1004 0004 0E46     		mov	r6, r1
 1005 0006 1546     		mov	r5, r2
 164:MyHardWare/Src/oled.c ****   u8 t, adder = 0;
 1006              		.loc 1 164 3 is_stmt 1 view .LVU239
 1007              	.LVL122:
 165:MyHardWare/Src/oled.c ****   OLED_Set_Pos(x, y);
ARM GAS  C:\Users\asus\AppData\Local\Temp\ccCXoZzh.s 			page 23


 1008              		.loc 1 165 3 view .LVU240
 1009 0008 FFF7FEFF 		bl	OLED_Set_Pos
 1010              	.LVL123:
 166:MyHardWare/Src/oled.c ****   for (t = 0; t < 16; t++) {
 1011              		.loc 1 166 3 view .LVU241
 1012              		.loc 1 166 10 is_stmt 0 view .LVU242
 1013 000c 0024     		movs	r4, #0
 1014              		.loc 1 166 3 view .LVU243
 1015 000e 08E0     		b	.L80
 1016              	.LVL124:
 1017              	.L81:
 167:MyHardWare/Src/oled.c ****     OLED_WR_Byte(Hzk[2 * no][t], OLED_DATA);
 1018              		.loc 1 167 5 is_stmt 1 view .LVU244
 1019              		.loc 1 167 29 is_stmt 0 view .LVU245
 1020 0010 0F4B     		ldr	r3, .L85
 1021 0012 03EB8513 		add	r3, r3, r5, lsl #6
 1022              		.loc 1 167 5 view .LVU246
 1023 0016 0121     		movs	r1, #1
 1024 0018 185D     		ldrb	r0, [r3, r4]	@ zero_extendqisi2
 1025 001a FFF7FEFF 		bl	OLED_WR_Byte
 1026              	.LVL125:
 168:MyHardWare/Src/oled.c ****     adder += 1;
 1027              		.loc 1 168 5 is_stmt 1 view .LVU247
 166:MyHardWare/Src/oled.c ****   for (t = 0; t < 16; t++) {
 1028              		.loc 1 166 24 discriminator 3 view .LVU248
 1029 001e 0134     		adds	r4, r4, #1
 1030              	.LVL126:
 166:MyHardWare/Src/oled.c ****   for (t = 0; t < 16; t++) {
 1031              		.loc 1 166 24 is_stmt 0 discriminator 3 view .LVU249
 1032 0020 E4B2     		uxtb	r4, r4
 1033              	.LVL127:
 1034              	.L80:
 166:MyHardWare/Src/oled.c ****   for (t = 0; t < 16; t++) {
 1035              		.loc 1 166 17 is_stmt 1 discriminator 1 view .LVU250
 1036 0022 0F2C     		cmp	r4, #15
 1037 0024 F4D9     		bls	.L81
 169:MyHardWare/Src/oled.c ****   }
 170:MyHardWare/Src/oled.c ****   OLED_Set_Pos(x, y + 1);
 1038              		.loc 1 170 3 view .LVU251
 1039 0026 711C     		adds	r1, r6, #1
 1040 0028 C9B2     		uxtb	r1, r1
 1041 002a 3846     		mov	r0, r7
 1042 002c FFF7FEFF 		bl	OLED_Set_Pos
 1043              	.LVL128:
 171:MyHardWare/Src/oled.c ****   for (t = 0; t < 16; t++) {
 1044              		.loc 1 171 3 view .LVU252
 1045              		.loc 1 171 10 is_stmt 0 view .LVU253
 1046 0030 0024     		movs	r4, #0
 1047              		.loc 1 171 3 view .LVU254
 1048 0032 0AE0     		b	.L82
 1049              	.LVL129:
 1050              	.L83:
 172:MyHardWare/Src/oled.c ****     OLED_WR_Byte(Hzk[2 * no + 1][t], OLED_DATA);
 1051              		.loc 1 172 5 is_stmt 1 view .LVU255
 1052              		.loc 1 172 24 is_stmt 0 view .LVU256
 1053 0034 6900     		lsls	r1, r5, #1
 1054              		.loc 1 172 29 view .LVU257
ARM GAS  C:\Users\asus\AppData\Local\Temp\ccCXoZzh.s 			page 24


 1055 0036 0131     		adds	r1, r1, #1
 1056              		.loc 1 172 33 view .LVU258
 1057 0038 054B     		ldr	r3, .L85
 1058 003a 03EB4113 		add	r3, r3, r1, lsl #5
 1059              		.loc 1 172 5 view .LVU259
 1060 003e 0121     		movs	r1, #1
 1061 0040 185D     		ldrb	r0, [r3, r4]	@ zero_extendqisi2
 1062 0042 FFF7FEFF 		bl	OLED_WR_Byte
 1063              	.LVL130:
 173:MyHardWare/Src/oled.c ****     adder += 1;
 1064              		.loc 1 173 5 is_stmt 1 view .LVU260
 171:MyHardWare/Src/oled.c ****   for (t = 0; t < 16; t++) {
 1065              		.loc 1 171 24 discriminator 3 view .LVU261
 1066 0046 0134     		adds	r4, r4, #1
 1067              	.LVL131:
 171:MyHardWare/Src/oled.c ****   for (t = 0; t < 16; t++) {
 1068              		.loc 1 171 24 is_stmt 0 discriminator 3 view .LVU262
 1069 0048 E4B2     		uxtb	r4, r4
 1070              	.LVL132:
 1071              	.L82:
 171:MyHardWare/Src/oled.c ****   for (t = 0; t < 16; t++) {
 1072              		.loc 1 171 17 is_stmt 1 discriminator 1 view .LVU263
 1073 004a 0F2C     		cmp	r4, #15
 1074 004c F2D9     		bls	.L83
 174:MyHardWare/Src/oled.c ****   }
 175:MyHardWare/Src/oled.c **** }
 1075              		.loc 1 175 1 is_stmt 0 view .LVU264
 1076 004e F8BD     		pop	{r3, r4, r5, r6, r7, pc}
 1077              	.LVL133:
 1078              	.L86:
 1079              		.loc 1 175 1 view .LVU265
 1080              		.align	2
 1081              	.L85:
 1082 0050 00000000 		.word	Hzk
 1083              		.cfi_endproc
 1084              	.LFE136:
 1086              		.section	.text.OLED_DrawBMP,"ax",%progbits
 1087              		.align	1
 1088              		.global	OLED_DrawBMP
 1089              		.syntax unified
 1090              		.thumb
 1091              		.thumb_func
 1093              	OLED_DrawBMP:
 1094              	.LVL134:
 1095              	.LFB137:
 176:MyHardWare/Src/oled.c **** /***********ÕŖ¤ĶāĮµÅÅĶ┐░’╝ÜµśŠńż║µśŠńż║BMPÕøŠńēć128├Ś64ĶĄĘÕ¦ŗńé╣ÕØÉµĀć(x,y),xńÜäĶīāÕø┤0’Į×127’╝īyõĖ
 177:MyHardWare/Src/oled.c **** void OLED_DrawBMP(unsigned char x0, unsigned char y0, unsigned char x1,
 178:MyHardWare/Src/oled.c ****                   unsigned char y1, unsigned char BMP[]) {
 1096              		.loc 1 178 58 is_stmt 1 view -0
 1097              		.cfi_startproc
 1098              		@ args = 4, pretend = 0, frame = 0
 1099              		@ frame_needed = 0, uses_anonymous_args = 0
 1100              		.loc 1 178 58 is_stmt 0 view .LVU267
 1101 0000 2DE9F84F 		push	{r3, r4, r5, r6, r7, r8, r9, r10, fp, lr}
 1102              	.LCFI11:
 1103              		.cfi_def_cfa_offset 40
 1104              		.cfi_offset 3, -40
ARM GAS  C:\Users\asus\AppData\Local\Temp\ccCXoZzh.s 			page 25


 1105              		.cfi_offset 4, -36
 1106              		.cfi_offset 5, -32
 1107              		.cfi_offset 6, -28
 1108              		.cfi_offset 7, -24
 1109              		.cfi_offset 8, -20
 1110              		.cfi_offset 9, -16
 1111              		.cfi_offset 10, -12
 1112              		.cfi_offset 11, -8
 1113              		.cfi_offset 14, -4
 1114 0004 8146     		mov	r9, r0
 1115 0006 8846     		mov	r8, r1
 1116 0008 1646     		mov	r6, r2
 1117 000a 9A46     		mov	r10, r3
 1118 000c 0A9F     		ldr	r7, [sp, #40]
 179:MyHardWare/Src/oled.c ****   unsigned int j = 0;
 1119              		.loc 1 179 3 is_stmt 1 view .LVU268
 1120              	.LVL135:
 180:MyHardWare/Src/oled.c ****   unsigned char x, y;
 1121              		.loc 1 180 3 view .LVU269
 181:MyHardWare/Src/oled.c **** 
 182:MyHardWare/Src/oled.c ****   if (y1 % 8 == 0)
 1122              		.loc 1 182 3 view .LVU270
 183:MyHardWare/Src/oled.c ****     y = y1 / 8;
 184:MyHardWare/Src/oled.c ****   else
 185:MyHardWare/Src/oled.c ****     y = y1 / 8 + 1;
 1123              		.loc 1 185 5 view .LVU271
 186:MyHardWare/Src/oled.c ****   for (y = y0; y < y1; y++) {
 187:MyHardWare/Src/oled.c ****     OLED_Set_Pos(x0, y);
 188:MyHardWare/Src/oled.c ****     for (x = x0; x < x1; x++) {
 189:MyHardWare/Src/oled.c ****       OLED_WR_Byte(BMP[j++], OLED_DATA);
 1124              		.loc 1 189 25 is_stmt 0 view .LVU272
 1125 000e 4FF0000B 		mov	fp, #0
 1126 0012 0FE0     		b	.L88
 1127              	.LVL136:
 1128              	.L90:
 1129              		.loc 1 189 7 is_stmt 1 view .LVU273
 1130              		.loc 1 189 25 is_stmt 0 view .LVU274
 1131 0014 0BF10105 		add	r5, fp, #1
 1132              	.LVL137:
 1133              		.loc 1 189 7 view .LVU275
 1134 0018 0121     		movs	r1, #1
 1135 001a 17F80B00 		ldrb	r0, [r7, fp]	@ zero_extendqisi2
 1136 001e FFF7FEFF 		bl	OLED_WR_Byte
 1137              	.LVL138:
 188:MyHardWare/Src/oled.c ****       OLED_WR_Byte(BMP[j++], OLED_DATA);
 1138              		.loc 1 188 27 is_stmt 1 discriminator 3 view .LVU276
 1139 0022 0134     		adds	r4, r4, #1
 1140              	.LVL139:
 188:MyHardWare/Src/oled.c ****       OLED_WR_Byte(BMP[j++], OLED_DATA);
 1141              		.loc 1 188 27 is_stmt 0 discriminator 3 view .LVU277
 1142 0024 E4B2     		uxtb	r4, r4
 1143              	.LVL140:
 1144              		.loc 1 189 25 view .LVU278
 1145 0026 AB46     		mov	fp, r5
 1146              	.LVL141:
 1147              	.L89:
 188:MyHardWare/Src/oled.c ****       OLED_WR_Byte(BMP[j++], OLED_DATA);
ARM GAS  C:\Users\asus\AppData\Local\Temp\ccCXoZzh.s 			page 26


 1148              		.loc 1 188 20 is_stmt 1 discriminator 1 view .LVU279
 1149 0028 B442     		cmp	r4, r6
 1150 002a F3D3     		bcc	.L90
 186:MyHardWare/Src/oled.c ****   for (y = y0; y < y1; y++) {
 1151              		.loc 1 186 25 discriminator 2 view .LVU280
 1152 002c 08F10108 		add	r8, r8, #1
 1153              	.LVL142:
 186:MyHardWare/Src/oled.c ****   for (y = y0; y < y1; y++) {
 1154              		.loc 1 186 25 is_stmt 0 discriminator 2 view .LVU281
 1155 0030 5FFA88F8 		uxtb	r8, r8
 1156              	.LVL143:
 1157              	.L88:
 186:MyHardWare/Src/oled.c ****   for (y = y0; y < y1; y++) {
 1158              		.loc 1 186 18 is_stmt 1 discriminator 1 view .LVU282
 1159 0034 D045     		cmp	r8, r10
 1160 0036 05D2     		bcs	.L93
 187:MyHardWare/Src/oled.c ****     for (x = x0; x < x1; x++) {
 1161              		.loc 1 187 5 view .LVU283
 1162 0038 4146     		mov	r1, r8
 1163 003a 4846     		mov	r0, r9
 1164 003c FFF7FEFF 		bl	OLED_Set_Pos
 1165              	.LVL144:
 188:MyHardWare/Src/oled.c ****       OLED_WR_Byte(BMP[j++], OLED_DATA);
 1166              		.loc 1 188 5 view .LVU284
 188:MyHardWare/Src/oled.c ****       OLED_WR_Byte(BMP[j++], OLED_DATA);
 1167              		.loc 1 188 12 is_stmt 0 view .LVU285
 1168 0040 4C46     		mov	r4, r9
 188:MyHardWare/Src/oled.c ****       OLED_WR_Byte(BMP[j++], OLED_DATA);
 1169              		.loc 1 188 5 view .LVU286
 1170 0042 F1E7     		b	.L89
 1171              	.LVL145:
 1172              	.L93:
 190:MyHardWare/Src/oled.c ****     }
 191:MyHardWare/Src/oled.c ****   }
 192:MyHardWare/Src/oled.c **** }
 1173              		.loc 1 192 1 view .LVU287
 1174 0044 BDE8F88F 		pop	{r3, r4, r5, r6, r7, r8, r9, r10, fp, pc}
 1175              		.loc 1 192 1 view .LVU288
 1176              		.cfi_endproc
 1177              	.LFE137:
 1179              		.section	.text.OLED_Init,"ax",%progbits
 1180              		.align	1
 1181              		.global	OLED_Init
 1182              		.syntax unified
 1183              		.thumb
 1184              		.thumb_func
 1186              	OLED_Init:
 1187              	.LFB138:
 193:MyHardWare/Src/oled.c **** 
 194:MyHardWare/Src/oled.c **** // ÕłØÕ¦ŗÕī¢SSD1306
 195:MyHardWare/Src/oled.c **** void OLED_Init(void) {
 1188              		.loc 1 195 22 is_stmt 1 view -0
 1189              		.cfi_startproc
 1190              		@ args = 0, pretend = 0, frame = 0
 1191              		@ frame_needed = 0, uses_anonymous_args = 0
 1192 0000 08B5     		push	{r3, lr}
 1193              	.LCFI12:
ARM GAS  C:\Users\asus\AppData\Local\Temp\ccCXoZzh.s 			page 27


 1194              		.cfi_def_cfa_offset 8
 1195              		.cfi_offset 3, -8
 1196              		.cfi_offset 14, -4
 196:MyHardWare/Src/oled.c **** 
 197:MyHardWare/Src/oled.c ****   IIC_Init();
 1197              		.loc 1 197 3 view .LVU290
 1198 0002 FFF7FEFF 		bl	IIC_Init
 1199              	.LVL146:
 198:MyHardWare/Src/oled.c **** 
 199:MyHardWare/Src/oled.c ****   delay_ms(200);
 1200              		.loc 1 199 3 view .LVU291
 1201 0006 C820     		movs	r0, #200
 1202 0008 FFF7FEFF 		bl	delay_ms
 1203              	.LVL147:
 200:MyHardWare/Src/oled.c **** 
 201:MyHardWare/Src/oled.c ****   OLED_WR_Byte(0xAE, OLED_CMD); //--display off
 1204              		.loc 1 201 3 view .LVU292
 1205 000c 0021     		movs	r1, #0
 1206 000e AE20     		movs	r0, #174
 1207 0010 FFF7FEFF 		bl	OLED_WR_Byte
 1208              	.LVL148:
 202:MyHardWare/Src/oled.c ****   OLED_WR_Byte(0x00, OLED_CMD); //---set low column address
 1209              		.loc 1 202 3 view .LVU293
 1210 0014 0021     		movs	r1, #0
 1211 0016 0846     		mov	r0, r1
 1212 0018 FFF7FEFF 		bl	OLED_WR_Byte
 1213              	.LVL149:
 203:MyHardWare/Src/oled.c ****   OLED_WR_Byte(0x10, OLED_CMD); //---set high column address
 1214              		.loc 1 203 3 view .LVU294
 1215 001c 0021     		movs	r1, #0
 1216 001e 1020     		movs	r0, #16
 1217 0020 FFF7FEFF 		bl	OLED_WR_Byte
 1218              	.LVL150:
 204:MyHardWare/Src/oled.c ****   OLED_WR_Byte(0x40, OLED_CMD); //--set start line address
 1219              		.loc 1 204 3 view .LVU295
 1220 0024 0021     		movs	r1, #0
 1221 0026 4020     		movs	r0, #64
 1222 0028 FFF7FEFF 		bl	OLED_WR_Byte
 1223              	.LVL151:
 205:MyHardWare/Src/oled.c ****   OLED_WR_Byte(0xB0, OLED_CMD); //--set page address
 1224              		.loc 1 205 3 view .LVU296
 1225 002c 0021     		movs	r1, #0
 1226 002e B020     		movs	r0, #176
 1227 0030 FFF7FEFF 		bl	OLED_WR_Byte
 1228              	.LVL152:
 206:MyHardWare/Src/oled.c ****   OLED_WR_Byte(0x81, OLED_CMD); // contract control
 1229              		.loc 1 206 3 view .LVU297
 1230 0034 0021     		movs	r1, #0
 1231 0036 8120     		movs	r0, #129
 1232 0038 FFF7FEFF 		bl	OLED_WR_Byte
 1233              	.LVL153:
 207:MyHardWare/Src/oled.c ****   OLED_WR_Byte(0xFF, OLED_CMD); //--128
 1234              		.loc 1 207 3 view .LVU298
 1235 003c 0021     		movs	r1, #0
 1236 003e FF20     		movs	r0, #255
 1237 0040 FFF7FEFF 		bl	OLED_WR_Byte
 1238              	.LVL154:
ARM GAS  C:\Users\asus\AppData\Local\Temp\ccCXoZzh.s 			page 28


 208:MyHardWare/Src/oled.c ****   OLED_WR_Byte(0xA1, OLED_CMD); // set segment remap
 1239              		.loc 1 208 3 view .LVU299
 1240 0044 0021     		movs	r1, #0
 1241 0046 A120     		movs	r0, #161
 1242 0048 FFF7FEFF 		bl	OLED_WR_Byte
 1243              	.LVL155:
 209:MyHardWare/Src/oled.c ****   OLED_WR_Byte(0xA6, OLED_CMD); //--normal / reverse
 1244              		.loc 1 209 3 view .LVU300
 1245 004c 0021     		movs	r1, #0
 1246 004e A620     		movs	r0, #166
 1247 0050 FFF7FEFF 		bl	OLED_WR_Byte
 1248              	.LVL156:
 210:MyHardWare/Src/oled.c ****   OLED_WR_Byte(0xA8, OLED_CMD); //--set multiplex ratio(1 to 64)
 1249              		.loc 1 210 3 view .LVU301
 1250 0054 0021     		movs	r1, #0
 1251 0056 A820     		movs	r0, #168
 1252 0058 FFF7FEFF 		bl	OLED_WR_Byte
 1253              	.LVL157:
 211:MyHardWare/Src/oled.c ****   OLED_WR_Byte(0x3F, OLED_CMD); //--1/32 duty
 1254              		.loc 1 211 3 view .LVU302
 1255 005c 0021     		movs	r1, #0
 1256 005e 3F20     		movs	r0, #63
 1257 0060 FFF7FEFF 		bl	OLED_WR_Byte
 1258              	.LVL158:
 212:MyHardWare/Src/oled.c ****   OLED_WR_Byte(0xC8, OLED_CMD); // Com scan direction
 1259              		.loc 1 212 3 view .LVU303
 1260 0064 0021     		movs	r1, #0
 1261 0066 C820     		movs	r0, #200
 1262 0068 FFF7FEFF 		bl	OLED_WR_Byte
 1263              	.LVL159:
 213:MyHardWare/Src/oled.c ****   OLED_WR_Byte(0xD3, OLED_CMD); //-set display offset
 1264              		.loc 1 213 3 view .LVU304
 1265 006c 0021     		movs	r1, #0
 1266 006e D320     		movs	r0, #211
 1267 0070 FFF7FEFF 		bl	OLED_WR_Byte
 1268              	.LVL160:
 214:MyHardWare/Src/oled.c ****   OLED_WR_Byte(0x00, OLED_CMD); //
 1269              		.loc 1 214 3 view .LVU305
 1270 0074 0021     		movs	r1, #0
 1271 0076 0846     		mov	r0, r1
 1272 0078 FFF7FEFF 		bl	OLED_WR_Byte
 1273              	.LVL161:
 215:MyHardWare/Src/oled.c **** 
 216:MyHardWare/Src/oled.c ****   OLED_WR_Byte(0xD5, OLED_CMD); // set osc division
 1274              		.loc 1 216 3 view .LVU306
 1275 007c 0021     		movs	r1, #0
 1276 007e D520     		movs	r0, #213
 1277 0080 FFF7FEFF 		bl	OLED_WR_Byte
 1278              	.LVL162:
 217:MyHardWare/Src/oled.c ****   OLED_WR_Byte(0x80, OLED_CMD); //
 1279              		.loc 1 217 3 view .LVU307
 1280 0084 0021     		movs	r1, #0
 1281 0086 8020     		movs	r0, #128
 1282 0088 FFF7FEFF 		bl	OLED_WR_Byte
 1283              	.LVL163:
 218:MyHardWare/Src/oled.c **** 
 219:MyHardWare/Src/oled.c ****   OLED_WR_Byte(0xD8, OLED_CMD); // set area color mode off
ARM GAS  C:\Users\asus\AppData\Local\Temp\ccCXoZzh.s 			page 29


 1284              		.loc 1 219 3 view .LVU308
 1285 008c 0021     		movs	r1, #0
 1286 008e D820     		movs	r0, #216
 1287 0090 FFF7FEFF 		bl	OLED_WR_Byte
 1288              	.LVL164:
 220:MyHardWare/Src/oled.c ****   OLED_WR_Byte(0x05, OLED_CMD); //
 1289              		.loc 1 220 3 view .LVU309
 1290 0094 0021     		movs	r1, #0
 1291 0096 0520     		movs	r0, #5
 1292 0098 FFF7FEFF 		bl	OLED_WR_Byte
 1293              	.LVL165:
 221:MyHardWare/Src/oled.c **** 
 222:MyHardWare/Src/oled.c ****   OLED_WR_Byte(0xD9, OLED_CMD); // Set Pre-Charge Period
 1294              		.loc 1 222 3 view .LVU310
 1295 009c 0021     		movs	r1, #0
 1296 009e D920     		movs	r0, #217
 1297 00a0 FFF7FEFF 		bl	OLED_WR_Byte
 1298              	.LVL166:
 223:MyHardWare/Src/oled.c ****   OLED_WR_Byte(0xF1, OLED_CMD); //
 1299              		.loc 1 223 3 view .LVU311
 1300 00a4 0021     		movs	r1, #0
 1301 00a6 F120     		movs	r0, #241
 1302 00a8 FFF7FEFF 		bl	OLED_WR_Byte
 1303              	.LVL167:
 224:MyHardWare/Src/oled.c **** 
 225:MyHardWare/Src/oled.c ****   OLED_WR_Byte(0xDA, OLED_CMD); // set com pin configuartion
 1304              		.loc 1 225 3 view .LVU312
 1305 00ac 0021     		movs	r1, #0
 1306 00ae DA20     		movs	r0, #218
 1307 00b0 FFF7FEFF 		bl	OLED_WR_Byte
 1308              	.LVL168:
 226:MyHardWare/Src/oled.c ****   OLED_WR_Byte(0x12, OLED_CMD); //
 1309              		.loc 1 226 3 view .LVU313
 1310 00b4 0021     		movs	r1, #0
 1311 00b6 1220     		movs	r0, #18
 1312 00b8 FFF7FEFF 		bl	OLED_WR_Byte
 1313              	.LVL169:
 227:MyHardWare/Src/oled.c **** 
 228:MyHardWare/Src/oled.c ****   OLED_WR_Byte(0xDB, OLED_CMD); // set Vcomh
 1314              		.loc 1 228 3 view .LVU314
 1315 00bc 0021     		movs	r1, #0
 1316 00be DB20     		movs	r0, #219
 1317 00c0 FFF7FEFF 		bl	OLED_WR_Byte
 1318              	.LVL170:
 229:MyHardWare/Src/oled.c ****   OLED_WR_Byte(0x30, OLED_CMD); //
 1319              		.loc 1 229 3 view .LVU315
 1320 00c4 0021     		movs	r1, #0
 1321 00c6 3020     		movs	r0, #48
 1322 00c8 FFF7FEFF 		bl	OLED_WR_Byte
 1323              	.LVL171:
 230:MyHardWare/Src/oled.c **** 
 231:MyHardWare/Src/oled.c ****   OLED_WR_Byte(0x8D, OLED_CMD); // set charge pump enable
 1324              		.loc 1 231 3 view .LVU316
 1325 00cc 0021     		movs	r1, #0
 1326 00ce 8D20     		movs	r0, #141
 1327 00d0 FFF7FEFF 		bl	OLED_WR_Byte
 1328              	.LVL172:
ARM GAS  C:\Users\asus\AppData\Local\Temp\ccCXoZzh.s 			page 30


 232:MyHardWare/Src/oled.c ****   OLED_WR_Byte(0x14, OLED_CMD); //
 1329              		.loc 1 232 3 view .LVU317
 1330 00d4 0021     		movs	r1, #0
 1331 00d6 1420     		movs	r0, #20
 1332 00d8 FFF7FEFF 		bl	OLED_WR_Byte
 1333              	.LVL173:
 233:MyHardWare/Src/oled.c **** 
 234:MyHardWare/Src/oled.c ****   OLED_WR_Byte(0xAF, OLED_CMD); //--turn on oled panel
 1334              		.loc 1 234 3 view .LVU318
 1335 00dc 0021     		movs	r1, #0
 1336 00de AF20     		movs	r0, #175
 1337 00e0 FFF7FEFF 		bl	OLED_WR_Byte
 1338              	.LVL174:
 235:MyHardWare/Src/oled.c **** }
 1339              		.loc 1 235 1 is_stmt 0 view .LVU319
 1340 00e4 08BD     		pop	{r3, pc}
 1341              		.cfi_endproc
 1342              	.LFE138:
 1344              		.global	Hzk
 1345              		.section	.data.Hzk,"aw"
 1346              		.align	2
 1349              	Hzk:
 1350 0000 00404244 		.ascii	"\000@BDX@@\177@@PH\306\000\000\000\000"
 1350      5840407F 
 1350      40405048 
 1350      C6000000 
 1350      00
 1351 0011 00000000 		.space	15
 1351      00000000 
 1351      00000000 
 1351      000000
 1352 0020 00404444 		.ascii	"\000@DDDDDDDDDD\377\000\000\000\000"
 1352      44444444 
 1352      44444444 
 1352      FF000000 
 1352      00
 1353 0031 00000000 		.space	15
 1353      00000000 
 1353      00000000 
 1353      000000
 1354 0040 0808E829 		.ascii	"\010\010\350).(\350\010\010\310\014\013\350\010\010"
 1354      2E28E808 
 1354      08C80C0B 
 1354      E80808
 1355 004f 0000     		.ascii	"\000\000"
 1356 0051 00000000 		.space	15
 1356      00000000 
 1356      00000000 
 1356      000000
 1357 0060 0000FF09 		.ascii	"\000\000\377\011I\211\177\000\000\017@\200\177\000\000"
 1357      49897F00 
 1357      000F4080 
 1357      7F0000
 1358 006f 0000     		.ascii	"\000\000"
 1359 0071 00000000 		.space	15
 1359      00000000 
 1359      00000000 
ARM GAS  C:\Users\asus\AppData\Local\Temp\ccCXoZzh.s 			page 31


 1359      000000
 1360 0080 1060028C 		.ascii	"\020`\002\214\000\000\376\222\222\222\222\222\376\000"
 1360      0000FE92 
 1360      92929292 
 1360      FE00
 1361 008e 000000   		.ascii	"\000\000\000"
 1362 0091 00000000 		.space	15
 1362      00000000 
 1362      00000000 
 1362      000000
 1363 00a0 04047E01 		.ascii	"\004\004~\001@~BB~B~BB~@\000\000"
 1363      407E4242 
 1363      7E427E42 
 1363      427E4000 
 1363      00
 1364 00b1 00000000 		.space	15
 1364      00000000 
 1364      00000000 
 1364      000000
 1365 00c0 0000FC24 		.ascii	"\000\000\374$$$\374%&$\374$$$\004\000\000"
 1365      2424FC25 
 1365      2624FC24 
 1365      24240400 
 1365      00
 1366 00d1 00000000 		.space	15
 1366      00000000 
 1366      00000000 
 1366      000000
 1367 00e0 40308F80 		.ascii	"@0\217\200\204LU%%%UL\200\200\200\000\000"
 1367      844C5525 
 1367      2525554C 
 1367      80808000 
 1367      00
 1368 00f1 00000000 		.space	15
 1368      00000000 
 1368      00000000 
 1368      000000
 1369 0100 1060028C 		.ascii	"\020`\002\214\000\376\222\222\222\222\222\222\376\000"
 1369      00FE9292 
 1369      92929292 
 1369      FE00
 1370 010e 000000   		.ascii	"\000\000\000"
 1371 0111 00000000 		.space	15
 1371      00000000 
 1371      00000000 
 1371      000000
 1372 0120 04047E01 		.ascii	"\004\004~\001DHP\177@@\177PHD@\000\000"
 1372      4448507F 
 1372      40407F50 
 1372      48444000 
 1372      00
 1373 0131 00000000 		.space	15
 1373      00000000 
 1373      00000000 
 1373      000000
 1374 0140 0000FC24 		.ascii	"\000\000\374$$$\374%&$\374$$$\004\000\000"
 1374      2424FC25 
ARM GAS  C:\Users\asus\AppData\Local\Temp\ccCXoZzh.s 			page 32


 1374      2624FC24 
 1374      24240400 
 1374      00
 1375 0151 00000000 		.space	15
 1375      00000000 
 1375      00000000 
 1375      000000
 1376 0160 40308F80 		.ascii	"@0\217\200\204LU%%%UL\200\200\200\000\000"
 1376      844C5525 
 1376      2525554C 
 1376      80808000 
 1376      00
 1377 0171 00000000 		.space	15
 1377      00000000 
 1377      00000000 
 1377      000000
 1378 0180 404042CC 		.ascii	"@@B\314\000@\240\236\202\202\202\236\240  \000\000"
 1378      0040A09E 
 1378      8282829E 
 1378      A0202000 
 1378      00
 1379 0191 00000000 		.space	15
 1379      00000000 
 1379      00000000 
 1379      000000
 1380 01a0 0000003F 		.ascii	"\000\000\000?\220\210@C,\020(FA\200\200\000\000"
 1380      90884043 
 1380      2C102846 
 1380      41808000 
 1380      00
 1381 01b1 00000000 		.space	15
 1381      00000000 
 1381      00000000 
 1381      000000
 1382 01c0 80909048 		.ascii	"\200\220\220HLW$$$TLD\200\200\200\000\000"
 1382      4C572424 
 1382      24544C44 
 1382      80808000 
 1382      00
 1383 01d1 00000000 		.space	15
 1383      00000000 
 1383      00000000 
 1383      000000
 1384 01e0 000000FF 		.ascii	"\000\000\000\377III\177III\377\000\000\000\000\000"
 1384      4949497F 
 1384      494949FF 
 1384      00000000 
 1384      00
 1385 01f1 00000000 		.space	15
 1385      00000000 
 1385      00000000 
 1385      000000
 1386 0200 0000E282 		.ascii	"\000\000\342\202\202\202\202\202\202\202\202\376\000"
 1386      82828282 
 1386      828282FE 
 1386      00
 1387 020d 00000000 		.ascii	"\000\000\000\000"
ARM GAS  C:\Users\asus\AppData\Local\Temp\ccCXoZzh.s 			page 33


 1388 0211 00000000 		.space	15
 1388      00000000 
 1388      00000000 
 1388      000000
 1389 0220 00003F40 		.ascii	"\000\000?@@@@@@@@@@x\000\000\000"
 1389      40404040 
 1389      40404040 
 1389      40780000 
 1389      00
 1390 0231 00000000 		.space	15
 1390      00000000 
 1390      00000000 
 1390      000000
 1391 0240 80808888 		.ascii	"\200\200\210\210\210\210\210\377\210\210\210\210\210"
 1391      888888FF 
 1391      88888888 
 1391      88
 1392 024d 80800000 		.ascii	"\200\200\000\000"
 1393 0251 00000000 		.space	15
 1393      00000000 
 1393      00000000 
 1393      000000
 1394 0260 20201008 		.ascii	"  \020\010\004\002\001\377\001\002\004\010\020  \000"
 1394      040201FF 
 1394      01020408 
 1394      10202000 
 1395 0270 00       		.ascii	"\000"
 1396 0271 00000000 		.space	15
 1396      00000000 
 1396      00000000 
 1396      000000
 1397 0280 404042CC 		.ascii	"@@B\314\000\004Dd\\G\364DDD\004\000\000"
 1397      00044464 
 1397      5C47F444 
 1397      44440400 
 1397      00
 1398 0291 00000000 		.space	15
 1398      00000000 
 1398      00000000 
 1398      000000
 1399 02a0 0040201F 		.ascii	"\000@ \037 DDDDD\177DDDD\000\000"
 1399      20444444 
 1399      44447F44 
 1399      44444400 
 1399      00
 1400 02b1 00000000 		.space	15
 1400      00000000 
 1400      00000000 
 1400      000000
 1401 02c0 101010FF 		.ascii	"\020\020\020\377\020PDTe\306DdTD@\000\000"
 1401      10504454 
 1401      65C64464 
 1401      54444000 
 1401      00
 1402 02d1 00000000 		.space	15
 1402      00000000 
 1402      00000000 
ARM GAS  C:\Users\asus\AppData\Local\Temp\ccCXoZzh.s 			page 34


 1402      000000
 1403 02e0 0444827F 		.ascii	"\004D\202\177\001\202\202JV#\"RN\202\002\000\000"
 1403      0182824A 
 1403      56232252 
 1403      4E820200 
 1403      00
 1404 02f1 00000000 		.space	15
 1404      00000000 
 1404      00000000 
 1404      000000
 1405              		.global	F8X16
 1406              		.section	.rodata.F8X16,"a"
 1407              		.align	2
 1410              	F8X16:
 1411 0000 00000000 		.ascii	"\000\000\000\000\000\000\000\000\000\000\000\000\000"
 1411      00000000 
 1411      00000000 
 1411      00
 1412 000d 00000000 		.ascii	"\000\000\000\000\000\000\370\000\000\000\000\000\000"
 1412      0000F800 
 1412      00000000 
 1412      00
 1413 001a 00333000 		.ascii	"\00030\000\000\000\000\020\014\006\020\014\006\000\000"
 1413      00000010 
 1413      0C06100C 
 1413      060000
 1414 0029 00000000 		.ascii	"\000\000\000\000\000\000\000@\300x@\300x@\000\004?\004"
 1414      00000040 
 1414      C07840C0 
 1414      78400004 
 1414      3F04
 1415 003b 043F0404 		.ascii	"\004?\004\004\000\000p\210\374\0100\000\000\000\030"
 1415      00007088 
 1415      FC083000 
 1415      000018
 1416 004a 20FF211E 		.ascii	" \377!\036\000\000\360\010\360\000\340\030\000\000\000"
 1416      0000F008 
 1416      F000E018 
 1416      000000
 1417 0059 211C031E 		.ascii	"!\034\003\036!\036\000\000\360\010\210p\000\000\000"
 1417      211E0000 
 1417      F0088870 
 1417      000000
 1418 0068 1E212324 		.ascii	"\036!#$\031'!\020\020\026\016\000\000\000\000\000\000"
 1418      19272110 
 1418      10160E00 
 1418      00000000 
 1418      00
 1419 0079 00000000 		.ascii	"\000\000\000\000\000\000\000\000\000\000\340\030\004"
 1419      00000000 
 1419      0000E018 
 1419      04
 1420 0086 02000000 		.ascii	"\002\000\000\000\000\007\030 @\000\000\002\004\030\340"
 1420      00071820 
 1420      40000002 
 1420      0418E0
 1421 0095 00000000 		.ascii	"\000\000\000\000@ \030\007\000\000\000@@\200\360\200"
ARM GAS  C:\Users\asus\AppData\Local\Temp\ccCXoZzh.s 			page 35


 1421      40201807 
 1421      00000040 
 1421      4080F080 
 1422 00a5 40400002 		.ascii	"@@\000\002\002\001\017\001\002\002\000\000\000\000\360"
 1422      02010F01 
 1422      02020000 
 1422      0000F0
 1423 00b4 00000000 		.ascii	"\000\000\000\000\001\001\001\037\001\001\001\000\000"
 1423      0101011F 
 1423      01010100 
 1423      00
 1424 00c1 00000000 		.ascii	"\000\000\000\000\000\000\000\200\260p\000\000\000\000"
 1424      00000080 
 1424      B0700000 
 1424      0000
 1425 00cf 00000000 		.ascii	"\000\000\000\000\000\000\000\000\000\000\001\001\001"
 1425      00000000 
 1425      00000101 
 1425      01
 1426 00dc 01010101 		.ascii	"\001\001\001\001\000\000\000\000\000\000\000\000\000"
 1426      00000000 
 1426      00000000 
 1426      00
 1427 00e9 30300000 		.ascii	"00\000\000\000\000\000\000\000\000\000\200`\030\004"
 1427      00000000 
 1427      00000080 
 1427      601804
 1428 00f8 00601806 		.ascii	"\000`\030\006\001\000\000\000\000\340\020\010\010\020"
 1428      01000000 
 1428      00E01008 
 1428      0810
 1429 0106 E000000F 		.ascii	"\340\000\000\017\020  \020\017\000\000\020\020\370\000"
 1429      10202010 
 1429      0F000010 
 1429      10F800
 1430 0115 00000000 		.ascii	"\000\000\000\000  ?  \000\000\000p\010\010\010\210p"
 1430      20203F20 
 1430      20000000 
 1430      70080808 
 1430      8870
 1431 0127 00003028 		.ascii	"\000\0000($\"!0\000\0000\010\210\210H0\000\000\030 "
 1431      24222130 
 1431      00003008 
 1431      88884830 
 1431      00001820 
 1432 013b 2020110E 		.ascii	"  \021\016\000\000\000\300 \020\370\000\000\000\007"
 1432      000000C0 
 1432      2010F800 
 1432      000007
 1433 014a 0424243F 		.ascii	"\004$$?$\000\000\370\010\210\210\010\010\000\000\031"
 1433      240000F8 
 1433      08888808 
 1433      08000019 
 1434 015a 21202011 		.ascii	"!  \021\016\000\000\340\020\210\210\030\000\000\000"
 1434      0E0000E0 
 1434      10888818 
 1434      000000
ARM GAS  C:\Users\asus\AppData\Local\Temp\ccCXoZzh.s 			page 36


 1435 0169 0F112020 		.ascii	"\017\021  \021\016\000\0008\010\010\3108\010\000\000"
 1435      110E0000 
 1435      380808C8 
 1435      38080000 
 1436 0179 00003F00 		.ascii	"\000\000?\000\000\000\000\000p\210\010\010\210p\000"
 1436      00000000 
 1436      70880808 
 1436      887000
 1437 0188 001C2221 		.ascii	"\000\034\"!!\"\034\000\000\340\020\010\010\020\340\000"
 1437      21221C00 
 1437      00E01008 
 1437      0810E000 
 1438 0198 00003122 		.ascii	"\000\0001\"\"\021\017\000\000\000\000\300\300\000\000"
 1438      22110F00 
 1438      000000C0 
 1438      C00000
 1439 01a7 00000000 		.ascii	"\000\000\000\00000\000\000\000\000\000\000\200\000\000"
 1439      30300000 
 1439      00000000 
 1439      800000
 1440 01b6 00000000 		.ascii	"\000\000\000\000\200`\000\000\000\000\000\000\200@ "
 1440      80600000 
 1440      00000000 
 1440      804020
 1441 01c5 10080000 		.ascii	"\020\010\000\000\001\002\004\010\020 \000@@@@@@@\000"
 1441      01020408 
 1441      10200040 
 1441      40404040 
 1441      404000
 1442 01d8 04040404 		.ascii	"\004\004\004\004\004\004\004\000\000\010\020 @\200\000"
 1442      04040400 
 1442      00081020 
 1442      408000
 1443 01e7 00002010 		.ascii	"\000\000 \020\010\004\002\001\000\000pH\010\010\010"
 1443      08040201 
 1443      00007048 
 1443      080808
 1444 01f6 F0000000 		.ascii	"\360\000\000\000\00006\001\000\000\3000\310(\350\020"
 1444      00303601 
 1444      0000C030 
 1444      C828E810 
 1445 0206 E0000718 		.ascii	"\340\000\007\030'$#\024\013\000\000\000\3008\340\000"
 1445      27242314 
 1445      0B000000 
 1445      C038E000 
 1446 0216 0000203C 		.ascii	"\000\000 <#\002\002'8 \010\370\210\210\210p\000\000"
 1446      23020227 
 1446      382008F8 
 1446      88888870 
 1446      0000
 1447 0228 203F2020 		.ascii	" ?   \021\016\000\3000\010\010\010\0108\000\007\030"
 1447      20110E00 
 1447      C0300808 
 1447      08083800 
 1447      0718
 1448 023a 20202010 		.ascii	"   \020\010\000\010\370\010\010\010\020\340\000 ?  "
 1448      080008F8 
ARM GAS  C:\Users\asus\AppData\Local\Temp\ccCXoZzh.s 			page 37


 1448      08080810 
 1448      E000203F 
 1448      2020
 1449 024c 20100F00 		.ascii	" \020\017\000\010\370\210\210\350\010\020\000 ?  # "
 1449      08F88888 
 1449      E8081000 
 1449      203F2020 
 1449      2320
 1450 025e 180008F8 		.ascii	"\030\000\010\370\210\210\350\010\020\000 ? \000\003"
 1450      8888E808 
 1450      1000203F 
 1450      200003
 1451 026d 000000C0 		.ascii	"\000\000\000\3000\010\010\0108\000\000\007\030  \"\036"
 1451      30080808 
 1451      38000007 
 1451      18202022 
 1451      1E
 1452 027e 020008F8 		.ascii	"\002\000\010\370\010\000\000\010\370\010 ?!\001\001"
 1452      08000008 
 1452      F808203F 
 1452      210101
 1453 028d 213F2000 		.ascii	"!? \000\010\010\370\010\010\000\000\000  ?  \000\000"
 1453      0808F808 
 1453      08000000 
 1453      20203F20 
 1453      200000
 1454 02a0 00000808 		.ascii	"\000\000\010\010\370\010\010\000\300\200\200\200\177"
 1454      F8080800 
 1454      C0808080 
 1454      7F
 1455 02ad 00000008 		.ascii	"\000\000\000\010\370\210\300(\030\010\000 ? \001&8 "
 1455      F888C028 
 1455      18080020 
 1455      3F200126 
 1455      3820
 1456 02bf 0008F808 		.ascii	"\000\010\370\010\000\000\000\000\000 ?    0\000\010"
 1456      00000000 
 1456      00203F20 
 1456      20202030 
 1456      0008
 1457 02d1 F8F800F8 		.ascii	"\370\370\000\370\370\010\000 ?\000?\000? \000\010\370"
 1457      F8080020 
 1457      3F003F00 
 1457      3F200008 
 1457      F8
 1458 02e2 30C00008 		.ascii	"0\300\000\010\370\010 ? \000\007\030?\000\340\020\010"
 1458      F808203F 
 1458      20000718 
 1458      3F00E010 
 1458      08
 1459 02f3 080810E0 		.ascii	"\010\010\020\340\000\017\020   \020\017\000\010\370"
 1459      000F1020 
 1459      2020100F 
 1459      0008F8
 1460 0302 08080808 		.ascii	"\010\010\010\010\360\000 ?!\001\001\001\000\000\340"
 1460      F000203F 
 1460      21010101 
ARM GAS  C:\Users\asus\AppData\Local\Temp\ccCXoZzh.s 			page 38


 1460      0000E0
 1461 0311 10080808 		.ascii	"\020\010\010\010\020\340\000\017\030$$8PO\000\010\370"
 1461      10E0000F 
 1461      18242438 
 1461      504F0008 
 1461      F8
 1462 0322 88888888 		.ascii	"\210\210\210\210p\000 ? \000\003\0140 \000p\210\010"
 1462      7000203F 
 1462      2000030C 
 1462      30200070 
 1462      8808
 1463 0334 08083800 		.ascii	"\010\0108\000\0008 !!\"\034\000\030\010\010\370\010"
 1463      00382021 
 1463      21221C00 
 1463      180808F8 
 1463      08
 1464 0345 08180000 		.ascii	"\010\030\000\000\000 ? \000\000\000\010\370\010\000"
 1464      00203F20 
 1464      00000008 
 1464      F80800
 1465 0354 0008F808 		.ascii	"\000\010\370\010\000\037    \037\000\010x\210\000\000"
 1465      001F2020 
 1465      20201F00 
 1465      08788800 
 1465      00
 1466 0365 C8380800 		.ascii	"\3108\010\000\000\0078\016\001\000\000\370\010\000\370"
 1466      0007380E 
 1466      010000F8 
 1466      0800F8
 1467 0374 0008F800 		.ascii	"\000\010\370\000\003<\007\000\007<\003\000\010\030h"
 1467      033C0700 
 1467      073C0300 
 1467      081868
 1468 0383 80806818 		.ascii	"\200\200h\030\010 0,\003\003,0 \0108\310\000\3108\010"
 1468      0820302C 
 1468      03032C30 
 1468      200838C8 
 1468      00C83808 
 1469 0397 00000020 		.ascii	"\000\000\000 ? \000\000\000\020\010\010\010\3108\010"
 1469      3F200000 
 1469      00100808 
 1469      08C83808 
 1470 03a7 00203826 		.ascii	"\000 8&!  \030\000\000\000\000\376\002\002\002\000\000"
 1470      21202018 
 1470      00000000 
 1470      FE020202 
 1470      0000
 1471 03b9 00007F40 		.ascii	"\000\000\177@@@\000\000\0140\300\000\000\000\000\000"
 1471      40400000 
 1471      0C30C000 
 1471      00000000 
 1472 03c9 00000106 		.ascii	"\000\000\001\0068\300\000\000\002\002\002\376\000\000"
 1472      38C00000 
 1472      020202FE 
 1472      0000
 1473 03d7 00004040 		.ascii	"\000\000@@@\177\000\000\000\000\000\004\002\002\002"
 1473      407F0000 
ARM GAS  C:\Users\asus\AppData\Local\Temp\ccCXoZzh.s 			page 39


 1473      00000004 
 1473      020202
 1474 03e6 04000000 		.ascii	"\004\000\000\000\000\000\000\000\000\000\000\000\000"
 1474      00000000 
 1474      00000000 
 1474      00
 1475 03f3 00000000 		.ascii	"\000\000\000\000\000\200\200\200\200\200\200\200\200"
 1475      00808080 
 1475      80808080 
 1475      80
 1476 0400 00020204 		.ascii	"\000\002\002\004\000\000\000\000\000\000\000\000\000"
 1476      00000000 
 1476      00000000 
 1476      00
 1477 040d 00000000 		.ascii	"\000\000\000\000\000\200\200\200\200\000\000\000\031"
 1477      00808080 
 1477      80000000 
 1477      19
 1478 041a 24222222 		.ascii	"$\"\"\"? \010\370\000\200\200\000\000\000\000?\021 "
 1478      3F2008F8 
 1478      00808000 
 1478      0000003F 
 1478      1120
 1479 042c 20110E00 		.ascii	" \021\016\000\000\000\000\200\200\200\000\000\000\016"
 1479      00000080 
 1479      80800000 
 1479      000E
 1480 043a 11202020 		.ascii	"\021   \021\000\000\000\000\200\200\210\370\000\000"
 1480      11000000 
 1480      00808088 
 1480      F80000
 1481 0449 0E112020 		.ascii	"\016\021  \020? \000\000\200\200\200\200\000\000\000"
 1481      103F2000 
 1481      00808080 
 1481      80000000 
 1482 0459 1F222222 		.ascii	"\037\"\"\"\"\023\000\000\200\200\360\210\210\210\030"
 1482      22130000 
 1482      8080F088 
 1482      888818
 1483 0468 0020203F 		.ascii	"\000  ?  \000\000\000\000\200\200\200\200\200\000\000"
 1483      20200000 
 1483      00008080 
 1483      80808000 
 1483      00
 1484 0479 6B949494 		.ascii	"k\224\224\224\223`\000\010\370\000\200\200\200\000\000"
 1484      93600008 
 1484      F8008080 
 1484      800000
 1485 0488 203F2100 		.ascii	" ?!\000\000 ? \000\200\230\230\000\000\000\000\000 "
 1485      00203F20 
 1485      00809898 
 1485      00000000 
 1485      0020
 1486 049a 203F2020 		.ascii	" ?  \000\000\000\000\000\200\230\230\000\000\000\300"
 1486      00000000 
 1486      00809898 
 1486      000000C0 
ARM GAS  C:\Users\asus\AppData\Local\Temp\ccCXoZzh.s 			page 40


 1487 04aa 8080807F 		.ascii	"\200\200\200\177\000\000\010\370\000\000\200\200\200"
 1487      000008F8 
 1487      00008080 
 1487      80
 1488 04b7 00203F24 		.ascii	"\000 ?$\002-0 \000\000\010\010\370\000\000\000\000\000"
 1488      022D3020 
 1488      00000808 
 1488      F8000000 
 1488      0000
 1489 04c9 20203F20 		.ascii	"  ?  \000\000\200\200\200\200\200\200\200\000 ? \000"
 1489      20000080 
 1489      80808080 
 1489      80800020 
 1489      3F2000
 1490 04dc 3F20003F 		.ascii	"? \000?\200\200\000\200\200\200\000\000 ?!\000\000 "
 1490      80800080 
 1490      80800000 
 1490      203F2100 
 1490      0020
 1491 04ee 3F200000 		.ascii	"? \000\000\200\200\200\200\000\000\000\037    \037\000"
 1491      80808080 
 1491      0000001F 
 1491      20202020 
 1491      1F00
 1492 0500 80800080 		.ascii	"\200\200\000\200\200\000\000\000\200\377\241  \021\016"
 1492      80000000 
 1492      80FFA120 
 1492      20110E
 1493 050f 00000000 		.ascii	"\000\000\000\000\200\200\200\200\000\000\016\021  \240"
 1493      80808080 
 1493      00000E11 
 1493      2020A0
 1494 051e FF808080 		.ascii	"\377\200\200\200\200\000\200\200\200\000  ?! \000\001"
 1494      80008080 
 1494      80002020 
 1494      3F212000 
 1494      01
 1495 052f 00000080 		.ascii	"\000\000\000\200\200\200\200\200\000\0003$$$$\031\000"
 1495      80808080 
 1495      00003324 
 1495      24242419 
 1495      00
 1496 0540 008080E0 		.ascii	"\000\200\200\340\200\200\000\000\000\000\000\037  \000"
 1496      80800000 
 1496      0000001F 
 1496      202000
 1497 054f 00808000 		.ascii	"\000\200\200\000\000\000\200\200\000\000\037   \020"
 1497      00008080 
 1497      00001F20 
 1497      202010
 1498 055e 3F208080 		.ascii	"? \200\200\200\000\000\200\200\200\000\001\0160\010"
 1498      80000080 
 1498      80800001 
 1498      0E3008
 1499 056d 06010080 		.ascii	"\006\001\000\200\200\000\200\000\200\200\200\0170\014"
 1499      80008000 
 1499      8080800F 
ARM GAS  C:\Users\asus\AppData\Local\Temp\ccCXoZzh.s 			page 41


 1499      300C
 1500 057b 030C300F 		.ascii	"\003\0140\017\000\000\200\200\000\200\200\200\000\000"
 1500      00008080 
 1500      00808080 
 1500      0000
 1501 0589 20312E0E 		.ascii	" 1.\0161 \000\200\200\200\000\000\200\200\200\200\201"
 1501      31200080 
 1501      80800000 
 1501      80808080 
 1501      81
 1502 059a 8E701806 		.ascii	"\216p\030\006\001\000\000\200\200\200\200\200\200\000"
 1502      01000080 
 1502      80808080 
 1502      8000
 1503 05a8 0021302C 		.ascii	"\000!0,\"!0\000\000\000\000\000\200|\002\002\000\000"
 1503      22213000 
 1503      00000000 
 1503      807C0202 
 1503      0000
 1504 05ba 0000003F 		.ascii	"\000\000\000?@@\000\000\000\000\377\000\000\000\000"
 1504      40400000 
 1504      0000FF00 
 1504      000000
 1505 05c9 000000FF 		.ascii	"\000\000\000\377\000\000\000\000\002\002|\200\000\000"
 1505      00000000 
 1505      02027C80 
 1505      0000
 1506 05d7 00004040 		.ascii	"\000\000@@?\000\000\000\000\000\006\001\001\002\002"
 1506      3F000000 
 1506      00000601 
 1506      010202
 1507 05e6 04040000 		.ascii	"\004\004\000\000\000\000\000\000\000\000"
 1507      00000000 
 1507      0000
 1508              		.global	F6x8
 1509              		.section	.rodata.F6x8,"a"
 1510              		.align	2
 1513              	F6x8:
 1514 0000 00000000 		.ascii	"\000\000\000\000\000\000"
 1514      0000
 1515 0006 0000002F 		.ascii	"\000\000\000/\000\000"
 1515      0000
 1516 000c 00000700 		.ascii	"\000\000\007\000\007\000"
 1516      0700
 1517 0012 00147F14 		.ascii	"\000\024\177\024\177\024"
 1517      7F14
 1518 0018 00242A7F 		.ascii	"\000$*\177*\022"
 1518      2A12
 1519 001e 00626408 		.ascii	"\000bd\010\023#"
 1519      1323
 1520 0024 00364955 		.ascii	"\0006IU\"P"
 1520      2250
 1521 002a 00000503 		.ascii	"\000\000\005\003\000\000"
 1521      0000
 1522 0030 00001C22 		.ascii	"\000\000\034\"A\000"
 1522      4100
 1523 0036 00004122 		.ascii	"\000\000A\"\034\000"
ARM GAS  C:\Users\asus\AppData\Local\Temp\ccCXoZzh.s 			page 42


 1523      1C00
 1524 003c 0014083E 		.ascii	"\000\024\010>\010\024"
 1524      0814
 1525 0042 0008083E 		.ascii	"\000\010\010>\010\010"
 1525      0808
 1526 0048 000000A0 		.ascii	"\000\000\000\240`\000"
 1526      6000
 1527 004e 00080808 		.ascii	"\000\010\010\010\010\010"
 1527      0808
 1528 0054 00006060 		.ascii	"\000\000``\000\000"
 1528      0000
 1529 005a 00201008 		.ascii	"\000 \020\010\004\002"
 1529      0402
 1530 0060 003E5149 		.ascii	"\000>QIE>"
 1530      453E
 1531 0066 0000427F 		.ascii	"\000\000B\177@\000"
 1531      4000
 1532 006c 00426151 		.ascii	"\000BaQIF"
 1532      4946
 1533 0072 00214145 		.ascii	"\000!AEK1"
 1533      4B31
 1534 0078 00181412 		.ascii	"\000\030\024\022\177\020"
 1534      7F10
 1535 007e 00274545 		.ascii	"\000'EEE9"
 1535      4539
 1536 0084 003C4A49 		.ascii	"\000<JII0"
 1536      4930
 1537 008a 00017109 		.ascii	"\000\001q\011\005\003"
 1537      0503
 1538 0090 00364949 		.ascii	"\0006III6"
 1538      4936
 1539 0096 00064949 		.ascii	"\000\006II)\036"
 1539      291E
 1540 009c 00003636 		.ascii	"\000\00066\000\000"
 1540      0000
 1541 00a2 00005636 		.ascii	"\000\000V6\000\000"
 1541      0000
 1542 00a8 00081422 		.ascii	"\000\010\024\"A\000"
 1542      4100
 1543 00ae 00141414 		.ascii	"\000\024\024\024\024\024"
 1543      1414
 1544 00b4 00004122 		.ascii	"\000\000A\"\024\010"
 1544      1408
 1545 00ba 00020151 		.ascii	"\000\002\001Q\011\006"
 1545      0906
 1546 00c0 00324959 		.ascii	"\0002IYQ>"
 1546      513E
 1547 00c6 007C1211 		.ascii	"\000|\022\021\022|"
 1547      127C
 1548 00cc 007F4949 		.ascii	"\000\177III6"
 1548      4936
 1549 00d2 003E4141 		.ascii	"\000>AAA\""
 1549      4122
 1550 00d8 007F4141 		.ascii	"\000\177AA\"\034"
 1550      221C
 1551 00de 007F4949 		.ascii	"\000\177IIIA"
 1551      4941
ARM GAS  C:\Users\asus\AppData\Local\Temp\ccCXoZzh.s 			page 43


 1552 00e4 007F0909 		.ascii	"\000\177\011\011\011\001"
 1552      0901
 1553 00ea 003E4149 		.ascii	"\000>AIIz"
 1553      497A
 1554 00f0 007F0808 		.ascii	"\000\177\010\010\010\177"
 1554      087F
 1555 00f6 0000417F 		.ascii	"\000\000A\177A\000"
 1555      4100
 1556 00fc 00204041 		.ascii	"\000 @A?\001"
 1556      3F01
 1557 0102 007F0814 		.ascii	"\000\177\010\024\"A"
 1557      2241
 1558 0108 007F4040 		.ascii	"\000\177@@@@"
 1558      4040
 1559 010e 007F020C 		.ascii	"\000\177\002\014\002\177"
 1559      027F
 1560 0114 007F0408 		.ascii	"\000\177\004\010\020\177"
 1560      107F
 1561 011a 003E4141 		.ascii	"\000>AAA>"
 1561      413E
 1562 0120 007F0909 		.ascii	"\000\177\011\011\011\006"
 1562      0906
 1563 0126 003E4151 		.ascii	"\000>AQ!^"
 1563      215E
 1564 012c 007F0919 		.ascii	"\000\177\011\031)F"
 1564      2946
 1565 0132 00464949 		.ascii	"\000FIII1"
 1565      4931
 1566 0138 0001017F 		.ascii	"\000\001\001\177\001\001"
 1566      0101
 1567 013e 003F4040 		.ascii	"\000?@@@?"
 1567      403F
 1568 0144 001F2040 		.ascii	"\000\037 @ \037"
 1568      201F
 1569 014a 003F4038 		.ascii	"\000?@8@?"
 1569      403F
 1570 0150 00631408 		.ascii	"\000c\024\010\024c"
 1570      1463
 1571 0156 00070870 		.ascii	"\000\007\010p\010\007"
 1571      0807
 1572 015c 00615149 		.ascii	"\000aQIEC"
 1572      4543
 1573 0162 00007F41 		.ascii	"\000\000\177AA\000"
 1573      4100
 1574 0168 00552A55 		.ascii	"\000U*U*U"
 1574      2A55
 1575 016e 00004141 		.ascii	"\000\000AA\177\000"
 1575      7F00
 1576 0174 00040201 		.ascii	"\000\004\002\001\002\004"
 1576      0204
 1577 017a 00404040 		.ascii	"\000@@@@@"
 1577      4040
 1578 0180 00000102 		.ascii	"\000\000\001\002\004\000"
 1578      0400
 1579 0186 00205454 		.ascii	"\000 TTTx"
 1579      5478
 1580 018c 007F4844 		.ascii	"\000\177HDD8"
ARM GAS  C:\Users\asus\AppData\Local\Temp\ccCXoZzh.s 			page 44


 1580      4438
 1581 0192 00384444 		.ascii	"\0008DDD "
 1581      4420
 1582 0198 00384444 		.ascii	"\0008DDH\177"
 1582      487F
 1583 019e 00385454 		.ascii	"\0008TTT\030"
 1583      5418
 1584 01a4 00087E09 		.ascii	"\000\010~\011\001\002"
 1584      0102
 1585 01aa 0018A4A4 		.ascii	"\000\030\244\244\244|"
 1585      A47C
 1586 01b0 007F0804 		.ascii	"\000\177\010\004\004x"
 1586      0478
 1587 01b6 0000447D 		.ascii	"\000\000D}@\000"
 1587      4000
 1588 01bc 00408084 		.ascii	"\000@\200\204}\000"
 1588      7D00
 1589 01c2 007F1028 		.ascii	"\000\177\020(D\000"
 1589      4400
 1590 01c8 0000417F 		.ascii	"\000\000A\177@\000"
 1590      4000
 1591 01ce 007C0418 		.ascii	"\000|\004\030\004x"
 1591      0478
 1592 01d4 007C0804 		.ascii	"\000|\010\004\004x"
 1592      0478
 1593 01da 00384444 		.ascii	"\0008DDD8"
 1593      4438
 1594 01e0 00FC2424 		.ascii	"\000\374$$$\030"
 1594      2418
 1595 01e6 00182424 		.ascii	"\000\030$$\030\374"
 1595      18FC
 1596 01ec 007C0804 		.ascii	"\000|\010\004\004\010"
 1596      0408
 1597 01f2 00485454 		.ascii	"\000HTTT "
 1597      5420
 1598 01f8 00043F44 		.ascii	"\000\004?D@ "
 1598      4020
 1599 01fe 003C4040 		.ascii	"\000<@@ |"
 1599      207C
 1600 0204 001C2040 		.ascii	"\000\034 @ \034"
 1600      201C
 1601 020a 003C4030 		.ascii	"\000<@0@<"
 1601      403C
 1602 0210 00442810 		.ascii	"\000D(\020(D"
 1602      2844
 1603 0216 001CA0A0 		.ascii	"\000\034\240\240\240|"
 1603      A07C
 1604 021c 00446454 		.ascii	"\000DdTLD"
 1604      4C44
 1605 0222 14141414 		.ascii	"\024\024\024\024\024\024"
 1605      1414
 1606              		.text
 1607              	.Letext0:
 1608              		.file 2 "C:/Program Files (x86)/Arm GNU Toolchain arm-none-eabi/13.2 Rel1/arm-none-eabi/include/ma
 1609              		.file 3 "C:/Program Files (x86)/Arm GNU Toolchain arm-none-eabi/13.2 Rel1/arm-none-eabi/include/sy
 1610              		.file 4 "CMSIS/stm32f4xx.h"
 1611              		.file 5 "MyHardWare/Inc/oledfont.h"
ARM GAS  C:\Users\asus\AppData\Local\Temp\ccCXoZzh.s 			page 45


 1612              		.file 6 "MyHardWare/Inc/delay.h"
 1613              		.file 7 "MyHardWare/Inc/oled.h"
 1614              		.file 8 "MyHardWare/Inc/myiic.h"
ARM GAS  C:\Users\asus\AppData\Local\Temp\ccCXoZzh.s 			page 46

