ARM GAS  C:\Users\asus\AppData\Local\Temp\ccsGn5n9.s 			page 1


   1              		.cpu cortex-m4
   2              		.arch armv7e-m
   3              		.fpu fpv4-sp-d16
   4              		.eabi_attribute 27, 1
   5              		.eabi_attribute 28, 1
   6              		.eabi_attribute 20, 1
   7              		.eabi_attribute 21, 1
   8              		.eabi_attribute 23, 3
   9              		.eabi_attribute 24, 1
  10              		.eabi_attribute 25, 1
  11              		.eabi_attribute 26, 1
  12              		.eabi_attribute 30, 1
  13              		.eabi_attribute 34, 1
  14              		.eabi_attribute 18, 4
  15              		.file	"pid_speed.c"
  16              		.text
  17              	.Ltext0:
  18              		.cfi_sections	.debug_frame
  19              		.file 1 "MyHardWare/Src/pid_speed.c"
  20              		.section	.text.pid_init,"ax",%progbits
  21              		.align	1
  22              		.syntax unified
  23              		.thumb
  24              		.thumb_func
  26              	pid_init:
  27              	.LVL0:
  28              	.LFB130:
   1:MyHardWare/Src/pid_speed.c **** #include "pid_speed.h"
   2:MyHardWare/Src/pid_speed.c **** #include "delay.h"
   3:MyHardWare/Src/pid_speed.c **** 
   4:MyHardWare/Src/pid_speed.c **** /* ==================== ﮒ۷ﮒﺎﮒﻠﮒ؟ﻛﺗ ==================== */
   5:MyHardWare/Src/pid_speed.c **** // ﮔﺗﻛﺕﭦﮒ۳ﻠ۷ﮒﺙﻝ۷ﺅﺙﮒ۷main.cﻛﺕ­ﮒ؟ﻛﺗ
   6:MyHardWare/Src/pid_speed.c **** Speed_PID_Controller_t Speed_PID_Right; // ﮒﺏﻟﺛ؟ﻠﮒﭦ۵PIDﮔ۶ﮒﭘﮒ۷
   7:MyHardWare/Src/pid_speed.c **** Speed_PID_Controller_t Speed_PID_Left;  // ﮒﺓ۵ﻟﺛ؟ﻠﮒﭦ۵PIDﮔ۶ﮒﭘﮒ۷
   8:MyHardWare/Src/pid_speed.c **** 
   9:MyHardWare/Src/pid_speed.c **** /* ==================== ﻝ۶ﮔﮒﺛﮔﺍﮒ۲ﺍﮔ ==================== */
  10:MyHardWare/Src/pid_speed.c **** static float get_encoder_speed_m_s(Encoder_Id_e encoder_id);
  11:MyHardWare/Src/pid_speed.c **** static void update_motor_output(Speed_PID_Controller_t *controller,
  12:MyHardWare/Src/pid_speed.c ****                                 float output);
  13:MyHardWare/Src/pid_speed.c **** static void pid_init(PID_State_t *pid, float target, float kp, float ki,
  14:MyHardWare/Src/pid_speed.c ****                      float kd);
  15:MyHardWare/Src/pid_speed.c **** 
  16:MyHardWare/Src/pid_speed.c **** /* ==================== ﮒ؛ﮔﮒﺛﮔﺍﮒ؟ﻝﺍ ==================== */
  17:MyHardWare/Src/pid_speed.c **** 
  18:MyHardWare/Src/pid_speed.c **** /**
  19:MyHardWare/Src/pid_speed.c ****  * @brief ﮒﮒ۶ﮒﻠﮒﭦ۵ﻝﺁPIDﮔ۶ﮒﭘﮒ۷
  20:MyHardWare/Src/pid_speed.c ****  * @param controller ﮔ۶ﮒﭘﮒ۷ﮒ؟ﻛﺝﮔﻠ 
  21:MyHardWare/Src/pid_speed.c ****  * @param encoder_id ﮒﺏﻟﻝﻝﺙﻝ ﮒ۷ID
  22:MyHardWare/Src/pid_speed.c ****  * @param motor_id ﮒﺏﻟﻝﻝﭖﮔﭦID
  23:MyHardWare/Src/pid_speed.c ****  * @param kp ﮔﺁﻛﺝﻝﺏﭨﮔﺍ
  24:MyHardWare/Src/pid_speed.c ****  * @param ki ﻝ۶ﺁﮒﻝﺏﭨﮔﺍ
  25:MyHardWare/Src/pid_speed.c ****  * @param kd ﮒﺝ؟ﮒﻝﺏﭨﮔﺍ
  26:MyHardWare/Src/pid_speed.c ****  */
  27:MyHardWare/Src/pid_speed.c **** void Speed_PID_Init(Speed_PID_Controller_t *controller, Encoder_Id_e encoder_id,
  28:MyHardWare/Src/pid_speed.c ****                     Motor_Id_e motor_id, float kp, float ki, float kd) {
  29:MyHardWare/Src/pid_speed.c ****   // ﮒﮔﺍﮔ۲ﮔ۴
  30:MyHardWare/Src/pid_speed.c ****   if (controller == NULL || encoder_id >= ENCODER_MAX ||
ARM GAS  C:\Users\asus\AppData\Local\Temp\ccsGn5n9.s 			page 2


  31:MyHardWare/Src/pid_speed.c ****       motor_id >= MOTOR_MAX) {
  32:MyHardWare/Src/pid_speed.c ****     return;
  33:MyHardWare/Src/pid_speed.c ****   }
  34:MyHardWare/Src/pid_speed.c **** 
  35:MyHardWare/Src/pid_speed.c ****   // ﮒﮒ۶ﮒPIDﮒﮔﺍﮒﻝﭘﮔ
  36:MyHardWare/Src/pid_speed.c ****   pid_init(&controller->pid_state, 0.0f, kp, ki, kd);
  37:MyHardWare/Src/pid_speed.c **** 
  38:MyHardWare/Src/pid_speed.c ****   // ﻟ؟ﺝﻝﺛ؟ﮒﺏﻟﻝﻝﺙﻝ ﮒ۷ﮒﻝﭖﮔﭦ
  39:MyHardWare/Src/pid_speed.c ****   controller->encoder_id = encoder_id;
  40:MyHardWare/Src/pid_speed.c ****   controller->motor_id = motor_id;
  41:MyHardWare/Src/pid_speed.c **** 
  42:MyHardWare/Src/pid_speed.c ****   // ﮒﮒ۶ﮒﮒﭘﻛﭨﮒﮔﺍ
  43:MyHardWare/Src/pid_speed.c ****   controller->target_speed_m_s = 0.0f;
  44:MyHardWare/Src/pid_speed.c ****   controller->current_speed_m_s = 0.0f;
  45:MyHardWare/Src/pid_speed.c ****   controller->enabled = 0;
  46:MyHardWare/Src/pid_speed.c ****   controller->last_update_time = GetSysTick();
  47:MyHardWare/Src/pid_speed.c **** }
  48:MyHardWare/Src/pid_speed.c **** 
  49:MyHardWare/Src/pid_speed.c **** /**
  50:MyHardWare/Src/pid_speed.c ****  * @brief ﻟ؟ﺝﻝﺛ؟ﻠﮒﭦ۵ﻝﺁPIDﻝ؟ﮔ ﻠﮒﭦ۵
  51:MyHardWare/Src/pid_speed.c ****  * @param controller ﮔ۶ﮒﭘﮒ۷ﮒ؟ﻛﺝﮔﻠ
  52:MyHardWare/Src/pid_speed.c ****  * @param speed_m_s ﻝ؟ﮔ ﻝﭦﺟﻠﮒﭦ۵ (m/s)
  53:MyHardWare/Src/pid_speed.c ****  */
  54:MyHardWare/Src/pid_speed.c **** void Speed_PID_SetTargetSpeed(Speed_PID_Controller_t *controller,
  55:MyHardWare/Src/pid_speed.c ****                               float speed_m_s) {
  56:MyHardWare/Src/pid_speed.c ****   // ﮒﮔﺍﮔ۲ﮔ۴
  57:MyHardWare/Src/pid_speed.c ****   if (controller == NULL) {
  58:MyHardWare/Src/pid_speed.c ****     return;
  59:MyHardWare/Src/pid_speed.c ****   }
  60:MyHardWare/Src/pid_speed.c **** 
  61:MyHardWare/Src/pid_speed.c ****   // ﻟ؟ﺝﻝﺛ؟ﻝ؟ﮔ ﻠﮒﭦ۵
  62:MyHardWare/Src/pid_speed.c ****   controller->target_speed_m_s = speed_m_s;
  63:MyHardWare/Src/pid_speed.c ****   // ﮔﺑﮔﺍPIDﻝ؟ﮔ ﮒﺙ
  64:MyHardWare/Src/pid_speed.c ****   controller->pid_state.target_value = speed_m_s;
  65:MyHardWare/Src/pid_speed.c **** }
  66:MyHardWare/Src/pid_speed.c **** 
  67:MyHardWare/Src/pid_speed.c **** /**
  68:MyHardWare/Src/pid_speed.c ****  * @brief ﮒﺁﻝ۷ﻠﮒﭦ۵ﻝﺁPIDﮔ۶ﮒﭘ
  69:MyHardWare/Src/pid_speed.c ****  * @param controller ﮔ۶ﮒﭘﮒ۷ﮒ؟ﻛﺝﮔﻠ
  70:MyHardWare/Src/pid_speed.c ****  */
  71:MyHardWare/Src/pid_speed.c **** void Speed_PID_Enable(Speed_PID_Controller_t *controller) {
  72:MyHardWare/Src/pid_speed.c ****   // ﮒﮔﺍﮔ۲ﮔ۴
  73:MyHardWare/Src/pid_speed.c ****   if (controller == NULL) {
  74:MyHardWare/Src/pid_speed.c ****     return;
  75:MyHardWare/Src/pid_speed.c ****   }
  76:MyHardWare/Src/pid_speed.c **** 
  77:MyHardWare/Src/pid_speed.c ****   // ﮒﺁﻝ۷ﮔ۶ﮒﭘﮒ۷
  78:MyHardWare/Src/pid_speed.c ****   controller->enabled = 1;
  79:MyHardWare/Src/pid_speed.c **** }
  80:MyHardWare/Src/pid_speed.c **** 
  81:MyHardWare/Src/pid_speed.c **** /**
  82:MyHardWare/Src/pid_speed.c ****  * @brief ﻝ۵ﻝ۷ﻠﮒﭦ۵ﻝﺁPIDﮔ۶ﮒﭘ
  83:MyHardWare/Src/pid_speed.c ****  * @param controller ﮔ۶ﮒﭘﮒ۷ﮒ؟ﻛﺝﮔﻠ
  84:MyHardWare/Src/pid_speed.c ****  */
  85:MyHardWare/Src/pid_speed.c **** void Speed_PID_Disable(Speed_PID_Controller_t *controller) {
  86:MyHardWare/Src/pid_speed.c ****   // ﮒﮔﺍﮔ۲ﮔ۴
  87:MyHardWare/Src/pid_speed.c ****   if (controller == NULL) {
ARM GAS  C:\Users\asus\AppData\Local\Temp\ccsGn5n9.s 			page 3


  88:MyHardWare/Src/pid_speed.c ****     return;
  89:MyHardWare/Src/pid_speed.c ****   }
  90:MyHardWare/Src/pid_speed.c **** 
  91:MyHardWare/Src/pid_speed.c ****   // ﻝ۵ﻝ۷ﮔ۶ﮒﭘﮒ۷
  92:MyHardWare/Src/pid_speed.c ****   controller->enabled = 0;
  93:MyHardWare/Src/pid_speed.c **** 
  94:MyHardWare/Src/pid_speed.c ****   // ﮒﮔ­۱ﻝﭖﮔﭦ
  95:MyHardWare/Src/pid_speed.c ****   update_motor_output(controller, 0.0f);
  96:MyHardWare/Src/pid_speed.c **** 
  97:MyHardWare/Src/pid_speed.c ****   // ﻠﻝﺛ؟ﻝ۶ﺁﮒﻠ۰ﺗﻛﭨ۴ﻠﺎﮔ­۱ﻝ۶ﺁﮒﻠ۴ﺎﮒ
  98:MyHardWare/Src/pid_speed.c ****   controller->pid_state.last_integral_error = 0.0f;
  99:MyHardWare/Src/pid_speed.c **** }
 100:MyHardWare/Src/pid_speed.c **** 
 101:MyHardWare/Src/pid_speed.c **** /**
 102:MyHardWare/Src/pid_speed.c ****  * @brief ﮔ۶ﻟ۰ﻠﮒﭦ۵ﻝﺁPIDﮔ۶ﮒﭘﻟ؟۰ﻝ؟
 103:MyHardWare/Src/pid_speed.c ****  * @param controller ﮔ۶ﮒﭘﮒ۷ﮒ؟ﻛﺝﮔﻠ
 104:MyHardWare/Src/pid_speed.c ****  * @note ﮒﭦﮒ۷10msﮔ۶ﮒﭘﮒﺝ۹ﻝﺁﻛﺕ­ﻟﺍﻝ۷
 105:MyHardWare/Src/pid_speed.c ****  */
 106:MyHardWare/Src/pid_speed.c **** void Speed_PID_Update(Speed_PID_Controller_t *controller) {
 107:MyHardWare/Src/pid_speed.c ****   // ﮒﮔﺍﮔ۲ﮔ۴
 108:MyHardWare/Src/pid_speed.c ****   if (controller == NULL || !controller->enabled) {
 109:MyHardWare/Src/pid_speed.c ****     return;
 110:MyHardWare/Src/pid_speed.c ****   }
 111:MyHardWare/Src/pid_speed.c **** 
 112:MyHardWare/Src/pid_speed.c ****   // ﻟ؟۰ﻝ؟ﮔﭘﻠﺑﻠﺑﻠﺅﺙﻝ۶ﺅﺙ
 113:MyHardWare/Src/pid_speed.c ****   uint32_t current_time = GetSysTick();
 114:MyHardWare/Src/pid_speed.c ****   float dt = (current_time - controller->last_update_time) / 1000.0f; // ﻟﺛ؛ﮔ۱ﻛﺕﭦﻝ۶
 115:MyHardWare/Src/pid_speed.c ****   
 116:MyHardWare/Src/pid_speed.c **** 
 117:MyHardWare/Src/pid_speed.c ****   // ﻟﺓﮒﮒﺛﮒﻠﮒﭦ۵
 118:MyHardWare/Src/pid_speed.c ****   controller->current_speed_m_s = get_encoder_speed_m_s(controller->encoder_id);
 119:MyHardWare/Src/pid_speed.c **** 
 120:MyHardWare/Src/pid_speed.c ****   // ﻛﺛﺟﻝ۷PIDﻝ؟ﮔﺏﻟ؟۰ﻝ؟ﻟﺝﮒﭦ
 121:MyHardWare/Src/pid_speed.c ****   
 122:MyHardWare/Src/pid_speed.c ****   float error = controller->pid_state.target_value - controller->current_speed_m_s;//ﻟ؟۰ﻝ؟ﻟﺁﺁﮒﺓ؟ﮒ
 123:MyHardWare/Src/pid_speed.c ****   float derivative = (error - controller->pid_state.last_error) / dt;//ﻟ؟۰ﻝ؟ﮒﺝ؟ﮒﻠ۰ﺗ
 124:MyHardWare/Src/pid_speed.c ****   float integral = (controller->pid_state.last_integral_error + error) * dt * 0.5f;//ﻟ؟۰ﻝ؟ﻝ۶ﺁﮒﻠ۰
 125:MyHardWare/Src/pid_speed.c ****   float output = controller->pid_state.kp * error + controller->pid_state.ki *integral + controller
 126:MyHardWare/Src/pid_speed.c **** 
 127:MyHardWare/Src/pid_speed.c ****   // ﮔﺑﮔﺍPIDﻝﭘﮔ
 128:MyHardWare/Src/pid_speed.c ****   controller->last_update_time = current_time; // ﮔﺑﮔﺍﮔﭘﻠﺑ
 129:MyHardWare/Src/pid_speed.c ****   controller->pid_state.last_integral_error = integral;//ﮔﺑﮔﺍﻛﺕﮔ؛۰ﻝ۶ﺁﮒﻠ۰ﺗ
 130:MyHardWare/Src/pid_speed.c ****   controller->pid_state.last_error = error;//ﮔﺑﮔﺍﻛﺕﮔ؛۰ﻟﺁﺁﮒﺓ؟ﻠ۰ﺗ
 131:MyHardWare/Src/pid_speed.c **** 
 132:MyHardWare/Src/pid_speed.c ****   // ﮔﺑﮔﺍﻝﭖﮔﭦﻟﺝﮒﭦ
 133:MyHardWare/Src/pid_speed.c ****   update_motor_output(controller, output);
 134:MyHardWare/Src/pid_speed.c **** }
 135:MyHardWare/Src/pid_speed.c **** 
 136:MyHardWare/Src/pid_speed.c **** /* ==================== ﻝ۶ﮔﮒﺛﮔﺍﮒ؟ﻝﺍ ==================== */
 137:MyHardWare/Src/pid_speed.c **** 
 138:MyHardWare/Src/pid_speed.c **** /**
 139:MyHardWare/Src/pid_speed.c ****  * @brief ﻟﺓﮒﻝﺙﻝ ﮒ۷ﮔﭖﻠﻝﻠﮒﭦ۵ (m/s)
 140:MyHardWare/Src/pid_speed.c ****  * @param encoder_id ﻝﺙﻝ ﮒ۷ID
 141:MyHardWare/Src/pid_speed.c ****  * @return ﮒﺛﮒﻝﭦﺟﻠﮒﭦ۵ (m/s)
 142:MyHardWare/Src/pid_speed.c ****  */
 143:MyHardWare/Src/pid_speed.c **** static float get_encoder_speed_m_s(Encoder_Id_e encoder_id) {
 144:MyHardWare/Src/pid_speed.c ****   // ﻟﺓﮒﻝﺙﻝ ﮒ۷ﮔﺍﮔ؟
ARM GAS  C:\Users\asus\AppData\Local\Temp\ccsGn5n9.s 			page 4


 145:MyHardWare/Src/pid_speed.c ****   Encoder_Data_t encoder_data = Encoder_GetData(encoder_id);
 146:MyHardWare/Src/pid_speed.c **** 
 147:MyHardWare/Src/pid_speed.c ****   // ﻟﺟﮒﻝﭦﺟﻠﮒﭦ۵
 148:MyHardWare/Src/pid_speed.c ****   return encoder_data.speed_m_s;
 149:MyHardWare/Src/pid_speed.c **** }
 150:MyHardWare/Src/pid_speed.c **** 
 151:MyHardWare/Src/pid_speed.c **** /**
 152:MyHardWare/Src/pid_speed.c ****  * @brief ﮔﺑﮔﺍﻝﭖﮔﭦﻟﺝﮒﭦ
 153:MyHardWare/Src/pid_speed.c ****  * @param controller ﮔ۶ﮒﭘﮒ۷ﮒ؟ﻛﺝﮔﻠ
 154:MyHardWare/Src/pid_speed.c ****  * @param output PIDﻟﺝﮒﭦﮒﺙ
 155:MyHardWare/Src/pid_speed.c ****  */
 156:MyHardWare/Src/pid_speed.c **** static void update_motor_output(Speed_PID_Controller_t *controller,
 157:MyHardWare/Src/pid_speed.c ****                                 float output) {
 158:MyHardWare/Src/pid_speed.c ****   // ﻠﮒﭘﻟﺝﮒﭦﻟﮒﺑ
 159:MyHardWare/Src/pid_speed.c ****   if (output > SPEED_PID_OUTPUT_MAX) {
 160:MyHardWare/Src/pid_speed.c ****     output = SPEED_PID_OUTPUT_MAX;
 161:MyHardWare/Src/pid_speed.c ****   } else if (output < -SPEED_PID_OUTPUT_MAX) {
 162:MyHardWare/Src/pid_speed.c ****     output = -SPEED_PID_OUTPUT_MAX;
 163:MyHardWare/Src/pid_speed.c ****   }
 164:MyHardWare/Src/pid_speed.c **** 
 165:MyHardWare/Src/pid_speed.c ****   // ﮔ ﺗﮔ؟ﻟﺝﮒﭦﻝ؛۵ﮒﺓﻝ۰؟ﮒ؟ﮔﺗﮒ
 166:MyHardWare/Src/pid_speed.c ****   Motor_Direction_e direction;
 167:MyHardWare/Src/pid_speed.c ****   if (output > 100) { // ﮔ­ﭨﮒﭦﻟ؟ﺝﻝﺛ؟
 168:MyHardWare/Src/pid_speed.c ****     direction = MOTOR_DIR_FORWARD;
 169:MyHardWare/Src/pid_speed.c ****   } else if (output < -100) {
 170:MyHardWare/Src/pid_speed.c ****     direction = MOTOR_DIR_BACKWARD;
 171:MyHardWare/Src/pid_speed.c ****   } else {
 172:MyHardWare/Src/pid_speed.c ****     direction = MOTOR_DIR_STOP;
 173:MyHardWare/Src/pid_speed.c ****     output = 0; // ﮒﮔ­۱ﮔﭘﻟﺝﮒﭦﻛﺕﭦ0
 174:MyHardWare/Src/pid_speed.c ****   }
 175:MyHardWare/Src/pid_speed.c **** 
 176:MyHardWare/Src/pid_speed.c ****   // ﻟ؟ﺝﻝﺛ؟ﻝﭖﮔﭦﮔﺗﮒﮒﻠﮒﭦ۵
 177:MyHardWare/Src/pid_speed.c ****   Motor_SetDirection(controller->motor_id, direction);
 178:MyHardWare/Src/pid_speed.c ****   Motor_SetSpeed(controller->motor_id, (int16_t)output);
 179:MyHardWare/Src/pid_speed.c **** 
 180:MyHardWare/Src/pid_speed.c ****   // ﮔﺑﮔﺍﻝ۰؛ﻛﭨﭘ
 181:MyHardWare/Src/pid_speed.c ****   Motor_Update(controller->motor_id);
 182:MyHardWare/Src/pid_speed.c **** }
 183:MyHardWare/Src/pid_speed.c **** 
 184:MyHardWare/Src/pid_speed.c **** /**
 185:MyHardWare/Src/pid_speed.c ****  * @brief PIDﮔ۶ﮒﭘﮒ۷ﮒﮒ۶ﮒﮒﺛﮔﺍ
 186:MyHardWare/Src/pid_speed.c ****  * @param pid Pointer to the PID state structure
 187:MyHardWare/Src/pid_speed.c ****  * @param target Target value for the PID controller
 188:MyHardWare/Src/pid_speed.c ****  * @param kp Proportional gain
 189:MyHardWare/Src/pid_speed.c ****  * @param ki Integral gain
 190:MyHardWare/Src/pid_speed.c ****  * @param kd Derivative gain
 191:MyHardWare/Src/pid_speed.c ****  */
 192:MyHardWare/Src/pid_speed.c **** static void pid_init(PID_State_t *pid, float target, float kp, float ki,
 193:MyHardWare/Src/pid_speed.c ****                      float kd) {
  29              		.loc 1 193 32 view -0
  30              		.cfi_startproc
  31              		@ args = 0, pretend = 0, frame = 0
  32              		@ frame_needed = 0, uses_anonymous_args = 0
  33              		@ link register save eliminated.
 194:MyHardWare/Src/pid_speed.c ****   pid->target_value = target;
  34              		.loc 1 194 3 view .LVU1
  35              		.loc 1 194 21 is_stmt 0 view .LVU2
ARM GAS  C:\Users\asus\AppData\Local\Temp\ccsGn5n9.s 			page 5


  36 0000 80ED030A 		vstr.32	s0, [r0, #12]
 195:MyHardWare/Src/pid_speed.c ****   pid->kp = kp;
  37              		.loc 1 195 3 is_stmt 1 view .LVU3
  38              		.loc 1 195 11 is_stmt 0 view .LVU4
  39 0004 C0ED000A 		vstr.32	s1, [r0]
 196:MyHardWare/Src/pid_speed.c ****   pid->ki = ki;
  40              		.loc 1 196 3 is_stmt 1 view .LVU5
  41              		.loc 1 196 11 is_stmt 0 view .LVU6
  42 0008 80ED011A 		vstr.32	s2, [r0, #4]
 197:MyHardWare/Src/pid_speed.c ****   pid->kd = kd;
  43              		.loc 1 197 3 is_stmt 1 view .LVU7
  44              		.loc 1 197 11 is_stmt 0 view .LVU8
  45 000c C0ED021A 		vstr.32	s3, [r0, #8]
 198:MyHardWare/Src/pid_speed.c ****   pid->last_integral_error = 0.0f;
  46              		.loc 1 198 3 is_stmt 1 view .LVU9
  47              		.loc 1 198 28 is_stmt 0 view .LVU10
  48 0010 0023     		movs	r3, #0
  49 0012 0361     		str	r3, [r0, #16]	@ float
 199:MyHardWare/Src/pid_speed.c ****   pid->last_error = 0.0f;
  50              		.loc 1 199 3 is_stmt 1 view .LVU11
  51              		.loc 1 199 19 is_stmt 0 view .LVU12
  52 0014 4361     		str	r3, [r0, #20]	@ float
 200:MyHardWare/Src/pid_speed.c **** }
  53              		.loc 1 200 1 view .LVU13
  54 0016 7047     		bx	lr
  55              		.cfi_endproc
  56              	.LFE130:
  58              		.section	.text.update_motor_output,"ax",%progbits
  59              		.align	1
  60              		.syntax unified
  61              		.thumb
  62              		.thumb_func
  64              	update_motor_output:
  65              	.LVL1:
  66              	.LFB129:
 157:MyHardWare/Src/pid_speed.c ****   // ﻠﮒﭘﻟﺝﮒﭦﻟﮒﺑ
  67              		.loc 1 157 47 is_stmt 1 view -0
  68              		.cfi_startproc
  69              		@ args = 0, pretend = 0, frame = 0
  70              		@ frame_needed = 0, uses_anonymous_args = 0
 157:MyHardWare/Src/pid_speed.c ****   // ﻠﮒﭘﻟﺝﮒﭦﻟﮒﺑ
  71              		.loc 1 157 47 is_stmt 0 view .LVU15
  72 0000 10B5     		push	{r4, lr}
  73              	.LCFI0:
  74              		.cfi_def_cfa_offset 8
  75              		.cfi_offset 4, -8
  76              		.cfi_offset 14, -4
  77 0002 2DED028B 		vpush.64	{d8}
  78              	.LCFI1:
  79              		.cfi_def_cfa_offset 16
  80              		.cfi_offset 80, -16
  81              		.cfi_offset 81, -12
  82 0006 0446     		mov	r4, r0
 159:MyHardWare/Src/pid_speed.c ****     output = SPEED_PID_OUTPUT_MAX;
  83              		.loc 1 159 3 is_stmt 1 view .LVU16
 159:MyHardWare/Src/pid_speed.c ****     output = SPEED_PID_OUTPUT_MAX;
  84              		.loc 1 159 6 is_stmt 0 view .LVU17
ARM GAS  C:\Users\asus\AppData\Local\Temp\ccsGn5n9.s 			page 6


  85 0008 DFED1D7A 		vldr.32	s15, .L13
  86 000c B4EEE70A 		vcmpe.f32	s0, s15
  87 0010 F1EE10FA 		vmrs	APSR_nzcv, FPSCR
  88 0014 1CDC     		bgt	.L6
  89 0016 B0EE408A 		vmov.f32	s16, s0
 161:MyHardWare/Src/pid_speed.c ****     output = -SPEED_PID_OUTPUT_MAX;
  90              		.loc 1 161 10 is_stmt 1 view .LVU18
 161:MyHardWare/Src/pid_speed.c ****     output = -SPEED_PID_OUTPUT_MAX;
  91              		.loc 1 161 13 is_stmt 0 view .LVU19
  92 001a DFED1A7A 		vldr.32	s15, .L13+4
  93 001e B4EEE70A 		vcmpe.f32	s0, s15
  94 0022 F1EE10FA 		vmrs	APSR_nzcv, FPSCR
  95 0026 08D4     		bmi	.L7
 166:MyHardWare/Src/pid_speed.c ****   if (output > 100) { // ﮔ­ﭨﮒﭦﻟ؟ﺝﻝﺛ؟
  96              		.loc 1 166 3 is_stmt 1 view .LVU20
 167:MyHardWare/Src/pid_speed.c ****     direction = MOTOR_DIR_FORWARD;
  97              		.loc 1 167 3 view .LVU21
 167:MyHardWare/Src/pid_speed.c ****     direction = MOTOR_DIR_FORWARD;
  98              		.loc 1 167 6 is_stmt 0 view .LVU22
  99 0028 DFED177A 		vldr.32	s15, .L13+8
 100 002c B4EEE70A 		vcmpe.f32	s0, s15
 101 0030 F1EE10FA 		vmrs	APSR_nzcv, FPSCR
 102 0034 03DD     		ble	.L4
 168:MyHardWare/Src/pid_speed.c ****   } else if (output < -100) {
 103              		.loc 1 168 15 view .LVU23
 104 0036 0121     		movs	r1, #1
 105 0038 0DE0     		b	.L3
 106              	.L7:
 162:MyHardWare/Src/pid_speed.c ****   }
 107              		.loc 1 162 12 view .LVU24
 108 003a 9FED128A 		vldr.32	s16, .L13+4
 109              	.L4:
 110              	.LVL2:
 169:MyHardWare/Src/pid_speed.c ****     direction = MOTOR_DIR_BACKWARD;
 111              		.loc 1 169 10 is_stmt 1 view .LVU25
 169:MyHardWare/Src/pid_speed.c ****     direction = MOTOR_DIR_BACKWARD;
 112              		.loc 1 169 13 is_stmt 0 view .LVU26
 113 003e DFED137A 		vldr.32	s15, .L13+12
 114 0042 B4EEE78A 		vcmpe.f32	s16, s15
 115 0046 F1EE10FA 		vmrs	APSR_nzcv, FPSCR
 116 004a 15D5     		bpl	.L11
 170:MyHardWare/Src/pid_speed.c ****   } else {
 117              		.loc 1 170 15 view .LVU27
 118 004c 0221     		movs	r1, #2
 119 004e 02E0     		b	.L3
 120              	.LVL3:
 121              	.L6:
 168:MyHardWare/Src/pid_speed.c ****   } else if (output < -100) {
 122              		.loc 1 168 15 view .LVU28
 123 0050 0121     		movs	r1, #1
 160:MyHardWare/Src/pid_speed.c ****   } else if (output < -SPEED_PID_OUTPUT_MAX) {
 124              		.loc 1 160 12 view .LVU29
 125 0052 9FED0B8A 		vldr.32	s16, .L13
 126              	.LVL4:
 127              	.L3:
 177:MyHardWare/Src/pid_speed.c ****   Motor_SetSpeed(controller->motor_id, (int16_t)output);
 128              		.loc 1 177 3 is_stmt 1 view .LVU30
ARM GAS  C:\Users\asus\AppData\Local\Temp\ccsGn5n9.s 			page 7


 129 0056 6079     		ldrb	r0, [r4, #5]	@ zero_extendqisi2
 130              	.LVL5:
 177:MyHardWare/Src/pid_speed.c ****   Motor_SetSpeed(controller->motor_id, (int16_t)output);
 131              		.loc 1 177 3 is_stmt 0 view .LVU31
 132 0058 FFF7FEFF 		bl	Motor_SetDirection
 133              	.LVL6:
 178:MyHardWare/Src/pid_speed.c **** 
 134              		.loc 1 178 3 is_stmt 1 view .LVU32
 135 005c BDEEC88A 		vcvt.s32.f32	s16, s16
 136              	.LVL7:
 178:MyHardWare/Src/pid_speed.c **** 
 137              		.loc 1 178 3 is_stmt 0 view .LVU33
 138 0060 18EE103A 		vmov	r3, s16	@ int
 139 0064 19B2     		sxth	r1, r3
 140 0066 6079     		ldrb	r0, [r4, #5]	@ zero_extendqisi2
 141 0068 FFF7FEFF 		bl	Motor_SetSpeed
 142              	.LVL8:
 181:MyHardWare/Src/pid_speed.c **** }
 143              		.loc 1 181 3 is_stmt 1 view .LVU34
 144 006c 6079     		ldrb	r0, [r4, #5]	@ zero_extendqisi2
 145 006e FFF7FEFF 		bl	Motor_Update
 146              	.LVL9:
 182:MyHardWare/Src/pid_speed.c **** 
 147              		.loc 1 182 1 is_stmt 0 view .LVU35
 148 0072 BDEC028B 		vldm	sp!, {d8}
 149              	.LCFI2:
 150              		.cfi_remember_state
 151              		.cfi_restore 80
 152              		.cfi_restore 81
 153              		.cfi_def_cfa_offset 8
 154 0076 10BD     		pop	{r4, pc}
 155              	.LVL10:
 156              	.L11:
 157              	.LCFI3:
 158              		.cfi_restore_state
 172:MyHardWare/Src/pid_speed.c ****     output = 0; // ﮒﮔ­۱ﮔﭘﻟﺝﮒﭦﻛﺕﭦ0
 159              		.loc 1 172 15 view .LVU36
 160 0078 0021     		movs	r1, #0
 173:MyHardWare/Src/pid_speed.c ****   }
 161              		.loc 1 173 12 view .LVU37
 162 007a 9FED058A 		vldr.32	s16, .L13+16
 163 007e EAE7     		b	.L3
 164              	.L14:
 165              		.align	2
 166              	.L13:
 167 0080 003C0346 		.word	1174617088
 168 0084 003C03C6 		.word	-972866560
 169 0088 0000C842 		.word	1120403456
 170 008c 0000C8C2 		.word	-1027080192
 171 0090 00000000 		.word	0
 172              		.cfi_endproc
 173              	.LFE129:
 175              		.section	.text.get_encoder_speed_m_s,"ax",%progbits
 176              		.align	1
 177              		.syntax unified
 178              		.thumb
 179              		.thumb_func
ARM GAS  C:\Users\asus\AppData\Local\Temp\ccsGn5n9.s 			page 8


 181              	get_encoder_speed_m_s:
 182              	.LVL11:
 183              	.LFB128:
 143:MyHardWare/Src/pid_speed.c ****   // ﻟﺓﮒﻝﺙﻝ ﮒ۷ﮔﺍﮔ؟
 184              		.loc 1 143 61 is_stmt 1 view -0
 185              		.cfi_startproc
 186              		@ args = 0, pretend = 0, frame = 56
 187              		@ frame_needed = 0, uses_anonymous_args = 0
 143:MyHardWare/Src/pid_speed.c ****   // ﻟﺓﮒﻝﺙﻝ ﮒ۷ﮔﺍﮔ؟
 188              		.loc 1 143 61 is_stmt 0 view .LVU39
 189 0000 00B5     		push	{lr}
 190              	.LCFI4:
 191              		.cfi_def_cfa_offset 4
 192              		.cfi_offset 14, -4
 193 0002 8FB0     		sub	sp, sp, #60
 194              	.LCFI5:
 195              		.cfi_def_cfa_offset 64
 196 0004 0146     		mov	r1, r0
 145:MyHardWare/Src/pid_speed.c **** 
 197              		.loc 1 145 3 is_stmt 1 view .LVU40
 145:MyHardWare/Src/pid_speed.c **** 
 198              		.loc 1 145 33 is_stmt 0 view .LVU41
 199 0006 01A8     		add	r0, sp, #4
 200              	.LVL12:
 145:MyHardWare/Src/pid_speed.c **** 
 201              		.loc 1 145 33 view .LVU42
 202 0008 FFF7FEFF 		bl	Encoder_GetData
 203              	.LVL13:
 148:MyHardWare/Src/pid_speed.c **** }
 204              		.loc 1 148 3 is_stmt 1 view .LVU43
 149:MyHardWare/Src/pid_speed.c **** 
 205              		.loc 1 149 1 is_stmt 0 view .LVU44
 206 000c 9DED070A 		vldr.32	s0, [sp, #28]
 207 0010 0FB0     		add	sp, sp, #60
 208              	.LCFI6:
 209              		.cfi_def_cfa_offset 4
 210              		@ sp needed
 211 0012 5DF804FB 		ldr	pc, [sp], #4
 212              		.cfi_endproc
 213              	.LFE128:
 215              		.section	.text.Speed_PID_Init,"ax",%progbits
 216              		.align	1
 217              		.global	Speed_PID_Init
 218              		.syntax unified
 219              		.thumb
 220              		.thumb_func
 222              	Speed_PID_Init:
 223              	.LVL14:
 224              	.LFB123:
  28:MyHardWare/Src/pid_speed.c ****   // ﮒﮔﺍﮔ۲ﮔ۴
 225              		.loc 1 28 72 is_stmt 1 view -0
 226              		.cfi_startproc
 227              		@ args = 0, pretend = 0, frame = 0
 228              		@ frame_needed = 0, uses_anonymous_args = 0
  30:MyHardWare/Src/pid_speed.c ****       motor_id >= MOTOR_MAX) {
 229              		.loc 1 30 3 view .LVU46
  30:MyHardWare/Src/pid_speed.c ****       motor_id >= MOTOR_MAX) {
ARM GAS  C:\Users\asus\AppData\Local\Temp\ccsGn5n9.s 			page 9


 230              		.loc 1 30 6 is_stmt 0 view .LVU47
 231 0000 28B3     		cbz	r0, .L20
  28:MyHardWare/Src/pid_speed.c ****   // ﮒﮔﺍﮔ۲ﮔ۴
 232              		.loc 1 28 72 view .LVU48
 233 0002 70B5     		push	{r4, r5, r6, lr}
 234              	.LCFI7:
 235              		.cfi_def_cfa_offset 16
 236              		.cfi_offset 4, -16
 237              		.cfi_offset 5, -12
 238              		.cfi_offset 6, -8
 239              		.cfi_offset 14, -4
 240 0004 2DED028B 		vpush.64	{d8}
 241              	.LCFI8:
 242              		.cfi_def_cfa_offset 24
 243              		.cfi_offset 80, -24
 244              		.cfi_offset 81, -20
 245 0008 0C46     		mov	r4, r1
 246 000a 1546     		mov	r5, r2
 247 000c 0646     		mov	r6, r0
  30:MyHardWare/Src/pid_speed.c ****       motor_id >= MOTOR_MAX) {
 248              		.loc 1 30 26 discriminator 1 view .LVU49
 249 000e 0129     		cmp	r1, #1
 250 0010 01D8     		bhi	.L17
  30:MyHardWare/Src/pid_speed.c ****       motor_id >= MOTOR_MAX) {
 251              		.loc 1 30 55 discriminator 2 view .LVU50
 252 0012 012A     		cmp	r2, #1
 253 0014 02D9     		bls	.L23
 254              	.LVL15:
 255              	.L17:
  47:MyHardWare/Src/pid_speed.c **** 
 256              		.loc 1 47 1 view .LVU51
 257 0016 BDEC028B 		vldm	sp!, {d8}
 258              	.LCFI9:
 259              		.cfi_remember_state
 260              		.cfi_restore 80
 261              		.cfi_restore 81
 262              		.cfi_def_cfa_offset 16
 263 001a 70BD     		pop	{r4, r5, r6, pc}
 264              	.LVL16:
 265              	.L23:
 266              	.LCFI10:
 267              		.cfi_restore_state
  36:MyHardWare/Src/pid_speed.c **** 
 268              		.loc 1 36 3 is_stmt 1 view .LVU52
 269 001c 9FED0C8A 		vldr.32	s16, .L24
 270 0020 F0EE411A 		vmov.f32	s3, s2
 271 0024 B0EE601A 		vmov.f32	s2, s1
 272              	.LVL17:
  36:MyHardWare/Src/pid_speed.c **** 
 273              		.loc 1 36 3 is_stmt 0 view .LVU53
 274 0028 F0EE400A 		vmov.f32	s1, s0
 275              	.LVL18:
  36:MyHardWare/Src/pid_speed.c **** 
 276              		.loc 1 36 3 view .LVU54
 277 002c B0EE480A 		vmov.f32	s0, s16
 278              	.LVL19:
  36:MyHardWare/Src/pid_speed.c **** 
ARM GAS  C:\Users\asus\AppData\Local\Temp\ccsGn5n9.s 			page 10


 279              		.loc 1 36 3 view .LVU55
 280 0030 1430     		adds	r0, r0, #20
 281              	.LVL20:
  36:MyHardWare/Src/pid_speed.c **** 
 282              		.loc 1 36 3 view .LVU56
 283 0032 FFF7FEFF 		bl	pid_init
 284              	.LVL21:
  39:MyHardWare/Src/pid_speed.c ****   controller->motor_id = motor_id;
 285              		.loc 1 39 3 is_stmt 1 view .LVU57
  39:MyHardWare/Src/pid_speed.c ****   controller->motor_id = motor_id;
 286              		.loc 1 39 26 is_stmt 0 view .LVU58
 287 0036 3471     		strb	r4, [r6, #4]
  40:MyHardWare/Src/pid_speed.c **** 
 288              		.loc 1 40 3 is_stmt 1 view .LVU59
  40:MyHardWare/Src/pid_speed.c **** 
 289              		.loc 1 40 24 is_stmt 0 view .LVU60
 290 0038 7571     		strb	r5, [r6, #5]
  43:MyHardWare/Src/pid_speed.c ****   controller->current_speed_m_s = 0.0f;
 291              		.loc 1 43 3 is_stmt 1 view .LVU61
  43:MyHardWare/Src/pid_speed.c ****   controller->current_speed_m_s = 0.0f;
 292              		.loc 1 43 32 is_stmt 0 view .LVU62
 293 003a 86ED008A 		vstr.32	s16, [r6]
  44:MyHardWare/Src/pid_speed.c ****   controller->enabled = 0;
 294              		.loc 1 44 3 is_stmt 1 view .LVU63
  44:MyHardWare/Src/pid_speed.c ****   controller->enabled = 0;
 295              		.loc 1 44 33 is_stmt 0 view .LVU64
 296 003e 86ED028A 		vstr.32	s16, [r6, #8]
  45:MyHardWare/Src/pid_speed.c ****   controller->last_update_time = GetSysTick();
 297              		.loc 1 45 3 is_stmt 1 view .LVU65
  45:MyHardWare/Src/pid_speed.c ****   controller->last_update_time = GetSysTick();
 298              		.loc 1 45 23 is_stmt 0 view .LVU66
 299 0042 0023     		movs	r3, #0
 300 0044 3373     		strb	r3, [r6, #12]
  46:MyHardWare/Src/pid_speed.c **** }
 301              		.loc 1 46 3 is_stmt 1 view .LVU67
  46:MyHardWare/Src/pid_speed.c **** }
 302              		.loc 1 46 34 is_stmt 0 view .LVU68
 303 0046 FFF7FEFF 		bl	GetSysTick
 304              	.LVL22:
  46:MyHardWare/Src/pid_speed.c **** }
 305              		.loc 1 46 32 discriminator 1 view .LVU69
 306 004a 3061     		str	r0, [r6, #16]
 307 004c E3E7     		b	.L17
 308              	.LVL23:
 309              	.L20:
 310              	.LCFI11:
 311              		.cfi_def_cfa_offset 0
 312              		.cfi_restore 4
 313              		.cfi_restore 5
 314              		.cfi_restore 6
 315              		.cfi_restore 14
 316              		.cfi_restore 80
 317              		.cfi_restore 81
  46:MyHardWare/Src/pid_speed.c **** }
 318              		.loc 1 46 32 discriminator 1 view .LVU70
 319 004e 7047     		bx	lr
 320              	.L25:
ARM GAS  C:\Users\asus\AppData\Local\Temp\ccsGn5n9.s 			page 11


 321              		.align	2
 322              	.L24:
 323 0050 00000000 		.word	0
 324              		.cfi_endproc
 325              	.LFE123:
 327              		.section	.text.Speed_PID_SetTargetSpeed,"ax",%progbits
 328              		.align	1
 329              		.global	Speed_PID_SetTargetSpeed
 330              		.syntax unified
 331              		.thumb
 332              		.thumb_func
 334              	Speed_PID_SetTargetSpeed:
 335              	.LVL24:
 336              	.LFB124:
  55:MyHardWare/Src/pid_speed.c ****   // ﮒﮔﺍﮔ۲ﮔ۴
 337              		.loc 1 55 48 is_stmt 1 view -0
 338              		.cfi_startproc
 339              		@ args = 0, pretend = 0, frame = 0
 340              		@ frame_needed = 0, uses_anonymous_args = 0
 341              		@ link register save eliminated.
  57:MyHardWare/Src/pid_speed.c ****     return;
 342              		.loc 1 57 3 view .LVU72
  57:MyHardWare/Src/pid_speed.c ****     return;
 343              		.loc 1 57 6 is_stmt 0 view .LVU73
 344 0000 18B1     		cbz	r0, .L26
  62:MyHardWare/Src/pid_speed.c ****   // ﮔﺑﮔﺍPIDﻝ؟ﮔ ﮒﺙ
 345              		.loc 1 62 3 is_stmt 1 view .LVU74
  62:MyHardWare/Src/pid_speed.c ****   // ﮔﺑﮔﺍPIDﻝ؟ﮔ ﮒﺙ
 346              		.loc 1 62 32 is_stmt 0 view .LVU75
 347 0002 80ED000A 		vstr.32	s0, [r0]
  64:MyHardWare/Src/pid_speed.c **** }
 348              		.loc 1 64 3 is_stmt 1 view .LVU76
  64:MyHardWare/Src/pid_speed.c **** }
 349              		.loc 1 64 38 is_stmt 0 view .LVU77
 350 0006 80ED080A 		vstr.32	s0, [r0, #32]
 351              	.L26:
  65:MyHardWare/Src/pid_speed.c **** 
 352              		.loc 1 65 1 view .LVU78
 353 000a 7047     		bx	lr
 354              		.cfi_endproc
 355              	.LFE124:
 357              		.section	.text.Speed_PID_Enable,"ax",%progbits
 358              		.align	1
 359              		.global	Speed_PID_Enable
 360              		.syntax unified
 361              		.thumb
 362              		.thumb_func
 364              	Speed_PID_Enable:
 365              	.LVL25:
 366              	.LFB125:
  71:MyHardWare/Src/pid_speed.c ****   // ﮒﮔﺍﮔ۲ﮔ۴
 367              		.loc 1 71 59 is_stmt 1 view -0
 368              		.cfi_startproc
 369              		@ args = 0, pretend = 0, frame = 0
 370              		@ frame_needed = 0, uses_anonymous_args = 0
 371              		@ link register save eliminated.
  73:MyHardWare/Src/pid_speed.c ****     return;
ARM GAS  C:\Users\asus\AppData\Local\Temp\ccsGn5n9.s 			page 12


 372              		.loc 1 73 3 view .LVU80
  73:MyHardWare/Src/pid_speed.c ****     return;
 373              		.loc 1 73 6 is_stmt 0 view .LVU81
 374 0000 08B1     		cbz	r0, .L28
  78:MyHardWare/Src/pid_speed.c **** }
 375              		.loc 1 78 3 is_stmt 1 view .LVU82
  78:MyHardWare/Src/pid_speed.c **** }
 376              		.loc 1 78 23 is_stmt 0 view .LVU83
 377 0002 0122     		movs	r2, #1
 378 0004 0273     		strb	r2, [r0, #12]
 379              	.L28:
  79:MyHardWare/Src/pid_speed.c **** 
 380              		.loc 1 79 1 view .LVU84
 381 0006 7047     		bx	lr
 382              		.cfi_endproc
 383              	.LFE125:
 385              		.section	.text.Speed_PID_Disable,"ax",%progbits
 386              		.align	1
 387              		.global	Speed_PID_Disable
 388              		.syntax unified
 389              		.thumb
 390              		.thumb_func
 392              	Speed_PID_Disable:
 393              	.LVL26:
 394              	.LFB126:
  85:MyHardWare/Src/pid_speed.c ****   // ﮒﮔﺍﮔ۲ﮔ۴
 395              		.loc 1 85 60 is_stmt 1 view -0
 396              		.cfi_startproc
 397              		@ args = 0, pretend = 0, frame = 0
 398              		@ frame_needed = 0, uses_anonymous_args = 0
  87:MyHardWare/Src/pid_speed.c ****     return;
 399              		.loc 1 87 3 view .LVU86
  87:MyHardWare/Src/pid_speed.c ****     return;
 400              		.loc 1 87 6 is_stmt 0 view .LVU87
 401 0000 80B1     		cbz	r0, .L33
  85:MyHardWare/Src/pid_speed.c ****   // ﮒﮔﺍﮔ۲ﮔ۴
 402              		.loc 1 85 60 view .LVU88
 403 0002 10B5     		push	{r4, lr}
 404              	.LCFI12:
 405              		.cfi_def_cfa_offset 8
 406              		.cfi_offset 4, -8
 407              		.cfi_offset 14, -4
 408 0004 2DED028B 		vpush.64	{d8}
 409              	.LCFI13:
 410              		.cfi_def_cfa_offset 16
 411              		.cfi_offset 80, -16
 412              		.cfi_offset 81, -12
 413 0008 0446     		mov	r4, r0
  92:MyHardWare/Src/pid_speed.c **** 
 414              		.loc 1 92 3 is_stmt 1 view .LVU89
  92:MyHardWare/Src/pid_speed.c **** 
 415              		.loc 1 92 23 is_stmt 0 view .LVU90
 416 000a 0023     		movs	r3, #0
 417 000c 0373     		strb	r3, [r0, #12]
  95:MyHardWare/Src/pid_speed.c **** 
 418              		.loc 1 95 3 is_stmt 1 view .LVU91
 419 000e 9FED068A 		vldr.32	s16, .L36
ARM GAS  C:\Users\asus\AppData\Local\Temp\ccsGn5n9.s 			page 13


 420 0012 B0EE480A 		vmov.f32	s0, s16
 421 0016 FFF7FEFF 		bl	update_motor_output
 422              	.LVL27:
  98:MyHardWare/Src/pid_speed.c **** }
 423              		.loc 1 98 3 view .LVU92
  98:MyHardWare/Src/pid_speed.c **** }
 424              		.loc 1 98 45 is_stmt 0 view .LVU93
 425 001a 84ED098A 		vstr.32	s16, [r4, #36]
  99:MyHardWare/Src/pid_speed.c **** 
 426              		.loc 1 99 1 view .LVU94
 427 001e BDEC028B 		vldm	sp!, {d8}
 428              	.LCFI14:
 429              		.cfi_restore 80
 430              		.cfi_restore 81
 431              		.cfi_def_cfa_offset 8
 432 0022 10BD     		pop	{r4, pc}
 433              	.LVL28:
 434              	.L33:
 435              	.LCFI15:
 436              		.cfi_def_cfa_offset 0
 437              		.cfi_restore 4
 438              		.cfi_restore 14
  99:MyHardWare/Src/pid_speed.c **** 
 439              		.loc 1 99 1 view .LVU95
 440 0024 7047     		bx	lr
 441              	.L37:
 442 0026 00BF     		.align	2
 443              	.L36:
 444 0028 00000000 		.word	0
 445              		.cfi_endproc
 446              	.LFE126:
 448              		.section	.text.Speed_PID_Update,"ax",%progbits
 449              		.align	1
 450              		.global	Speed_PID_Update
 451              		.syntax unified
 452              		.thumb
 453              		.thumb_func
 455              	Speed_PID_Update:
 456              	.LVL29:
 457              	.LFB127:
 106:MyHardWare/Src/pid_speed.c ****   // ﮒﮔﺍﮔ۲ﮔ۴
 458              		.loc 1 106 59 is_stmt 1 view -0
 459              		.cfi_startproc
 460              		@ args = 0, pretend = 0, frame = 0
 461              		@ frame_needed = 0, uses_anonymous_args = 0
 108:MyHardWare/Src/pid_speed.c ****     return;
 462              		.loc 1 108 3 view .LVU97
 108:MyHardWare/Src/pid_speed.c ****     return;
 463              		.loc 1 108 6 is_stmt 0 view .LVU98
 464 0000 0028     		cmp	r0, #0
 465 0002 47D0     		beq	.L41
 106:MyHardWare/Src/pid_speed.c ****   // ﮒﮔﺍﮔ۲ﮔ۴
 466              		.loc 1 106 59 view .LVU99
 467 0004 38B5     		push	{r3, r4, r5, lr}
 468              	.LCFI16:
 469              		.cfi_def_cfa_offset 16
 470              		.cfi_offset 3, -16
ARM GAS  C:\Users\asus\AppData\Local\Temp\ccsGn5n9.s 			page 14


 471              		.cfi_offset 4, -12
 472              		.cfi_offset 5, -8
 473              		.cfi_offset 14, -4
 474 0006 2DED028B 		vpush.64	{d8}
 475              	.LCFI17:
 476              		.cfi_def_cfa_offset 24
 477              		.cfi_offset 80, -24
 478              		.cfi_offset 81, -20
 479 000a 0446     		mov	r4, r0
 108:MyHardWare/Src/pid_speed.c ****     return;
 480              		.loc 1 108 40 discriminator 1 view .LVU100
 481 000c 037B     		ldrb	r3, [r0, #12]	@ zero_extendqisi2
 108:MyHardWare/Src/pid_speed.c ****     return;
 482              		.loc 1 108 26 discriminator 1 view .LVU101
 483 000e 13B9     		cbnz	r3, .L44
 484              	.LVL30:
 485              	.L38:
 134:MyHardWare/Src/pid_speed.c **** 
 486              		.loc 1 134 1 view .LVU102
 487 0010 BDEC028B 		vldm	sp!, {d8}
 488              	.LCFI18:
 489              		.cfi_remember_state
 490              		.cfi_restore 80
 491              		.cfi_restore 81
 492              		.cfi_def_cfa_offset 16
 493 0014 38BD     		pop	{r3, r4, r5, pc}
 494              	.LVL31:
 495              	.L44:
 496              	.LCFI19:
 497              		.cfi_restore_state
 113:MyHardWare/Src/pid_speed.c ****   float dt = (current_time - controller->last_update_time) / 1000.0f; // ﻟﺛ؛ﮔ۱ﻛﺕﭦﻝ۶
 498              		.loc 1 113 3 is_stmt 1 view .LVU103
 113:MyHardWare/Src/pid_speed.c ****   float dt = (current_time - controller->last_update_time) / 1000.0f; // ﻟﺛ؛ﮔ۱ﻛﺕﭦﻝ۶
 499              		.loc 1 113 27 is_stmt 0 view .LVU104
 500 0016 FFF7FEFF 		bl	GetSysTick
 501              	.LVL32:
 113:MyHardWare/Src/pid_speed.c ****   float dt = (current_time - controller->last_update_time) / 1000.0f; // ﻟﺛ؛ﮔ۱ﻛﺕﭦﻝ۶
 502              		.loc 1 113 27 view .LVU105
 503 001a 0546     		mov	r5, r0
 504              	.LVL33:
 114:MyHardWare/Src/pid_speed.c ****   
 505              		.loc 1 114 3 is_stmt 1 view .LVU106
 114:MyHardWare/Src/pid_speed.c ****   
 506              		.loc 1 114 40 is_stmt 0 view .LVU107
 507 001c 2369     		ldr	r3, [r4, #16]
 114:MyHardWare/Src/pid_speed.c ****   
 508              		.loc 1 114 28 view .LVU108
 509 001e C31A     		subs	r3, r0, r3
 114:MyHardWare/Src/pid_speed.c ****   
 510              		.loc 1 114 60 view .LVU109
 511 0020 07EE903A 		vmov	s15, r3	@ int
 512 0024 F8EE677A 		vcvt.f32.u32	s15, s15
 114:MyHardWare/Src/pid_speed.c ****   
 513              		.loc 1 114 9 view .LVU110
 514 0028 9FED1B7A 		vldr.32	s14, .L45
 515 002c 87EE878A 		vdiv.f32	s16, s15, s14
 516              	.LVL34:
ARM GAS  C:\Users\asus\AppData\Local\Temp\ccsGn5n9.s 			page 15


 118:MyHardWare/Src/pid_speed.c **** 
 517              		.loc 1 118 3 is_stmt 1 view .LVU111
 118:MyHardWare/Src/pid_speed.c **** 
 518              		.loc 1 118 35 is_stmt 0 view .LVU112
 519 0030 2079     		ldrb	r0, [r4, #4]	@ zero_extendqisi2
 520              	.LVL35:
 118:MyHardWare/Src/pid_speed.c **** 
 521              		.loc 1 118 35 view .LVU113
 522 0032 FFF7FEFF 		bl	get_encoder_speed_m_s
 523              	.LVL36:
 118:MyHardWare/Src/pid_speed.c **** 
 524              		.loc 1 118 33 discriminator 1 view .LVU114
 525 0036 84ED020A 		vstr.32	s0, [r4, #8]
 122:MyHardWare/Src/pid_speed.c ****   float derivative = (error - controller->pid_state.last_error) / dt;//ﻟ؟۰ﻝ؟ﮒﺝ؟ﮒﻠ۰ﺗ
 526              		.loc 1 122 3 is_stmt 1 view .LVU115
 122:MyHardWare/Src/pid_speed.c ****   float derivative = (error - controller->pid_state.last_error) / dt;//ﻟ؟۰ﻝ؟ﮒﺝ؟ﮒﻠ۰ﺗ
 527              		.loc 1 122 38 is_stmt 0 view .LVU116
 528 003a 94ED087A 		vldr.32	s14, [r4, #32]
 122:MyHardWare/Src/pid_speed.c ****   float derivative = (error - controller->pid_state.last_error) / dt;//ﻟ؟۰ﻝ؟ﮒﺝ؟ﮒﻠ۰ﺗ
 529              		.loc 1 122 9 view .LVU117
 530 003e 37EE407A 		vsub.f32	s14, s14, s0
 531              	.LVL37:
 123:MyHardWare/Src/pid_speed.c ****   float integral = (controller->pid_state.last_integral_error + error) * dt * 0.5f;//ﻟ؟۰ﻝ؟ﻝ۶ﺁﮒﻠ۰
 532              		.loc 1 123 3 is_stmt 1 view .LVU118
 123:MyHardWare/Src/pid_speed.c ****   float integral = (controller->pid_state.last_integral_error + error) * dt * 0.5f;//ﻟ؟۰ﻝ؟ﻝ۶ﺁﮒﻠ۰
 533              		.loc 1 123 52 is_stmt 0 view .LVU119
 534 0042 D4ED0A7A 		vldr.32	s15, [r4, #40]
 123:MyHardWare/Src/pid_speed.c ****   float integral = (controller->pid_state.last_integral_error + error) * dt * 0.5f;//ﻟ؟۰ﻝ؟ﻝ۶ﺁﮒﻠ۰
 535              		.loc 1 123 29 view .LVU120
 536 0046 77EE677A 		vsub.f32	s15, s14, s15
 123:MyHardWare/Src/pid_speed.c ****   float integral = (controller->pid_state.last_integral_error + error) * dt * 0.5f;//ﻟ؟۰ﻝ؟ﻝ۶ﺁﮒﻠ۰
 537              		.loc 1 123 9 view .LVU121
 538 004a C7EE885A 		vdiv.f32	s11, s15, s16
 539              	.LVL38:
 124:MyHardWare/Src/pid_speed.c ****   float output = controller->pid_state.kp * error + controller->pid_state.ki *integral + controller
 540              		.loc 1 124 3 is_stmt 1 view .LVU122
 124:MyHardWare/Src/pid_speed.c ****   float output = controller->pid_state.kp * error + controller->pid_state.ki *integral + controller
 541              		.loc 1 124 42 is_stmt 0 view .LVU123
 542 004e D4ED097A 		vldr.32	s15, [r4, #36]
 124:MyHardWare/Src/pid_speed.c ****   float output = controller->pid_state.kp * error + controller->pid_state.ki *integral + controller
 543              		.loc 1 124 63 view .LVU124
 544 0052 77EE877A 		vadd.f32	s15, s15, s14
 124:MyHardWare/Src/pid_speed.c ****   float output = controller->pid_state.kp * error + controller->pid_state.ki *integral + controller
 545              		.loc 1 124 72 view .LVU125
 546 0056 67EE887A 		vmul.f32	s15, s15, s16
 124:MyHardWare/Src/pid_speed.c ****   float output = controller->pid_state.kp * error + controller->pid_state.ki *integral + controller
 547              		.loc 1 124 9 view .LVU126
 548 005a F6EE006A 		vmov.f32	s13, #5.0e-1
 549 005e 67EEA67A 		vmul.f32	s15, s15, s13
 550              	.LVL39:
 125:MyHardWare/Src/pid_speed.c **** 
 551              		.loc 1 125 3 is_stmt 1 view .LVU127
 125:MyHardWare/Src/pid_speed.c **** 
 552              		.loc 1 125 39 is_stmt 0 view .LVU128
 553 0062 D4ED056A 		vldr.32	s13, [r4, #20]
 125:MyHardWare/Src/pid_speed.c **** 
 554              		.loc 1 125 43 view .LVU129
ARM GAS  C:\Users\asus\AppData\Local\Temp\ccsGn5n9.s 			page 16


 555 0066 66EE876A 		vmul.f32	s13, s13, s14
 125:MyHardWare/Src/pid_speed.c **** 
 556              		.loc 1 125 74 view .LVU130
 557 006a 94ED066A 		vldr.32	s12, [r4, #24]
 125:MyHardWare/Src/pid_speed.c **** 
 558              		.loc 1 125 78 view .LVU131
 559 006e 26EE276A 		vmul.f32	s12, s12, s15
 125:MyHardWare/Src/pid_speed.c **** 
 560              		.loc 1 125 51 view .LVU132
 561 0072 76EE866A 		vadd.f32	s13, s13, s12
 125:MyHardWare/Src/pid_speed.c **** 
 562              		.loc 1 125 111 view .LVU133
 563 0076 94ED070A 		vldr.32	s0, [r4, #28]
 125:MyHardWare/Src/pid_speed.c **** 
 564              		.loc 1 125 115 view .LVU134
 565 007a 20EE250A 		vmul.f32	s0, s0, s11
 566              	.LVL40:
 128:MyHardWare/Src/pid_speed.c ****   controller->pid_state.last_integral_error = integral;//ﮔﺑﮔﺍﻛﺕﮔ؛۰ﻝ۶ﺁﮒﻠ۰ﺗ
 567              		.loc 1 128 3 is_stmt 1 view .LVU135
 128:MyHardWare/Src/pid_speed.c ****   controller->pid_state.last_integral_error = integral;//ﮔﺑﮔﺍﻛﺕﮔ؛۰ﻝ۶ﺁﮒﻠ۰ﺗ
 568              		.loc 1 128 32 is_stmt 0 view .LVU136
 569 007e 2561     		str	r5, [r4, #16]
 129:MyHardWare/Src/pid_speed.c ****   controller->pid_state.last_error = error;//ﮔﺑﮔﺍﻛﺕﮔ؛۰ﻟﺁﺁﮒﺓ؟ﻠ۰ﺗ
 570              		.loc 1 129 3 is_stmt 1 view .LVU137
 129:MyHardWare/Src/pid_speed.c ****   controller->pid_state.last_error = error;//ﮔﺑﮔﺍﻛﺕﮔ؛۰ﻟﺁﺁﮒﺓ؟ﻠ۰ﺗ
 571              		.loc 1 129 45 is_stmt 0 view .LVU138
 572 0080 C4ED097A 		vstr.32	s15, [r4, #36]
 130:MyHardWare/Src/pid_speed.c **** 
 573              		.loc 1 130 3 is_stmt 1 view .LVU139
 130:MyHardWare/Src/pid_speed.c **** 
 574              		.loc 1 130 36 is_stmt 0 view .LVU140
 575 0084 84ED0A7A 		vstr.32	s14, [r4, #40]
 133:MyHardWare/Src/pid_speed.c **** }
 576              		.loc 1 133 3 is_stmt 1 view .LVU141
 577 0088 36EE800A 		vadd.f32	s0, s13, s0
 578              	.LVL41:
 133:MyHardWare/Src/pid_speed.c **** }
 579              		.loc 1 133 3 is_stmt 0 view .LVU142
 580 008c 2046     		mov	r0, r4
 581 008e FFF7FEFF 		bl	update_motor_output
 582              	.LVL42:
 133:MyHardWare/Src/pid_speed.c **** }
 583              		.loc 1 133 3 view .LVU143
 584 0092 BDE7     		b	.L38
 585              	.LVL43:
 586              	.L41:
 587              	.LCFI20:
 588              		.cfi_def_cfa_offset 0
 589              		.cfi_restore 3
 590              		.cfi_restore 4
 591              		.cfi_restore 5
 592              		.cfi_restore 14
 593              		.cfi_restore 80
 594              		.cfi_restore 81
 133:MyHardWare/Src/pid_speed.c **** }
 595              		.loc 1 133 3 view .LVU144
 596 0094 7047     		bx	lr
ARM GAS  C:\Users\asus\AppData\Local\Temp\ccsGn5n9.s 			page 17


 597              	.L46:
 598 0096 00BF     		.align	2
 599              	.L45:
 600 0098 00007A44 		.word	1148846080
 601              		.cfi_endproc
 602              	.LFE127:
 604              		.global	Speed_PID_Left
 605              		.section	.bss.Speed_PID_Left,"aw",%nobits
 606              		.align	2
 609              	Speed_PID_Left:
 610 0000 00000000 		.space	44
 610      00000000 
 610      00000000 
 610      00000000 
 610      00000000 
 611              		.global	Speed_PID_Right
 612              		.section	.bss.Speed_PID_Right,"aw",%nobits
 613              		.align	2
 616              	Speed_PID_Right:
 617 0000 00000000 		.space	44
 617      00000000 
 617      00000000 
 617      00000000 
 617      00000000 
 618              		.text
 619              	.Letext0:
 620              		.file 2 "C:/Program Files (x86)/Arm GNU Toolchain arm-none-eabi/13.2 Rel1/arm-none-eabi/include/ma
 621              		.file 3 "C:/Program Files (x86)/Arm GNU Toolchain arm-none-eabi/13.2 Rel1/arm-none-eabi/include/sy
 622              		.file 4 "MyHardWare/Inc/encoder.h"
 623              		.file 5 "MyHardWare/Inc/motor.h"
 624              		.file 6 "MyHardWare/Inc/pid_speed.h"
 625              		.file 7 "MyHardWare/Inc/task.h"
ARM GAS  C:\Users\asus\AppData\Local\Temp\ccsGn5n9.s 			page 18

