ARM GAS  C:\Users\asus\AppData\Local\Temp\ccO5cRLN.s 			page 1


   1              		.cpu cortex-m4
   2              		.arch armv7e-m
   3              		.fpu fpv4-sp-d16
   4              		.eabi_attribute 27, 1
   5              		.eabi_attribute 28, 1
   6              		.eabi_attribute 20, 1
   7              		.eabi_attribute 21, 1
   8              		.eabi_attribute 23, 3
   9              		.eabi_attribute 24, 1
  10              		.eabi_attribute 25, 1
  11              		.eabi_attribute 26, 1
  12              		.eabi_attribute 30, 1
  13              		.eabi_attribute 34, 1
  14              		.eabi_attribute 18, 4
  15              		.file	"pwm.c"
  16              		.text
  17              	.Ltext0:
  18              		.cfi_sections	.debug_frame
  19              		.file 1 "MyHardWare/Src/pwm.c"
  20              		.section	.text.PWM_Init,"ax",%progbits
  21              		.align	1
  22              		.global	PWM_Init
  23              		.syntax unified
  24              		.thumb
  25              		.thumb_func
  27              	PWM_Init:
  28              	.LFB123:
   1:MyHardWare/Src/pwm.c **** /**
   2:MyHardWare/Src/pwm.c ****  * @file pwm.c
   3:MyHardWare/Src/pwm.c ****  * @brief PWMиҫ“еҮәй©ұеҠЁе®һзҺ°ж–Үд»¶ - 23kHz PWMдҝЎеҸ·з”ҹжҲҗ
   4:MyHardWare/Src/pwm.c ****  * @version 1.0
   5:MyHardWare/Src/pwm.c ****  * @date 2025-12-13
   6:MyHardWare/Src/pwm.c ****  *
   7:MyHardWare/Src/pwm.c ****  * @details жң¬й©ұеҠЁе®һзҺ°еҹәдәҺTIM2_CH2зҡ„PWMиҫ“еҮәеҠҹиғҪ
   8:MyHardWare/Src/pwm.c ****  *          - иҫ“еҮәеј•и„ҡпјҡPA1 (TIM2_CH2)
   9:MyHardWare/Src/pwm.c ****  *          - PWMйў‘зҺҮпјҡ23kHz
  10:MyHardWare/Src/pwm.c ****  *          - й»ҳи®ӨеҚ з©әжҜ”пјҡ50%
  11:MyHardWare/Src/pwm.c ****  *          - е®ҡж—¶еҷЁж—¶й’ҹпјҡ84MHz (168MHzзі»з»ҹж—¶й’ҹеҲҶйў‘)
  12:MyHardWare/Src/pwm.c ****  *
  13:MyHardWare/Src/pwm.c ****  * @note  ж—¶й’ҹи®Ўз®—пјҡ168MHz вҶ’ APB1=42MHz вҶ’ TIM2=84MHz
  14:MyHardWare/Src/pwm.c ****  *        PWMйў‘зҺҮи®Ўз®—пјҡ84MHz / (83+1) / (43) вүҲ 23.26kHz
  15:MyHardWare/Src/pwm.c ****  */
  16:MyHardWare/Src/pwm.c **** 
  17:MyHardWare/Src/pwm.c **** #include "pwm.h"
  18:MyHardWare/Src/pwm.c **** 
  19:MyHardWare/Src/pwm.c **** /**
  20:MyHardWare/Src/pwm.c ****  * @brief  PWMеҲқе§ӢеҢ–еҮҪж•°
  21:MyHardWare/Src/pwm.c ****  * @param  None
  22:MyHardWare/Src/pwm.c ****  * @retval None
  23:MyHardWare/Src/pwm.c ****  *
  24:MyHardWare/Src/pwm.c ****  * @details еҲқе§ӢеҢ–жӯҘйӘӨпјҡ
  25:MyHardWare/Src/pwm.c ****  *          1. дҪҝиғҪGPIOе’ҢTIM2ж—¶й’ҹ
  26:MyHardWare/Src/pwm.c ****  *          2. й…ҚзҪ®PA1дёәTIM2_CH2еӨҚз”ЁеҠҹиғҪ
  27:MyHardWare/Src/pwm.c ****  *          3. й…ҚзҪ®TIM2ж—¶еҹәеҚ•е…ғдә§з”ҹ23kHz PWM
  28:MyHardWare/Src/pwm.c ****  *          4. й…ҚзҪ®PWMжЁЎејҸ1иҫ“еҮә
  29:MyHardWare/Src/pwm.c ****  *          5. и®ҫзҪ®й»ҳи®Ө50%еҚ з©әжҜ”
  30:MyHardWare/Src/pwm.c ****  */
ARM GAS  C:\Users\asus\AppData\Local\Temp\ccO5cRLN.s 			page 2


  31:MyHardWare/Src/pwm.c **** void PWM_Init(void)
  32:MyHardWare/Src/pwm.c **** {
  29              		.loc 1 32 1 view -0
  30              		.cfi_startproc
  31              		@ args = 0, pretend = 0, frame = 40
  32              		@ frame_needed = 0, uses_anonymous_args = 0
  33 0000 30B5     		push	{r4, r5, lr}
  34              	.LCFI0:
  35              		.cfi_def_cfa_offset 12
  36              		.cfi_offset 4, -12
  37              		.cfi_offset 5, -8
  38              		.cfi_offset 14, -4
  39 0002 8BB0     		sub	sp, sp, #44
  40              	.LCFI1:
  41              		.cfi_def_cfa_offset 56
  33:MyHardWare/Src/pwm.c ****     GPIO_InitTypeDef GPIO_InitStructure;
  42              		.loc 1 33 5 view .LVU1
  34:MyHardWare/Src/pwm.c ****     TIM_TimeBaseInitTypeDef TIM_TimeBaseStructure;
  43              		.loc 1 34 5 view .LVU2
  35:MyHardWare/Src/pwm.c ****     TIM_OCInitTypeDef TIM_OCInitStructure;
  44              		.loc 1 35 5 view .LVU3
  36:MyHardWare/Src/pwm.c **** 
  37:MyHardWare/Src/pwm.c ****     /* дҪҝиғҪж—¶й’ҹ - е…ій”®з¬¬дёҖжӯҘ */
  38:MyHardWare/Src/pwm.c ****     RCC_AHB1PeriphClockCmd(PWM_GPIO_CLK, ENABLE);  // дҪҝиғҪGPIOAж—¶й’ҹ (PA1)
  45              		.loc 1 38 5 view .LVU4
  46 0004 0121     		movs	r1, #1
  47 0006 0846     		mov	r0, r1
  48 0008 FFF7FEFF 		bl	RCC_AHB1PeriphClockCmd
  49              	.LVL0:
  39:MyHardWare/Src/pwm.c ****     RCC_APB1PeriphClockCmd(PWM_TIM_CLK, ENABLE);    // дҪҝиғҪTIM2ж—¶й’ҹ
  50              		.loc 1 39 5 view .LVU5
  51 000c 0121     		movs	r1, #1
  52 000e 0846     		mov	r0, r1
  53 0010 FFF7FEFF 		bl	RCC_APB1PeriphClockCmd
  54              	.LVL1:
  40:MyHardWare/Src/pwm.c **** 
  41:MyHardWare/Src/pwm.c ****     /* й…ҚзҪ®PWMеј•и„ҡдёәеӨҚз”ЁеҠҹиғҪ - PA1дҪңдёәTIM2_CH2иҫ“еҮә */
  42:MyHardWare/Src/pwm.c ****     GPIO_InitStructure.GPIO_Pin = PWM_GPIO_PIN;        // PA1еј•и„ҡ
  55              		.loc 1 42 5 view .LVU6
  56              		.loc 1 42 33 is_stmt 0 view .LVU7
  57 0014 0223     		movs	r3, #2
  58 0016 0893     		str	r3, [sp, #32]
  43:MyHardWare/Src/pwm.c ****     GPIO_InitStructure.GPIO_Mode = GPIO_Mode_AF;       // еӨҚз”ЁеҠҹиғҪжЁЎејҸ
  59              		.loc 1 43 5 is_stmt 1 view .LVU8
  60              		.loc 1 43 34 is_stmt 0 view .LVU9
  61 0018 8DF82430 		strb	r3, [sp, #36]
  44:MyHardWare/Src/pwm.c ****     GPIO_InitStructure.GPIO_Speed = GPIO_Speed_100MHz; // й«ҳйҖҹиҫ“еҮә
  62              		.loc 1 44 5 is_stmt 1 view .LVU10
  63              		.loc 1 44 35 is_stmt 0 view .LVU11
  64 001c 0322     		movs	r2, #3
  65 001e 8DF82520 		strb	r2, [sp, #37]
  45:MyHardWare/Src/pwm.c ****     GPIO_InitStructure.GPIO_OType = GPIO_OType_PP;     // жҺЁжҢҪиҫ“еҮә
  66              		.loc 1 45 5 is_stmt 1 view .LVU12
  67              		.loc 1 45 35 is_stmt 0 view .LVU13
  68 0022 0024     		movs	r4, #0
  69 0024 8DF82640 		strb	r4, [sp, #38]
  46:MyHardWare/Src/pwm.c ****     GPIO_InitStructure.GPIO_PuPd = GPIO_PuPd_DOWN;     // дёӢжӢүз”өйҳ»пјҢй»ҳи®ӨдҪҺз”өе№і
ARM GAS  C:\Users\asus\AppData\Local\Temp\ccO5cRLN.s 			page 3


  70              		.loc 1 46 5 is_stmt 1 view .LVU14
  71              		.loc 1 46 34 is_stmt 0 view .LVU15
  72 0028 8DF82730 		strb	r3, [sp, #39]
  47:MyHardWare/Src/pwm.c ****     GPIO_Init(PWM_GPIO_PORT, &GPIO_InitStructure);
  73              		.loc 1 47 5 is_stmt 1 view .LVU16
  74 002c 1C4D     		ldr	r5, .L3
  75 002e 08A9     		add	r1, sp, #32
  76 0030 2846     		mov	r0, r5
  77 0032 FFF7FEFF 		bl	GPIO_Init
  78              	.LVL2:
  48:MyHardWare/Src/pwm.c **** 
  49:MyHardWare/Src/pwm.c ****     /* й…ҚзҪ®GPIOеј•и„ҡеӨҚз”ЁеҠҹиғҪдёәTIM2 - е°ҶPA1иҝһжҺҘеҲ°TIM2 */
  50:MyHardWare/Src/pwm.c ****     GPIO_PinAFConfig(PWM_GPIO_PORT, GPIO_PinSource1, GPIO_AF_TIM2);
  79              		.loc 1 50 5 view .LVU17
  80 0036 0122     		movs	r2, #1
  81 0038 1146     		mov	r1, r2
  82 003a 2846     		mov	r0, r5
  83 003c FFF7FEFF 		bl	GPIO_PinAFConfig
  84              	.LVL3:
  51:MyHardWare/Src/pwm.c **** 
  52:MyHardWare/Src/pwm.c ****     /* е®ҡж—¶еҷЁеҹәжң¬й…ҚзҪ® - дә§з”ҹ23kHz PWMдҝЎеҸ· */
  53:MyHardWare/Src/pwm.c ****     TIM_TimeBaseStructure.TIM_Period = PWM_PERIOD - 1;        // иҮӘеҠЁйҮҚиЈ…иҪҪеҖј=42 (0-42е…ұ43дё
  85              		.loc 1 53 5 view .LVU18
  86              		.loc 1 53 38 is_stmt 0 view .LVU19
  87 0040 2A23     		movs	r3, #42
  88 0042 0693     		str	r3, [sp, #24]
  54:MyHardWare/Src/pwm.c ****     TIM_TimeBaseStructure.TIM_Prescaler = PWM_PRESCALER - 1;  // йў„еҲҶйў‘еҷЁ=82 (е®һйҷ…еҲҶйў‘83)
  89              		.loc 1 54 5 is_stmt 1 view .LVU20
  90              		.loc 1 54 41 is_stmt 0 view .LVU21
  91 0044 5223     		movs	r3, #82
  92 0046 ADF81430 		strh	r3, [sp, #20]	@ movhi
  55:MyHardWare/Src/pwm.c ****                                                                 // ж—¶й’ҹи®Ўз®—пјҡ84MHz/(83) = 1.01
  56:MyHardWare/Src/pwm.c ****     TIM_TimeBaseStructure.TIM_ClockDivision = 0;              // ж— ж—¶й’ҹеҲҶйў‘
  93              		.loc 1 56 5 is_stmt 1 view .LVU22
  94              		.loc 1 56 45 is_stmt 0 view .LVU23
  95 004a ADF81C40 		strh	r4, [sp, #28]	@ movhi
  57:MyHardWare/Src/pwm.c ****     TIM_TimeBaseStructure.TIM_CounterMode = TIM_CounterMode_Up; // еҗ‘дёҠи®Ўж•°жЁЎејҸ
  96              		.loc 1 57 5 is_stmt 1 view .LVU24
  97              		.loc 1 57 43 is_stmt 0 view .LVU25
  98 004e ADF81640 		strh	r4, [sp, #22]	@ movhi
  58:MyHardWare/Src/pwm.c ****     TIM_TimeBaseInit(PWM_TIM, &TIM_TimeBaseStructure);
  99              		.loc 1 58 5 is_stmt 1 view .LVU26
 100 0052 05A9     		add	r1, sp, #20
 101 0054 4FF08040 		mov	r0, #1073741824
 102 0058 FFF7FEFF 		bl	TIM_TimeBaseInit
 103              	.LVL4:
  59:MyHardWare/Src/pwm.c **** 
  60:MyHardWare/Src/pwm.c ****     /* PWMжЁЎејҸй…ҚзҪ® - й…ҚзҪ®TIM2_CH2дёәPWMиҫ“еҮә */
  61:MyHardWare/Src/pwm.c ****     TIM_OCInitStructure.TIM_OCMode = TIM_OCMode_PWM1;          // PWMжЁЎејҸ1пјҡCNT<CCRж—¶иҫ“еҮәй«ҳз
 104              		.loc 1 61 5 view .LVU27
 105              		.loc 1 61 36 is_stmt 0 view .LVU28
 106 005c 6023     		movs	r3, #96
 107 005e ADF80030 		strh	r3, [sp]	@ movhi
  62:MyHardWare/Src/pwm.c ****     TIM_OCInitStructure.TIM_OutputState = TIM_OutputState_Enable; // дҪҝиғҪиҫ“еҮә
 108              		.loc 1 62 5 is_stmt 1 view .LVU29
 109              		.loc 1 62 41 is_stmt 0 view .LVU30
 110 0062 0125     		movs	r5, #1
ARM GAS  C:\Users\asus\AppData\Local\Temp\ccO5cRLN.s 			page 4


 111 0064 ADF80250 		strh	r5, [sp, #2]	@ movhi
  63:MyHardWare/Src/pwm.c ****     TIM_OCInitStructure.TIM_Pulse = PWM_PULSE_DEFAULT;         // еҲқе§ӢеҚ з©әжҜ”пјҡ50% (21/43)
 112              		.loc 1 63 5 is_stmt 1 view .LVU31
 113              		.loc 1 63 35 is_stmt 0 view .LVU32
 114 0068 1523     		movs	r3, #21
 115 006a 0293     		str	r3, [sp, #8]
  64:MyHardWare/Src/pwm.c ****     TIM_OCInitStructure.TIM_OCPolarity = TIM_OCPolarity_High;  // иҫ“еҮәжһҒжҖ§пјҡй«ҳз”өе№іжңүж•Ҳ
 116              		.loc 1 64 5 is_stmt 1 view .LVU33
 117              		.loc 1 64 40 is_stmt 0 view .LVU34
 118 006c ADF80C40 		strh	r4, [sp, #12]	@ movhi
  65:MyHardWare/Src/pwm.c ****     TIM_OCInitStructure.TIM_OCIdleState = TIM_OCIdleState_Reset; // з©әй—ІзҠ¶жҖҒпјҡдҪҺз”өе№і
 119              		.loc 1 65 5 is_stmt 1 view .LVU35
 120              		.loc 1 65 41 is_stmt 0 view .LVU36
 121 0070 ADF81040 		strh	r4, [sp, #16]	@ movhi
  66:MyHardWare/Src/pwm.c **** 
  67:MyHardWare/Src/pwm.c ****     /* еә”з”ЁPWMй…ҚзҪ®еҲ°TIM2йҖҡйҒ“2 */
  68:MyHardWare/Src/pwm.c ****     TIM_OC2Init(PWM_TIM, &TIM_OCInitStructure);
 122              		.loc 1 68 5 is_stmt 1 view .LVU37
 123 0074 6946     		mov	r1, sp
 124 0076 4FF08040 		mov	r0, #1073741824
 125 007a FFF7FEFF 		bl	TIM_OC2Init
 126              	.LVL5:
  69:MyHardWare/Src/pwm.c ****     TIM_OC2PreloadConfig(PWM_TIM, TIM_OCPreload_Enable);  // дҪҝиғҪCCRйў„иЈ…иҪҪ
 127              		.loc 1 69 5 view .LVU38
 128 007e 0821     		movs	r1, #8
 129 0080 4FF08040 		mov	r0, #1073741824
 130 0084 FFF7FEFF 		bl	TIM_OC2PreloadConfig
 131              	.LVL6:
  70:MyHardWare/Src/pwm.c **** 
  71:MyHardWare/Src/pwm.c ****     /* дҪҝиғҪе®ҡж—¶еҷЁйў„иЈ…иҪҪеҜ„еӯҳеҷЁ - зЎ®дҝқPWMжӣҙж–°еҗҢжӯҘ */
  72:MyHardWare/Src/pwm.c ****     TIM_ARRPreloadConfig(PWM_TIM, ENABLE);
 132              		.loc 1 72 5 view .LVU39
 133 0088 2946     		mov	r1, r5
 134 008a 4FF08040 		mov	r0, #1073741824
 135 008e FFF7FEFF 		bl	TIM_ARRPreloadConfig
 136              	.LVL7:
  73:MyHardWare/Src/pwm.c **** 
  74:MyHardWare/Src/pwm.c ****     /* е…ҲдёҚеҗҜеҠЁе®ҡж—¶еҷЁ - зӯүеҫ…з”ЁжҲ·жҺ§еҲ¶еҗҜеҠЁ */
  75:MyHardWare/Src/pwm.c ****     TIM_Cmd(PWM_TIM, DISABLE);
 137              		.loc 1 75 5 view .LVU40
 138 0092 2146     		mov	r1, r4
 139 0094 4FF08040 		mov	r0, #1073741824
 140 0098 FFF7FEFF 		bl	TIM_Cmd
 141              	.LVL8:
  76:MyHardWare/Src/pwm.c **** }
 142              		.loc 1 76 1 is_stmt 0 view .LVU41
 143 009c 0BB0     		add	sp, sp, #44
 144              	.LCFI2:
 145              		.cfi_def_cfa_offset 12
 146              		@ sp needed
 147 009e 30BD     		pop	{r4, r5, pc}
 148              	.L4:
 149              		.align	2
 150              	.L3:
 151 00a0 00000240 		.word	1073872896
 152              		.cfi_endproc
 153              	.LFE123:
ARM GAS  C:\Users\asus\AppData\Local\Temp\ccO5cRLN.s 			page 5


 155              		.section	.text.PWM_Start,"ax",%progbits
 156              		.align	1
 157              		.global	PWM_Start
 158              		.syntax unified
 159              		.thumb
 160              		.thumb_func
 162              	PWM_Start:
 163              	.LFB124:
  77:MyHardWare/Src/pwm.c **** 
  78:MyHardWare/Src/pwm.c **** /**
  79:MyHardWare/Src/pwm.c ****  * @brief  еҗҜеҠЁPWMиҫ“еҮә
  80:MyHardWare/Src/pwm.c ****  * @param  None
  81:MyHardWare/Src/pwm.c ****  * @retval None
  82:MyHardWare/Src/pwm.c ****  *
  83:MyHardWare/Src/pwm.c ****  * @details еҗҜеҠЁжӯҘйӘӨпјҡ
  84:MyHardWare/Src/pwm.c ****  *          1. еҗҜеҠЁTIM2е®ҡж—¶еҷЁи®Ўж•°
  85:MyHardWare/Src/pwm.c ****  *          2. еҗҜеҠЁPWMиҫ“еҮәжҺ§еҲ¶дҝЎеҸ·
  86:MyHardWare/Src/pwm.c ****  *          3. PA1ејҖе§Ӣиҫ“еҮә23kHz PWMжіўеҪў
  87:MyHardWare/Src/pwm.c ****  */
  88:MyHardWare/Src/pwm.c **** void PWM_Start(void)
  89:MyHardWare/Src/pwm.c **** {
 164              		.loc 1 89 1 is_stmt 1 view -0
 165              		.cfi_startproc
 166              		@ args = 0, pretend = 0, frame = 0
 167              		@ frame_needed = 0, uses_anonymous_args = 0
 168 0000 08B5     		push	{r3, lr}
 169              	.LCFI3:
 170              		.cfi_def_cfa_offset 8
 171              		.cfi_offset 3, -8
 172              		.cfi_offset 14, -4
  90:MyHardWare/Src/pwm.c ****     TIM_Cmd(PWM_TIM, ENABLE);                 // еҗҜеҠЁTIM2е®ҡж—¶еҷЁи®Ўж•°еҷЁ
 173              		.loc 1 90 5 view .LVU43
 174 0002 0121     		movs	r1, #1
 175 0004 4FF08040 		mov	r0, #1073741824
 176 0008 FFF7FEFF 		bl	TIM_Cmd
 177              	.LVL9:
  91:MyHardWare/Src/pwm.c ****     TIM_CtrlPWMOutputs(PWM_TIM, ENABLE);      // еҗҜеҠЁPWMдё»иҫ“еҮәпјҢдҪҝиғҪPWMдҝЎеҸ·иҫ“еҮә
 178              		.loc 1 91 5 view .LVU44
 179 000c 0121     		movs	r1, #1
 180 000e 4FF08040 		mov	r0, #1073741824
 181 0012 FFF7FEFF 		bl	TIM_CtrlPWMOutputs
 182              	.LVL10:
  92:MyHardWare/Src/pwm.c **** }
 183              		.loc 1 92 1 is_stmt 0 view .LVU45
 184 0016 08BD     		pop	{r3, pc}
 185              		.cfi_endproc
 186              	.LFE124:
 188              		.section	.text.PWM_Stop,"ax",%progbits
 189              		.align	1
 190              		.global	PWM_Stop
 191              		.syntax unified
 192              		.thumb
 193              		.thumb_func
 195              	PWM_Stop:
 196              	.LFB125:
  93:MyHardWare/Src/pwm.c **** 
  94:MyHardWare/Src/pwm.c **** /**
ARM GAS  C:\Users\asus\AppData\Local\Temp\ccO5cRLN.s 			page 6


  95:MyHardWare/Src/pwm.c ****  * @brief  еҒңжӯўPWMиҫ“еҮә
  96:MyHardWare/Src/pwm.c ****  * @param  None
  97:MyHardWare/Src/pwm.c ****  * @retval None
  98:MyHardWare/Src/pwm.c ****  *
  99:MyHardWare/Src/pwm.c ****  * @details еҒңжӯўжӯҘйӘӨпјҡ
 100:MyHardWare/Src/pwm.c ****  *          1. зҰҒз”ЁPWMиҫ“еҮәжҺ§еҲ¶дҝЎеҸ·
 101:MyHardWare/Src/pwm.c ****  *          2. еҒңжӯўTIM2е®ҡж—¶еҷЁи®Ўж•°
 102:MyHardWare/Src/pwm.c ****  *          3. PA1иҫ“еҮәдҪҺз”өе№іпјҲеҸ–еҶідәҺGPIOй…ҚзҪ®пјү
 103:MyHardWare/Src/pwm.c ****  */
 104:MyHardWare/Src/pwm.c **** void PWM_Stop(void)
 105:MyHardWare/Src/pwm.c **** {
 197              		.loc 1 105 1 is_stmt 1 view -0
 198              		.cfi_startproc
 199              		@ args = 0, pretend = 0, frame = 0
 200              		@ frame_needed = 0, uses_anonymous_args = 0
 201 0000 08B5     		push	{r3, lr}
 202              	.LCFI4:
 203              		.cfi_def_cfa_offset 8
 204              		.cfi_offset 3, -8
 205              		.cfi_offset 14, -4
 106:MyHardWare/Src/pwm.c ****     TIM_CtrlPWMOutputs(PWM_TIM, DISABLE);     // зҰҒз”ЁPWMдё»иҫ“еҮәпјҢеҒңжӯўPWMдҝЎеҸ·
 206              		.loc 1 106 5 view .LVU47
 207 0002 0021     		movs	r1, #0
 208 0004 4FF08040 		mov	r0, #1073741824
 209 0008 FFF7FEFF 		bl	TIM_CtrlPWMOutputs
 210              	.LVL11:
 107:MyHardWare/Src/pwm.c ****     TIM_Cmd(PWM_TIM, DISABLE);                // еҒңжӯўTIM2е®ҡж—¶еҷЁи®Ўж•°еҷЁ
 211              		.loc 1 107 5 view .LVU48
 212 000c 0021     		movs	r1, #0
 213 000e 4FF08040 		mov	r0, #1073741824
 214 0012 FFF7FEFF 		bl	TIM_Cmd
 215              	.LVL12:
 108:MyHardWare/Src/pwm.c **** }
 216              		.loc 1 108 1 is_stmt 0 view .LVU49
 217 0016 08BD     		pop	{r3, pc}
 218              		.cfi_endproc
 219              	.LFE125:
 221              		.section	.text.PWM_Set_Duty,"ax",%progbits
 222              		.align	1
 223              		.global	PWM_Set_Duty
 224              		.syntax unified
 225              		.thumb
 226              		.thumb_func
 228              	PWM_Set_Duty:
 229              	.LVL13:
 230              	.LFB126:
 109:MyHardWare/Src/pwm.c **** 
 110:MyHardWare/Src/pwm.c **** /**
 111:MyHardWare/Src/pwm.c ****  * @brief  и®ҫзҪ®PWMеҚ з©әжҜ”
 112:MyHardWare/Src/pwm.c ****  * @param  duty: еҚ з©әжҜ”еҖј (0 - PWM_PERIOD)
 113:MyHardWare/Src/pwm.c ****  * @retval None
 114:MyHardWare/Src/pwm.c ****  *
 115:MyHardWare/Src/pwm.c ****  * @details еҚ з©әжҜ”и®Ўз®—пјҡ
 116:MyHardWare/Src/pwm.c ****  *          - еҚ з©әжҜ” = duty / PWM_PERIOD * 100%
 117:MyHardWare/Src/pwm.c ****  *          - дҫӢеҰӮпјҡduty=21, PWM_PERIOD=43 вҶ’ 21/43 вүҲ 48.8%
 118:MyHardWare/Src/pwm.c ****  *          - 50%еҚ з©әжҜ”пјҡduty = PWM_PERIOD / 2 = 21
 119:MyHardWare/Src/pwm.c ****  *
ARM GAS  C:\Users\asus\AppData\Local\Temp\ccO5cRLN.s 			page 7


 120:MyHardWare/Src/pwm.c ****  * @note   dutyеҖјдјҡиҮӘеҠЁйҷҗеҲ¶еңЁжңүж•ҲиҢғеӣҙеҶ…
 121:MyHardWare/Src/pwm.c ****  */
 122:MyHardWare/Src/pwm.c **** void PWM_Set_Duty(uint16_t duty)
 123:MyHardWare/Src/pwm.c **** {
 231              		.loc 1 123 1 is_stmt 1 view -0
 232              		.cfi_startproc
 233              		@ args = 0, pretend = 0, frame = 0
 234              		@ frame_needed = 0, uses_anonymous_args = 0
 235              		.loc 1 123 1 is_stmt 0 view .LVU51
 236 0000 08B5     		push	{r3, lr}
 237              	.LCFI5:
 238              		.cfi_def_cfa_offset 8
 239              		.cfi_offset 3, -8
 240              		.cfi_offset 14, -4
 241 0002 0146     		mov	r1, r0
 124:MyHardWare/Src/pwm.c ****     if (duty > PWM_PERIOD)                     // жЈҖжҹҘеҸӮж•°жңүж•ҲжҖ§
 242              		.loc 1 124 5 is_stmt 1 view .LVU52
 243              		.loc 1 124 8 is_stmt 0 view .LVU53
 244 0004 2B28     		cmp	r0, #43
 245 0006 00D9     		bls	.L10
 125:MyHardWare/Src/pwm.c ****     {
 126:MyHardWare/Src/pwm.c ****         duty = PWM_PERIOD;                     // йҷҗеҲ¶жңҖеӨ§еҖјдёәе‘ЁжңҹеҖј
 246              		.loc 1 126 14 view .LVU54
 247 0008 2B21     		movs	r1, #43
 248              	.L10:
 249              	.LVL14:
 127:MyHardWare/Src/pwm.c ****     }
 128:MyHardWare/Src/pwm.c ****     TIM_SetCompare2(PWM_TIM, duty);            // и®ҫзҪ®TIM2_CH2жҚ•иҺ·жҜ”иҫғеҜ„еӯҳеҷЁеҖј
 250              		.loc 1 128 5 is_stmt 1 view .LVU55
 251 000a 4FF08040 		mov	r0, #1073741824
 252 000e FFF7FEFF 		bl	TIM_SetCompare2
 253              	.LVL15:
 129:MyHardWare/Src/pwm.c ****                                               // CCRеҖјеҶіе®ҡй«ҳз”өе№іжҢҒз»ӯж—¶й—ҙ
 130:MyHardWare/Src/pwm.c **** }
 254              		.loc 1 130 1 is_stmt 0 view .LVU56
 255 0012 08BD     		pop	{r3, pc}
 256              		.cfi_endproc
 257              	.LFE126:
 259              		.section	.text.PWM_Set_Frequency,"ax",%progbits
 260              		.align	1
 261              		.global	PWM_Set_Frequency
 262              		.syntax unified
 263              		.thumb
 264              		.thumb_func
 266              	PWM_Set_Frequency:
 267              	.LVL16:
 268              	.LFB127:
 131:MyHardWare/Src/pwm.c **** 
 132:MyHardWare/Src/pwm.c **** /**
 133:MyHardWare/Src/pwm.c ****  * @brief  и®ҫзҪ®PWMйў‘зҺҮ
 134:MyHardWare/Src/pwm.c ****  * @param  frequency: йў‘зҺҮеҖј (Hz)
 135:MyHardWare/Src/pwm.c ****  * @retval None
 136:MyHardWare/Src/pwm.c ****  *
 137:MyHardWare/Src/pwm.c ****  * @details йў‘зҺҮи®Ўз®—пјҡ
 138:MyHardWare/Src/pwm.c ****  *          - и®Ўж•°йў‘зҺҮ = 84MHz / 83 вүҲ 1MHz
 139:MyHardWare/Src/pwm.c ****  *          - е‘ЁжңҹеҖј = 1MHz / frequency
 140:MyHardWare/Src/pwm.c ****  *          - ж–°йў‘зҺҮ = 1MHz / period
ARM GAS  C:\Users\asus\AppData\Local\Temp\ccO5cRLN.s 			page 8


 141:MyHardWare/Src/pwm.c ****  *
 142:MyHardWare/Src/pwm.c ****  * @example frequency=23000Hz вҶ’ period=1000000/23000=43
 143:MyHardWare/Src/pwm.c ****  *          е®һйҷ…йў‘зҺҮ = 1MHz/43 вүҲ 23.26kHz
 144:MyHardWare/Src/pwm.c ****  *
 145:MyHardWare/Src/pwm.c ****  * @note   йў‘зҺҮж”№еҸҳж—¶дјҡдҝқжҢҒеҪ“еүҚеҚ з©әжҜ”жҜ”дҫӢ
 146:MyHardWare/Src/pwm.c ****  */
 147:MyHardWare/Src/pwm.c **** void PWM_Set_Frequency(uint32_t frequency)
 148:MyHardWare/Src/pwm.c **** {
 269              		.loc 1 148 1 is_stmt 1 view -0
 270              		.cfi_startproc
 271              		@ args = 0, pretend = 0, frame = 0
 272              		@ frame_needed = 0, uses_anonymous_args = 0
 149:MyHardWare/Src/pwm.c ****     uint32_t period;
 273              		.loc 1 149 5 view .LVU58
 150:MyHardWare/Src/pwm.c **** 
 151:MyHardWare/Src/pwm.c ****     if (frequency == 0)                        // йў‘зҺҮдёҚиғҪдёә0
 274              		.loc 1 151 5 view .LVU59
 275              		.loc 1 151 8 is_stmt 0 view .LVU60
 276 0000 D0B1     		cbz	r0, .L18
 148:MyHardWare/Src/pwm.c ****     uint32_t period;
 277              		.loc 1 148 1 view .LVU61
 278 0002 10B5     		push	{r4, lr}
 279              	.LCFI6:
 280              		.cfi_def_cfa_offset 8
 281              		.cfi_offset 4, -8
 282              		.cfi_offset 14, -4
 152:MyHardWare/Src/pwm.c ****     {
 153:MyHardWare/Src/pwm.c ****         return;                                // зӣҙжҺҘиҝ”еӣһпјҢдҝқжҢҒеҪ“еүҚи®ҫзҪ®
 154:MyHardWare/Src/pwm.c ****     }
 155:MyHardWare/Src/pwm.c **** 
 156:MyHardWare/Src/pwm.c ****     period = 1000000 / frequency;               // и®Ўз®—ж–°зҡ„е‘ЁжңҹеҖјпјҲеҹәдәҺ1MHzи®Ўж•°пјү
 283              		.loc 1 156 5 is_stmt 1 view .LVU62
 284              		.loc 1 156 12 is_stmt 0 view .LVU63
 285 0004 0D4A     		ldr	r2, .L21
 286 0006 B2FBF0F4 		udiv	r4, r2, r0
 287              	.LVL17:
 157:MyHardWare/Src/pwm.c **** 
 158:MyHardWare/Src/pwm.c ****     if (period < 1)                            // йҷҗеҲ¶жңҖе°Ҹе‘ЁжңҹеҖј
 288              		.loc 1 158 5 is_stmt 1 view .LVU64
 289              		.loc 1 158 8 is_stmt 0 view .LVU65
 290 000a 9042     		cmp	r0, r2
 291 000c 00D9     		bls	.L15
 159:MyHardWare/Src/pwm.c ****     {
 160:MyHardWare/Src/pwm.c ****         period = 1;                            // жңҖе°Ҹе‘Ёжңҹ=1пјҢжңҖй«ҳйў‘зҺҮ=1MHz
 292              		.loc 1 160 16 view .LVU66
 293 000e 0124     		movs	r4, #1
 294              	.LVL18:
 295              	.L15:
 161:MyHardWare/Src/pwm.c ****     }
 162:MyHardWare/Src/pwm.c **** 
 163:MyHardWare/Src/pwm.c ****     TIM_SetAutoreload(PWM_TIM, period - 1);     // и®ҫзҪ®ж–°зҡ„иҮӘеҠЁйҮҚиЈ…иҪҪеҖј
 296              		.loc 1 163 5 is_stmt 1 view .LVU67
 297 0010 611E     		subs	r1, r4, #1
 298 0012 4FF08040 		mov	r0, #1073741824
 299              	.LVL19:
 300              		.loc 1 163 5 is_stmt 0 view .LVU68
 301 0016 FFF7FEFF 		bl	TIM_SetAutoreload
ARM GAS  C:\Users\asus\AppData\Local\Temp\ccO5cRLN.s 			page 9


 302              	.LVL20:
 164:MyHardWare/Src/pwm.c **** 
 165:MyHardWare/Src/pwm.c ****     /* дҝқжҢҒеҪ“еүҚеҚ з©әжҜ”жҜ”дҫӢ - е…ій”®зү№жҖ§ */
 166:MyHardWare/Src/pwm.c ****     uint32_t current_duty = TIM_GetCapture2(PWM_TIM);           // иҜ»еҸ–еҪ“еүҚCCRеҖј
 303              		.loc 1 166 5 is_stmt 1 view .LVU69
 304              		.loc 1 166 29 is_stmt 0 view .LVU70
 305 001a 4FF08040 		mov	r0, #1073741824
 306 001e FFF7FEFF 		bl	TIM_GetCapture2
 307              	.LVL21:
 167:MyHardWare/Src/pwm.c ****     uint32_t new_duty = (current_duty * period) / PWM_PERIOD;  // жҢүжҜ”дҫӢи®Ўз®—ж–°CCRеҖј
 308              		.loc 1 167 5 is_stmt 1 view .LVU71
 309              		.loc 1 167 39 is_stmt 0 view .LVU72
 310 0022 00FB04F1 		mul	r1, r0, r4
 311              		.loc 1 167 14 view .LVU73
 312 0026 064B     		ldr	r3, .L21+4
 313 0028 A3FB0131 		umull	r3, r1, r3, r1
 314              	.LVL22:
 168:MyHardWare/Src/pwm.c ****     TIM_SetCompare2(PWM_TIM, new_duty);                        // еә”з”Ёж–°еҚ з©әжҜ”
 315              		.loc 1 168 5 is_stmt 1 view .LVU74
 316 002c C908     		lsrs	r1, r1, #3
 317              	.LVL23:
 318              		.loc 1 168 5 is_stmt 0 view .LVU75
 319 002e 4FF08040 		mov	r0, #1073741824
 320              	.LVL24:
 321              		.loc 1 168 5 view .LVU76
 322 0032 FFF7FEFF 		bl	TIM_SetCompare2
 323              	.LVL25:
 169:MyHardWare/Src/pwm.c **** 
 170:MyHardWare/Src/pwm.c ****     /* жӣҙж–°е…ЁеұҖе‘ЁжңҹеҸҳйҮҸ - дҫӣеҗҺз»ӯеҚ з©әжҜ”и®ҫзҪ®дҪҝз”Ё */
 171:MyHardWare/Src/pwm.c ****     // жіЁж„ҸпјҡиҝҷйҮҢйңҖиҰҒжӣҙж–°PWM_PERIODе®Ҹе®ҡд№үпјҢз”ұдәҺе®Ҹе®ҡд№үдёҚиғҪдҝ®ж”№пјҢ
 172:MyHardWare/Src/pwm.c ****     //       е»әи®®з”ЁжҲ·и°ғз”ЁPWM_Set_Duty()йҮҚж–°и®ҫзҪ®зІҫзЎ®еҚ з©әжҜ”
 173:MyHardWare/Src/pwm.c **** }...
 324              		.loc 1 173 1 view .LVU77
 325 0036 10BD     		pop	{r4, pc}
 326              	.LVL26:
 327              	.L18:
 328              	.LCFI7:
 329              		.cfi_def_cfa_offset 0
 330              		.cfi_restore 4
 331              		.cfi_restore 14
 332              		.loc 1 173 1 view .LVU78
 333 0038 7047     		bx	lr
 334              	.L22:
 335 003a 00BF     		.align	2
 336              	.L21:
 337 003c 40420F00 		.word	1000000
 338 0040 83BEA02F 		.word	799063683
 339              		.cfi_endproc
 340              	.LFE127:
 342              		.text
 343              	.Letext0:
 344              		.file 2 "C:/Program Files (x86)/Arm GNU Toolchain arm-none-eabi/13.2 Rel1/arm-none-eabi/include/ma
 345              		.file 3 "C:/Program Files (x86)/Arm GNU Toolchain arm-none-eabi/13.2 Rel1/arm-none-eabi/include/sy
 346              		.file 4 "CMSIS/stm32f4xx.h"
 347              		.file 5 "Lib/StdPeriphs/inc/stm32f4xx_gpio.h"
 348              		.file 6 "Lib/StdPeriphs/inc/stm32f4xx_tim.h"
 349              		.file 7 "Lib/StdPeriphs/inc/stm32f4xx_rcc.h"
ARM GAS  C:\Users\asus\AppData\Local\Temp\ccO5cRLN.s 			page 10


ARM GAS  C:\Users\asus\AppData\Local\Temp\ccO5cRLN.s 			page 11

