ARM GAS  C:\Users\asus\AppData\Local\Temp\ccEdY3aN.s 			page 1


   1              		.cpu cortex-m4
   2              		.arch armv7e-m
   3              		.fpu fpv4-sp-d16
   4              		.eabi_attribute 27, 1
   5              		.eabi_attribute 28, 1
   6              		.eabi_attribute 20, 1
   7              		.eabi_attribute 21, 1
   8              		.eabi_attribute 23, 3
   9              		.eabi_attribute 24, 1
  10              		.eabi_attribute 25, 1
  11              		.eabi_attribute 26, 1
  12              		.eabi_attribute 30, 1
  13              		.eabi_attribute 34, 1
  14              		.eabi_attribute 18, 4
  15              		.file	"stm32f4xx_rcc.c"
  16              		.text
  17              	.Ltext0:
  18              		.cfi_sections	.debug_frame
  19              		.file 1 "Lib/StdPeriphs/src/stm32f4xx_rcc.c"
  20              		.section	.text.RCC_DeInit,"ax",%progbits
  21              		.align	1
  22              		.global	RCC_DeInit
  23              		.syntax unified
  24              		.thumb
  25              		.thumb_func
  27              	RCC_DeInit:
  28              	.LFB123:
   1:Lib/StdPeriphs/src/stm32f4xx_rcc.c **** /**
   2:Lib/StdPeriphs/src/stm32f4xx_rcc.c ****   ******************************************************************************
   3:Lib/StdPeriphs/src/stm32f4xx_rcc.c ****   * @file    stm32f4xx_rcc.c
   4:Lib/StdPeriphs/src/stm32f4xx_rcc.c ****   * @author  MCD Application Team
   5:Lib/StdPeriphs/src/stm32f4xx_rcc.c ****   * @version V1.8.1
   6:Lib/StdPeriphs/src/stm32f4xx_rcc.c ****   * @date    27-January-2022
   7:Lib/StdPeriphs/src/stm32f4xx_rcc.c ****   * @brief   This file provides firmware functions to manage the following 
   8:Lib/StdPeriphs/src/stm32f4xx_rcc.c ****   *          functionalities of the Reset and clock control (RCC) peripheral:
   9:Lib/StdPeriphs/src/stm32f4xx_rcc.c ****   *           + Internal/external clocks, PLL, CSS and MCO configuration
  10:Lib/StdPeriphs/src/stm32f4xx_rcc.c ****   *           + System, AHB and APB busses clocks configuration
  11:Lib/StdPeriphs/src/stm32f4xx_rcc.c ****   *           + Peripheral clocks configuration
  12:Lib/StdPeriphs/src/stm32f4xx_rcc.c ****   *           + Interrupts and flags management
  13:Lib/StdPeriphs/src/stm32f4xx_rcc.c ****   *
  14:Lib/StdPeriphs/src/stm32f4xx_rcc.c ****  @verbatim
  15:Lib/StdPeriphs/src/stm32f4xx_rcc.c ****  ===============================================================================
  16:Lib/StdPeriphs/src/stm32f4xx_rcc.c ****                       ##### RCC specific features #####
  17:Lib/StdPeriphs/src/stm32f4xx_rcc.c ****  ===============================================================================
  18:Lib/StdPeriphs/src/stm32f4xx_rcc.c ****     [..]  
  19:Lib/StdPeriphs/src/stm32f4xx_rcc.c ****       After reset the device is running from Internal High Speed oscillator 
  20:Lib/StdPeriphs/src/stm32f4xx_rcc.c ****       (HSI 16MHz) with Flash 0 wait state, Flash prefetch buffer, D-Cache 
  21:Lib/StdPeriphs/src/stm32f4xx_rcc.c ****       and I-Cache are disabled, and all peripherals are off except internal
  22:Lib/StdPeriphs/src/stm32f4xx_rcc.c ****       SRAM, Flash and JTAG.
  23:Lib/StdPeriphs/src/stm32f4xx_rcc.c ****       (+) There is no prescaler on High speed (AHB) and Low speed (APB) busses;
  24:Lib/StdPeriphs/src/stm32f4xx_rcc.c ****           all peripherals mapped on these busses are running at HSI speed.
  25:Lib/StdPeriphs/src/stm32f4xx_rcc.c ****       (+) The clock for all peripherals is switched off, except the SRAM and FLASH.
  26:Lib/StdPeriphs/src/stm32f4xx_rcc.c ****       (+) All GPIOs are in input floating state, except the JTAG pins which
  27:Lib/StdPeriphs/src/stm32f4xx_rcc.c ****           are assigned to be used for debug purpose.
  28:Lib/StdPeriphs/src/stm32f4xx_rcc.c ****     [..]          
  29:Lib/StdPeriphs/src/stm32f4xx_rcc.c ****       Once the device started from reset, the user application has to:
  30:Lib/StdPeriphs/src/stm32f4xx_rcc.c ****       (+) Configure the clock source to be used to drive the System clock
ARM GAS  C:\Users\asus\AppData\Local\Temp\ccEdY3aN.s 			page 2


  31:Lib/StdPeriphs/src/stm32f4xx_rcc.c ****           (if the application needs higher frequency/performance)
  32:Lib/StdPeriphs/src/stm32f4xx_rcc.c ****       (+) Configure the System clock frequency and Flash settings  
  33:Lib/StdPeriphs/src/stm32f4xx_rcc.c ****       (+) Configure the AHB and APB busses prescalers
  34:Lib/StdPeriphs/src/stm32f4xx_rcc.c ****       (+) Enable the clock for the peripheral(s) to be used
  35:Lib/StdPeriphs/src/stm32f4xx_rcc.c ****       (+) Configure the clock source(s) for peripherals which clocks are not
  36:Lib/StdPeriphs/src/stm32f4xx_rcc.c ****           derived from the System clock (I2S, RTC, ADC, USB OTG FS/SDIO/RNG)
  37:Lib/StdPeriphs/src/stm32f4xx_rcc.c ****  @endverbatim    
  38:Lib/StdPeriphs/src/stm32f4xx_rcc.c ****   ******************************************************************************
  39:Lib/StdPeriphs/src/stm32f4xx_rcc.c ****   * @attention
  40:Lib/StdPeriphs/src/stm32f4xx_rcc.c ****   *
  41:Lib/StdPeriphs/src/stm32f4xx_rcc.c ****   * Copyright (c) 2016 STMicroelectronics.
  42:Lib/StdPeriphs/src/stm32f4xx_rcc.c ****   * All rights reserved.
  43:Lib/StdPeriphs/src/stm32f4xx_rcc.c ****   *
  44:Lib/StdPeriphs/src/stm32f4xx_rcc.c ****   * This software is licensed under terms that can be found in the LICENSE file
  45:Lib/StdPeriphs/src/stm32f4xx_rcc.c ****   * in the root directory of this software component.
  46:Lib/StdPeriphs/src/stm32f4xx_rcc.c ****   * If no LICENSE file comes with this software, it is provided AS-IS.
  47:Lib/StdPeriphs/src/stm32f4xx_rcc.c ****   *
  48:Lib/StdPeriphs/src/stm32f4xx_rcc.c ****   ******************************************************************************
  49:Lib/StdPeriphs/src/stm32f4xx_rcc.c ****   */
  50:Lib/StdPeriphs/src/stm32f4xx_rcc.c **** 
  51:Lib/StdPeriphs/src/stm32f4xx_rcc.c **** /* Includes ------------------------------------------------------------------*/
  52:Lib/StdPeriphs/src/stm32f4xx_rcc.c **** #include "stm32f4xx_rcc.h"
  53:Lib/StdPeriphs/src/stm32f4xx_rcc.c **** 
  54:Lib/StdPeriphs/src/stm32f4xx_rcc.c **** /** @addtogroup STM32F4xx_StdPeriph_Driver
  55:Lib/StdPeriphs/src/stm32f4xx_rcc.c ****   * @{
  56:Lib/StdPeriphs/src/stm32f4xx_rcc.c ****   */
  57:Lib/StdPeriphs/src/stm32f4xx_rcc.c **** 
  58:Lib/StdPeriphs/src/stm32f4xx_rcc.c **** /** @defgroup RCC 
  59:Lib/StdPeriphs/src/stm32f4xx_rcc.c ****   * @brief RCC driver modules
  60:Lib/StdPeriphs/src/stm32f4xx_rcc.c ****   * @{
  61:Lib/StdPeriphs/src/stm32f4xx_rcc.c ****   */ 
  62:Lib/StdPeriphs/src/stm32f4xx_rcc.c **** 
  63:Lib/StdPeriphs/src/stm32f4xx_rcc.c **** /* Private typedef -----------------------------------------------------------*/
  64:Lib/StdPeriphs/src/stm32f4xx_rcc.c **** /* Private define ------------------------------------------------------------*/
  65:Lib/StdPeriphs/src/stm32f4xx_rcc.c **** /* ------------ RCC registers bit address in the alias region ----------- */
  66:Lib/StdPeriphs/src/stm32f4xx_rcc.c **** #define RCC_OFFSET                (RCC_BASE - PERIPH_BASE)
  67:Lib/StdPeriphs/src/stm32f4xx_rcc.c **** /* --- CR Register ---*/
  68:Lib/StdPeriphs/src/stm32f4xx_rcc.c **** /* Alias word address of HSION bit */
  69:Lib/StdPeriphs/src/stm32f4xx_rcc.c **** #define CR_OFFSET                 (RCC_OFFSET + 0x00)
  70:Lib/StdPeriphs/src/stm32f4xx_rcc.c **** #define HSION_BitNumber           0x00
  71:Lib/StdPeriphs/src/stm32f4xx_rcc.c **** #define CR_HSION_BB               (PERIPH_BB_BASE + (CR_OFFSET * 32) + (HSION_BitNumber * 4))
  72:Lib/StdPeriphs/src/stm32f4xx_rcc.c **** /* Alias word address of CSSON bit */
  73:Lib/StdPeriphs/src/stm32f4xx_rcc.c **** #define CSSON_BitNumber           0x13
  74:Lib/StdPeriphs/src/stm32f4xx_rcc.c **** #define CR_CSSON_BB               (PERIPH_BB_BASE + (CR_OFFSET * 32) + (CSSON_BitNumber * 4))
  75:Lib/StdPeriphs/src/stm32f4xx_rcc.c **** /* Alias word address of PLLON bit */
  76:Lib/StdPeriphs/src/stm32f4xx_rcc.c **** #define PLLON_BitNumber           0x18
  77:Lib/StdPeriphs/src/stm32f4xx_rcc.c **** #define CR_PLLON_BB               (PERIPH_BB_BASE + (CR_OFFSET * 32) + (PLLON_BitNumber * 4))
  78:Lib/StdPeriphs/src/stm32f4xx_rcc.c **** /* Alias word address of PLLI2SON bit */
  79:Lib/StdPeriphs/src/stm32f4xx_rcc.c **** #define PLLI2SON_BitNumber        0x1A
  80:Lib/StdPeriphs/src/stm32f4xx_rcc.c **** #define CR_PLLI2SON_BB            (PERIPH_BB_BASE + (CR_OFFSET * 32) + (PLLI2SON_BitNumber * 4))
  81:Lib/StdPeriphs/src/stm32f4xx_rcc.c **** 
  82:Lib/StdPeriphs/src/stm32f4xx_rcc.c **** /* Alias word address of PLLSAION bit */
  83:Lib/StdPeriphs/src/stm32f4xx_rcc.c **** #define PLLSAION_BitNumber        0x1C
  84:Lib/StdPeriphs/src/stm32f4xx_rcc.c **** #define CR_PLLSAION_BB            (PERIPH_BB_BASE + (CR_OFFSET * 32) + (PLLSAION_BitNumber * 4))
  85:Lib/StdPeriphs/src/stm32f4xx_rcc.c **** 
  86:Lib/StdPeriphs/src/stm32f4xx_rcc.c **** /* --- CFGR Register ---*/
  87:Lib/StdPeriphs/src/stm32f4xx_rcc.c **** /* Alias word address of I2SSRC bit */
ARM GAS  C:\Users\asus\AppData\Local\Temp\ccEdY3aN.s 			page 3


  88:Lib/StdPeriphs/src/stm32f4xx_rcc.c **** #define CFGR_OFFSET               (RCC_OFFSET + 0x08)
  89:Lib/StdPeriphs/src/stm32f4xx_rcc.c **** #define I2SSRC_BitNumber          0x17
  90:Lib/StdPeriphs/src/stm32f4xx_rcc.c **** #define CFGR_I2SSRC_BB            (PERIPH_BB_BASE + (CFGR_OFFSET * 32) + (I2SSRC_BitNumber * 4))
  91:Lib/StdPeriphs/src/stm32f4xx_rcc.c **** 
  92:Lib/StdPeriphs/src/stm32f4xx_rcc.c **** /* --- BDCR Register ---*/
  93:Lib/StdPeriphs/src/stm32f4xx_rcc.c **** /* Alias word address of RTCEN bit */
  94:Lib/StdPeriphs/src/stm32f4xx_rcc.c **** #define BDCR_OFFSET               (RCC_OFFSET + 0x70)
  95:Lib/StdPeriphs/src/stm32f4xx_rcc.c **** #define RTCEN_BitNumber           0x0F
  96:Lib/StdPeriphs/src/stm32f4xx_rcc.c **** #define BDCR_RTCEN_BB             (PERIPH_BB_BASE + (BDCR_OFFSET * 32) + (RTCEN_BitNumber * 4))
  97:Lib/StdPeriphs/src/stm32f4xx_rcc.c **** /* Alias word address of BDRST bit */
  98:Lib/StdPeriphs/src/stm32f4xx_rcc.c **** #define BDRST_BitNumber           0x10
  99:Lib/StdPeriphs/src/stm32f4xx_rcc.c **** #define BDCR_BDRST_BB             (PERIPH_BB_BASE + (BDCR_OFFSET * 32) + (BDRST_BitNumber * 4))
 100:Lib/StdPeriphs/src/stm32f4xx_rcc.c **** 
 101:Lib/StdPeriphs/src/stm32f4xx_rcc.c **** /* --- CSR Register ---*/
 102:Lib/StdPeriphs/src/stm32f4xx_rcc.c **** /* Alias word address of LSION bit */
 103:Lib/StdPeriphs/src/stm32f4xx_rcc.c **** #define CSR_OFFSET                (RCC_OFFSET + 0x74)
 104:Lib/StdPeriphs/src/stm32f4xx_rcc.c **** #define LSION_BitNumber           0x00
 105:Lib/StdPeriphs/src/stm32f4xx_rcc.c **** #define CSR_LSION_BB              (PERIPH_BB_BASE + (CSR_OFFSET * 32) + (LSION_BitNumber * 4))
 106:Lib/StdPeriphs/src/stm32f4xx_rcc.c **** 
 107:Lib/StdPeriphs/src/stm32f4xx_rcc.c **** /* --- DCKCFGR Register ---*/
 108:Lib/StdPeriphs/src/stm32f4xx_rcc.c **** /* Alias word address of TIMPRE bit */
 109:Lib/StdPeriphs/src/stm32f4xx_rcc.c **** #define DCKCFGR_OFFSET            (RCC_OFFSET + 0x8C)
 110:Lib/StdPeriphs/src/stm32f4xx_rcc.c **** #define TIMPRE_BitNumber          0x18
 111:Lib/StdPeriphs/src/stm32f4xx_rcc.c **** #define DCKCFGR_TIMPRE_BB         (PERIPH_BB_BASE + (DCKCFGR_OFFSET * 32) + (TIMPRE_BitNumber * 4))
 112:Lib/StdPeriphs/src/stm32f4xx_rcc.c ****     
 113:Lib/StdPeriphs/src/stm32f4xx_rcc.c **** /* --- CFGR Register ---*/
 114:Lib/StdPeriphs/src/stm32f4xx_rcc.c **** #define RCC_CFGR_OFFSET            (RCC_OFFSET + 0x08)
 115:Lib/StdPeriphs/src/stm32f4xx_rcc.c ****  #if defined(STM32F410xx)
 116:Lib/StdPeriphs/src/stm32f4xx_rcc.c **** /* Alias word address of MCO1EN bit */
 117:Lib/StdPeriphs/src/stm32f4xx_rcc.c **** #define RCC_MCO1EN_BIT_NUMBER      0x8
 118:Lib/StdPeriphs/src/stm32f4xx_rcc.c **** #define RCC_CFGR_MCO1EN_BB         (PERIPH_BB_BASE + (RCC_CFGR_OFFSET * 32) + (RCC_MCO1EN_BIT_NUMBE
 119:Lib/StdPeriphs/src/stm32f4xx_rcc.c **** 
 120:Lib/StdPeriphs/src/stm32f4xx_rcc.c **** /* Alias word address of MCO2EN bit */
 121:Lib/StdPeriphs/src/stm32f4xx_rcc.c **** #define RCC_MCO2EN_BIT_NUMBER      0x9
 122:Lib/StdPeriphs/src/stm32f4xx_rcc.c **** #define RCC_CFGR_MCO2EN_BB         (PERIPH_BB_BASE + (RCC_CFGR_OFFSET * 32) + (RCC_MCO2EN_BIT_NUMBE
 123:Lib/StdPeriphs/src/stm32f4xx_rcc.c **** #endif /* STM32F410xx */
 124:Lib/StdPeriphs/src/stm32f4xx_rcc.c **** /* ---------------------- RCC registers bit mask ------------------------ */
 125:Lib/StdPeriphs/src/stm32f4xx_rcc.c **** /* CFGR register bit mask */
 126:Lib/StdPeriphs/src/stm32f4xx_rcc.c **** #define CFGR_MCO2_RESET_MASK      ((uint32_t)0x07FFFFFF)
 127:Lib/StdPeriphs/src/stm32f4xx_rcc.c **** #define CFGR_MCO1_RESET_MASK      ((uint32_t)0xF89FFFFF)
 128:Lib/StdPeriphs/src/stm32f4xx_rcc.c **** 
 129:Lib/StdPeriphs/src/stm32f4xx_rcc.c **** /* RCC Flag Mask */
 130:Lib/StdPeriphs/src/stm32f4xx_rcc.c **** #define FLAG_MASK                 ((uint8_t)0x1F)
 131:Lib/StdPeriphs/src/stm32f4xx_rcc.c **** 
 132:Lib/StdPeriphs/src/stm32f4xx_rcc.c **** /* CR register byte 3 (Bits[23:16]) base address */
 133:Lib/StdPeriphs/src/stm32f4xx_rcc.c **** #define CR_BYTE3_ADDRESS          ((uint32_t)0x40023802)
 134:Lib/StdPeriphs/src/stm32f4xx_rcc.c **** 
 135:Lib/StdPeriphs/src/stm32f4xx_rcc.c **** /* CIR register byte 2 (Bits[15:8]) base address */
 136:Lib/StdPeriphs/src/stm32f4xx_rcc.c **** #define CIR_BYTE2_ADDRESS         ((uint32_t)(RCC_BASE + 0x0C + 0x01))
 137:Lib/StdPeriphs/src/stm32f4xx_rcc.c **** 
 138:Lib/StdPeriphs/src/stm32f4xx_rcc.c **** /* CIR register byte 3 (Bits[23:16]) base address */
 139:Lib/StdPeriphs/src/stm32f4xx_rcc.c **** #define CIR_BYTE3_ADDRESS         ((uint32_t)(RCC_BASE + 0x0C + 0x02))
 140:Lib/StdPeriphs/src/stm32f4xx_rcc.c **** 
 141:Lib/StdPeriphs/src/stm32f4xx_rcc.c **** /* BDCR register base address */
 142:Lib/StdPeriphs/src/stm32f4xx_rcc.c **** #define BDCR_ADDRESS              (PERIPH_BASE + BDCR_OFFSET)
 143:Lib/StdPeriphs/src/stm32f4xx_rcc.c **** 
 144:Lib/StdPeriphs/src/stm32f4xx_rcc.c **** /* Private macro -------------------------------------------------------------*/
ARM GAS  C:\Users\asus\AppData\Local\Temp\ccEdY3aN.s 			page 4


 145:Lib/StdPeriphs/src/stm32f4xx_rcc.c **** /* Private variables ---------------------------------------------------------*/
 146:Lib/StdPeriphs/src/stm32f4xx_rcc.c **** static __I uint8_t APBAHBPrescTable[16] = {0, 0, 0, 0, 1, 2, 3, 4, 1, 2, 3, 4, 6, 7, 8, 9};
 147:Lib/StdPeriphs/src/stm32f4xx_rcc.c **** 
 148:Lib/StdPeriphs/src/stm32f4xx_rcc.c **** /* Private function prototypes -----------------------------------------------*/
 149:Lib/StdPeriphs/src/stm32f4xx_rcc.c **** /* Private functions ---------------------------------------------------------*/
 150:Lib/StdPeriphs/src/stm32f4xx_rcc.c **** 
 151:Lib/StdPeriphs/src/stm32f4xx_rcc.c **** /** @defgroup RCC_Private_Functions
 152:Lib/StdPeriphs/src/stm32f4xx_rcc.c ****   * @{
 153:Lib/StdPeriphs/src/stm32f4xx_rcc.c ****   */ 
 154:Lib/StdPeriphs/src/stm32f4xx_rcc.c **** 
 155:Lib/StdPeriphs/src/stm32f4xx_rcc.c **** /** @defgroup RCC_Group1 Internal and external clocks, PLL, CSS and MCO configuration functions
 156:Lib/StdPeriphs/src/stm32f4xx_rcc.c ****  *  @brief   Internal and external clocks, PLL, CSS and MCO configuration functions 
 157:Lib/StdPeriphs/src/stm32f4xx_rcc.c ****  *
 158:Lib/StdPeriphs/src/stm32f4xx_rcc.c **** @verbatim   
 159:Lib/StdPeriphs/src/stm32f4xx_rcc.c ****  ===================================================================================
 160:Lib/StdPeriphs/src/stm32f4xx_rcc.c ****  ##### Internal and  external clocks, PLL, CSS and MCO configuration functions #####
 161:Lib/StdPeriphs/src/stm32f4xx_rcc.c ****  ===================================================================================
 162:Lib/StdPeriphs/src/stm32f4xx_rcc.c ****     [..]
 163:Lib/StdPeriphs/src/stm32f4xx_rcc.c ****       This section provide functions allowing to configure the internal/external clocks,
 164:Lib/StdPeriphs/src/stm32f4xx_rcc.c ****       PLLs, CSS and MCO pins.
 165:Lib/StdPeriphs/src/stm32f4xx_rcc.c ****   
 166:Lib/StdPeriphs/src/stm32f4xx_rcc.c ****       (#) HSI (high-speed internal), 16 MHz factory-trimmed RC used directly or through
 167:Lib/StdPeriphs/src/stm32f4xx_rcc.c ****           the PLL as System clock source.
 168:Lib/StdPeriphs/src/stm32f4xx_rcc.c **** 
 169:Lib/StdPeriphs/src/stm32f4xx_rcc.c ****       (#) LSI (low-speed internal), 32 KHz low consumption RC used as IWDG and/or RTC
 170:Lib/StdPeriphs/src/stm32f4xx_rcc.c ****           clock source.
 171:Lib/StdPeriphs/src/stm32f4xx_rcc.c **** 
 172:Lib/StdPeriphs/src/stm32f4xx_rcc.c ****       (#) HSE (high-speed external), 4 to 26 MHz crystal oscillator used directly or
 173:Lib/StdPeriphs/src/stm32f4xx_rcc.c ****           through the PLL as System clock source. Can be used also as RTC clock source.
 174:Lib/StdPeriphs/src/stm32f4xx_rcc.c **** 
 175:Lib/StdPeriphs/src/stm32f4xx_rcc.c ****       (#) LSE (low-speed external), 32 KHz oscillator used as RTC clock source.   
 176:Lib/StdPeriphs/src/stm32f4xx_rcc.c **** 
 177:Lib/StdPeriphs/src/stm32f4xx_rcc.c ****       (#) PLL (clocked by HSI or HSE), featuring two different output clocks:
 178:Lib/StdPeriphs/src/stm32f4xx_rcc.c ****         (++) The first output is used to generate the high speed system clock (up to 168 MHz)
 179:Lib/StdPeriphs/src/stm32f4xx_rcc.c ****         (++) The second output is used to generate the clock for the USB OTG FS (48 MHz),
 180:Lib/StdPeriphs/src/stm32f4xx_rcc.c ****              the random analog generator (<=48 MHz) and the SDIO (<= 48 MHz).
 181:Lib/StdPeriphs/src/stm32f4xx_rcc.c **** 
 182:Lib/StdPeriphs/src/stm32f4xx_rcc.c ****       (#) PLLI2S (clocked by HSI or HSE), used to generate an accurate clock to achieve 
 183:Lib/StdPeriphs/src/stm32f4xx_rcc.c ****           high-quality audio performance on the I2S interface or SAI interface in case 
 184:Lib/StdPeriphs/src/stm32f4xx_rcc.c ****           of STM32F429x/439x devices.
 185:Lib/StdPeriphs/src/stm32f4xx_rcc.c ****      
 186:Lib/StdPeriphs/src/stm32f4xx_rcc.c ****       (#) PLLSAI clocked by (HSI or HSE), used to generate an accurate clock to SAI 
 187:Lib/StdPeriphs/src/stm32f4xx_rcc.c ****           interface and LCD TFT controller available only for STM32F42xxx/43xxx/446xx/469xx/479xx d
 188:Lib/StdPeriphs/src/stm32f4xx_rcc.c ****   
 189:Lib/StdPeriphs/src/stm32f4xx_rcc.c ****       (#) CSS (Clock security system), once enable and if a HSE clock failure occurs 
 190:Lib/StdPeriphs/src/stm32f4xx_rcc.c ****          (HSE used directly or through PLL as System clock source), the System clock
 191:Lib/StdPeriphs/src/stm32f4xx_rcc.c ****          is automatically switched to HSI and an interrupt is generated if enabled. 
 192:Lib/StdPeriphs/src/stm32f4xx_rcc.c ****          The interrupt is linked to the Cortex-M4 NMI (Non-Maskable Interrupt) 
 193:Lib/StdPeriphs/src/stm32f4xx_rcc.c ****          exception vector.   
 194:Lib/StdPeriphs/src/stm32f4xx_rcc.c **** 
 195:Lib/StdPeriphs/src/stm32f4xx_rcc.c ****       (#) MCO1 (microcontroller clock output), used to output HSI, LSE, HSE or PLL
 196:Lib/StdPeriphs/src/stm32f4xx_rcc.c ****           clock (through a configurable prescaler) on PA8 pin.
 197:Lib/StdPeriphs/src/stm32f4xx_rcc.c **** 
 198:Lib/StdPeriphs/src/stm32f4xx_rcc.c ****       (#) MCO2 (microcontroller clock output), used to output HSE, PLL, SYSCLK or PLLI2S
 199:Lib/StdPeriphs/src/stm32f4xx_rcc.c ****           clock (through a configurable prescaler) on PC9 pin.
 200:Lib/StdPeriphs/src/stm32f4xx_rcc.c ****  @endverbatim
 201:Lib/StdPeriphs/src/stm32f4xx_rcc.c ****   * @{
ARM GAS  C:\Users\asus\AppData\Local\Temp\ccEdY3aN.s 			page 5


 202:Lib/StdPeriphs/src/stm32f4xx_rcc.c ****   */
 203:Lib/StdPeriphs/src/stm32f4xx_rcc.c **** 
 204:Lib/StdPeriphs/src/stm32f4xx_rcc.c **** /**
 205:Lib/StdPeriphs/src/stm32f4xx_rcc.c ****   * @brief  Resets the RCC clock configuration to the default reset state.
 206:Lib/StdPeriphs/src/stm32f4xx_rcc.c ****   * @note   The default reset state of the clock configuration is given below:
 207:Lib/StdPeriphs/src/stm32f4xx_rcc.c ****   *            - HSI ON and used as system clock source
 208:Lib/StdPeriphs/src/stm32f4xx_rcc.c ****   *            - HSE, PLL and PLLI2S OFF
 209:Lib/StdPeriphs/src/stm32f4xx_rcc.c ****   *            - AHB, APB1 and APB2 prescaler set to 1.
 210:Lib/StdPeriphs/src/stm32f4xx_rcc.c ****   *            - CSS, MCO1 and MCO2 OFF
 211:Lib/StdPeriphs/src/stm32f4xx_rcc.c ****   *            - All interrupts disabled
 212:Lib/StdPeriphs/src/stm32f4xx_rcc.c ****   * @note   This function doesn't modify the configuration of the
 213:Lib/StdPeriphs/src/stm32f4xx_rcc.c ****   *            - Peripheral clocks  
 214:Lib/StdPeriphs/src/stm32f4xx_rcc.c ****   *            - LSI, LSE and RTC clocks 
 215:Lib/StdPeriphs/src/stm32f4xx_rcc.c ****   * @param  None
 216:Lib/StdPeriphs/src/stm32f4xx_rcc.c ****   * @retval None
 217:Lib/StdPeriphs/src/stm32f4xx_rcc.c ****   */
 218:Lib/StdPeriphs/src/stm32f4xx_rcc.c **** void RCC_DeInit(void)
 219:Lib/StdPeriphs/src/stm32f4xx_rcc.c **** {
  29              		.loc 1 219 1 view -0
  30              		.cfi_startproc
  31              		@ args = 0, pretend = 0, frame = 0
  32              		@ frame_needed = 0, uses_anonymous_args = 0
  33              		@ link register save eliminated.
 220:Lib/StdPeriphs/src/stm32f4xx_rcc.c ****   /* Set HSION bit */
 221:Lib/StdPeriphs/src/stm32f4xx_rcc.c ****   RCC->CR |= (uint32_t)0x00000001;
  34              		.loc 1 221 3 view .LVU1
  35              		.loc 1 221 6 is_stmt 0 view .LVU2
  36 0000 0E4B     		ldr	r3, .L2
  37 0002 1A68     		ldr	r2, [r3]
  38              		.loc 1 221 11 view .LVU3
  39 0004 42F00102 		orr	r2, r2, #1
  40 0008 1A60     		str	r2, [r3]
 222:Lib/StdPeriphs/src/stm32f4xx_rcc.c **** 
 223:Lib/StdPeriphs/src/stm32f4xx_rcc.c ****   /* Reset CFGR register */
 224:Lib/StdPeriphs/src/stm32f4xx_rcc.c ****   RCC->CFGR = 0x00000000;
  41              		.loc 1 224 3 is_stmt 1 view .LVU4
  42              		.loc 1 224 13 is_stmt 0 view .LVU5
  43 000a 0021     		movs	r1, #0
  44 000c 9960     		str	r1, [r3, #8]
 225:Lib/StdPeriphs/src/stm32f4xx_rcc.c **** 
 226:Lib/StdPeriphs/src/stm32f4xx_rcc.c ****   /* Reset HSEON, CSSON, PLLON, PLLI2S and PLLSAI(STM32F42xxx/43xxx/446xx/469xx/479xx devices) bits
 227:Lib/StdPeriphs/src/stm32f4xx_rcc.c ****   RCC->CR &= (uint32_t)0xEAF6FFFF;
  45              		.loc 1 227 3 is_stmt 1 view .LVU6
  46              		.loc 1 227 6 is_stmt 0 view .LVU7
  47 000e 1A68     		ldr	r2, [r3]
  48              		.loc 1 227 11 view .LVU8
  49 0010 22F0A852 		bic	r2, r2, #352321536
  50 0014 22F41022 		bic	r2, r2, #589824
  51 0018 1A60     		str	r2, [r3]
 228:Lib/StdPeriphs/src/stm32f4xx_rcc.c ****   
 229:Lib/StdPeriphs/src/stm32f4xx_rcc.c ****   /* Reset PLLCFGR register */
 230:Lib/StdPeriphs/src/stm32f4xx_rcc.c ****   RCC->PLLCFGR = 0x24003010;
  52              		.loc 1 230 3 is_stmt 1 view .LVU9
  53              		.loc 1 230 16 is_stmt 0 view .LVU10
  54 001a 094A     		ldr	r2, .L2+4
  55 001c 5A60     		str	r2, [r3, #4]
 231:Lib/StdPeriphs/src/stm32f4xx_rcc.c **** 
ARM GAS  C:\Users\asus\AppData\Local\Temp\ccEdY3aN.s 			page 6


 232:Lib/StdPeriphs/src/stm32f4xx_rcc.c **** #if defined(STM32F40_41xxx) || defined(STM32F427_437xx) || defined(STM32F429_439xx) || defined(STM3
 233:Lib/StdPeriphs/src/stm32f4xx_rcc.c ****   /* Reset PLLI2SCFGR register */
 234:Lib/StdPeriphs/src/stm32f4xx_rcc.c ****   RCC->PLLI2SCFGR = 0x20003000;
  56              		.loc 1 234 3 is_stmt 1 view .LVU11
  57              		.loc 1 234 19 is_stmt 0 view .LVU12
  58 001e 094A     		ldr	r2, .L2+8
  59 0020 C3F88420 		str	r2, [r3, #132]
 235:Lib/StdPeriphs/src/stm32f4xx_rcc.c **** #endif /* STM32F40_41xxx || STM32F427_437xx || STM32F429_439xx || STM32F401xx || STM32F411xE || STM
 236:Lib/StdPeriphs/src/stm32f4xx_rcc.c **** 
 237:Lib/StdPeriphs/src/stm32f4xx_rcc.c **** #if defined(STM32F40_41xxx) || defined(STM32F427_437xx) || defined(STM32F429_439xx) || defined(STM3
 238:Lib/StdPeriphs/src/stm32f4xx_rcc.c ****   /* Reset PLLSAICFGR register, only available for STM32F42xxx/43xxx/446xx/469xx/479xx devices */
 239:Lib/StdPeriphs/src/stm32f4xx_rcc.c ****   RCC->PLLSAICFGR = 0x24003000;
  60              		.loc 1 239 3 is_stmt 1 view .LVU13
  61              		.loc 1 239 19 is_stmt 0 view .LVU14
  62 0024 02F18062 		add	r2, r2, #67108864
  63 0028 C3F88820 		str	r2, [r3, #136]
 240:Lib/StdPeriphs/src/stm32f4xx_rcc.c **** #endif /* STM32F40_41xxx || STM32F427_437xx || STM32F429_439xx || STM32F446xx || STM32F469_479xx */
 241:Lib/StdPeriphs/src/stm32f4xx_rcc.c ****   
 242:Lib/StdPeriphs/src/stm32f4xx_rcc.c ****   /* Reset HSEBYP bit */
 243:Lib/StdPeriphs/src/stm32f4xx_rcc.c ****   RCC->CR &= (uint32_t)0xFFFBFFFF;
  64              		.loc 1 243 3 is_stmt 1 view .LVU15
  65              		.loc 1 243 6 is_stmt 0 view .LVU16
  66 002c 1A68     		ldr	r2, [r3]
  67              		.loc 1 243 11 view .LVU17
  68 002e 22F48022 		bic	r2, r2, #262144
  69 0032 1A60     		str	r2, [r3]
 244:Lib/StdPeriphs/src/stm32f4xx_rcc.c **** 
 245:Lib/StdPeriphs/src/stm32f4xx_rcc.c ****   /* Disable all interrupts */
 246:Lib/StdPeriphs/src/stm32f4xx_rcc.c ****   RCC->CIR = 0x00000000;
  70              		.loc 1 246 3 is_stmt 1 view .LVU18
  71              		.loc 1 246 12 is_stmt 0 view .LVU19
  72 0034 D960     		str	r1, [r3, #12]
 247:Lib/StdPeriphs/src/stm32f4xx_rcc.c **** 
 248:Lib/StdPeriphs/src/stm32f4xx_rcc.c ****   /* Disable Timers clock prescalers selection, only available for STM32F42/43xxx and STM32F413_423
 249:Lib/StdPeriphs/src/stm32f4xx_rcc.c ****   RCC->DCKCFGR = 0x00000000;
  73              		.loc 1 249 3 is_stmt 1 view .LVU20
  74              		.loc 1 249 16 is_stmt 0 view .LVU21
  75 0036 C3F88C10 		str	r1, [r3, #140]
 250:Lib/StdPeriphs/src/stm32f4xx_rcc.c ****   
 251:Lib/StdPeriphs/src/stm32f4xx_rcc.c **** #if defined(STM32F410xx) || defined(STM32F413_423xx)
 252:Lib/StdPeriphs/src/stm32f4xx_rcc.c ****   /* Disable LPTIM and FMPI2C clock prescalers selection, only available for STM32F410xx and STM32F
 253:Lib/StdPeriphs/src/stm32f4xx_rcc.c ****   RCC->DCKCFGR2 = 0x00000000;
 254:Lib/StdPeriphs/src/stm32f4xx_rcc.c **** #endif /* STM32F410xx || STM32F413_423xx */  
 255:Lib/StdPeriphs/src/stm32f4xx_rcc.c **** }
  76              		.loc 1 255 1 view .LVU22
  77 003a 7047     		bx	lr
  78              	.L3:
  79              		.align	2
  80              	.L2:
  81 003c 00380240 		.word	1073887232
  82 0040 10300024 		.word	603992080
  83 0044 00300020 		.word	536883200
  84              		.cfi_endproc
  85              	.LFE123:
  87              		.section	.text.RCC_HSEConfig,"ax",%progbits
  88              		.align	1
  89              		.global	RCC_HSEConfig
ARM GAS  C:\Users\asus\AppData\Local\Temp\ccEdY3aN.s 			page 7


  90              		.syntax unified
  91              		.thumb
  92              		.thumb_func
  94              	RCC_HSEConfig:
  95              	.LVL0:
  96              	.LFB124:
 256:Lib/StdPeriphs/src/stm32f4xx_rcc.c **** 
 257:Lib/StdPeriphs/src/stm32f4xx_rcc.c **** /**
 258:Lib/StdPeriphs/src/stm32f4xx_rcc.c ****   * @brief  Configures the External High Speed oscillator (HSE).
 259:Lib/StdPeriphs/src/stm32f4xx_rcc.c ****   * @note   After enabling the HSE (RCC_HSE_ON or RCC_HSE_Bypass), the application
 260:Lib/StdPeriphs/src/stm32f4xx_rcc.c ****   *         software should wait on HSERDY flag to be set indicating that HSE clock
 261:Lib/StdPeriphs/src/stm32f4xx_rcc.c ****   *         is stable and can be used to clock the PLL and/or system clock.
 262:Lib/StdPeriphs/src/stm32f4xx_rcc.c ****   * @note   HSE state can not be changed if it is used directly or through the
 263:Lib/StdPeriphs/src/stm32f4xx_rcc.c ****   *         PLL as system clock. In this case, you have to select another source
 264:Lib/StdPeriphs/src/stm32f4xx_rcc.c ****   *         of the system clock then change the HSE state (ex. disable it).
 265:Lib/StdPeriphs/src/stm32f4xx_rcc.c ****   * @note   The HSE is stopped by hardware when entering STOP and STANDBY modes.  
 266:Lib/StdPeriphs/src/stm32f4xx_rcc.c ****   * @note   This function reset the CSSON bit, so if the Clock security system(CSS)
 267:Lib/StdPeriphs/src/stm32f4xx_rcc.c ****   *         was previously enabled you have to enable it again after calling this
 268:Lib/StdPeriphs/src/stm32f4xx_rcc.c ****   *         function.    
 269:Lib/StdPeriphs/src/stm32f4xx_rcc.c ****   * @param  RCC_HSE: specifies the new state of the HSE.
 270:Lib/StdPeriphs/src/stm32f4xx_rcc.c ****   *          This parameter can be one of the following values:
 271:Lib/StdPeriphs/src/stm32f4xx_rcc.c ****   *            @arg RCC_HSE_OFF: turn OFF the HSE oscillator, HSERDY flag goes low after
 272:Lib/StdPeriphs/src/stm32f4xx_rcc.c ****   *                              6 HSE oscillator clock cycles.
 273:Lib/StdPeriphs/src/stm32f4xx_rcc.c ****   *            @arg RCC_HSE_ON: turn ON the HSE oscillator
 274:Lib/StdPeriphs/src/stm32f4xx_rcc.c ****   *            @arg RCC_HSE_Bypass: HSE oscillator bypassed with external clock
 275:Lib/StdPeriphs/src/stm32f4xx_rcc.c ****   * @retval None
 276:Lib/StdPeriphs/src/stm32f4xx_rcc.c ****   */
 277:Lib/StdPeriphs/src/stm32f4xx_rcc.c **** void RCC_HSEConfig(uint8_t RCC_HSE)
 278:Lib/StdPeriphs/src/stm32f4xx_rcc.c **** {
  97              		.loc 1 278 1 is_stmt 1 view -0
  98              		.cfi_startproc
  99              		@ args = 0, pretend = 0, frame = 0
 100              		@ frame_needed = 0, uses_anonymous_args = 0
 101              		@ link register save eliminated.
 279:Lib/StdPeriphs/src/stm32f4xx_rcc.c ****   /* Check the parameters */
 280:Lib/StdPeriphs/src/stm32f4xx_rcc.c ****   assert_param(IS_RCC_HSE(RCC_HSE));
 102              		.loc 1 280 3 view .LVU24
 281:Lib/StdPeriphs/src/stm32f4xx_rcc.c **** 
 282:Lib/StdPeriphs/src/stm32f4xx_rcc.c ****   /* Reset HSEON and HSEBYP bits before configuring the HSE ------------------*/
 283:Lib/StdPeriphs/src/stm32f4xx_rcc.c ****   *(__IO uint8_t *) CR_BYTE3_ADDRESS = RCC_HSE_OFF;
 103              		.loc 1 283 3 view .LVU25
 104              		.loc 1 283 38 is_stmt 0 view .LVU26
 105 0000 024B     		ldr	r3, .L5
 106 0002 0022     		movs	r2, #0
 107 0004 9A70     		strb	r2, [r3, #2]
 284:Lib/StdPeriphs/src/stm32f4xx_rcc.c **** 
 285:Lib/StdPeriphs/src/stm32f4xx_rcc.c ****   /* Set the new HSE configuration -------------------------------------------*/
 286:Lib/StdPeriphs/src/stm32f4xx_rcc.c ****   *(__IO uint8_t *) CR_BYTE3_ADDRESS = RCC_HSE;
 108              		.loc 1 286 3 is_stmt 1 view .LVU27
 109              		.loc 1 286 38 is_stmt 0 view .LVU28
 110 0006 9870     		strb	r0, [r3, #2]
 287:Lib/StdPeriphs/src/stm32f4xx_rcc.c **** }
 111              		.loc 1 287 1 view .LVU29
 112 0008 7047     		bx	lr
 113              	.L6:
 114 000a 00BF     		.align	2
 115              	.L5:
ARM GAS  C:\Users\asus\AppData\Local\Temp\ccEdY3aN.s 			page 8


 116 000c 00380240 		.word	1073887232
 117              		.cfi_endproc
 118              	.LFE124:
 120              		.section	.text.RCC_AdjustHSICalibrationValue,"ax",%progbits
 121              		.align	1
 122              		.global	RCC_AdjustHSICalibrationValue
 123              		.syntax unified
 124              		.thumb
 125              		.thumb_func
 127              	RCC_AdjustHSICalibrationValue:
 128              	.LVL1:
 129              	.LFB126:
 288:Lib/StdPeriphs/src/stm32f4xx_rcc.c **** 
 289:Lib/StdPeriphs/src/stm32f4xx_rcc.c **** /**
 290:Lib/StdPeriphs/src/stm32f4xx_rcc.c ****   * @brief  Waits for HSE start-up.
 291:Lib/StdPeriphs/src/stm32f4xx_rcc.c ****   * @note   This functions waits on HSERDY flag to be set and return SUCCESS if 
 292:Lib/StdPeriphs/src/stm32f4xx_rcc.c ****   *         this flag is set, otherwise returns ERROR if the timeout is reached 
 293:Lib/StdPeriphs/src/stm32f4xx_rcc.c ****   *         and this flag is not set. The timeout value is defined by the constant
 294:Lib/StdPeriphs/src/stm32f4xx_rcc.c ****   *         HSE_STARTUP_TIMEOUT in stm32f4xx.h file. You can tailor it depending
 295:Lib/StdPeriphs/src/stm32f4xx_rcc.c ****   *         on the HSE crystal used in your application. 
 296:Lib/StdPeriphs/src/stm32f4xx_rcc.c ****   * @param  None
 297:Lib/StdPeriphs/src/stm32f4xx_rcc.c ****   * @retval An ErrorStatus enumeration value:
 298:Lib/StdPeriphs/src/stm32f4xx_rcc.c ****   *          - SUCCESS: HSE oscillator is stable and ready to use
 299:Lib/StdPeriphs/src/stm32f4xx_rcc.c ****   *          - ERROR: HSE oscillator not yet ready
 300:Lib/StdPeriphs/src/stm32f4xx_rcc.c ****   */
 301:Lib/StdPeriphs/src/stm32f4xx_rcc.c **** ErrorStatus RCC_WaitForHSEStartUp(void)
 302:Lib/StdPeriphs/src/stm32f4xx_rcc.c **** {
 303:Lib/StdPeriphs/src/stm32f4xx_rcc.c ****   __IO uint32_t startupcounter = 0;
 304:Lib/StdPeriphs/src/stm32f4xx_rcc.c ****   ErrorStatus status = ERROR;
 305:Lib/StdPeriphs/src/stm32f4xx_rcc.c ****   FlagStatus hsestatus = RESET;
 306:Lib/StdPeriphs/src/stm32f4xx_rcc.c ****   /* Wait till HSE is ready and if Time out is reached exit */
 307:Lib/StdPeriphs/src/stm32f4xx_rcc.c ****   do
 308:Lib/StdPeriphs/src/stm32f4xx_rcc.c ****   {
 309:Lib/StdPeriphs/src/stm32f4xx_rcc.c ****     hsestatus = RCC_GetFlagStatus(RCC_FLAG_HSERDY);
 310:Lib/StdPeriphs/src/stm32f4xx_rcc.c ****     startupcounter++;
 311:Lib/StdPeriphs/src/stm32f4xx_rcc.c ****   } while((startupcounter != HSE_STARTUP_TIMEOUT) && (hsestatus == RESET));
 312:Lib/StdPeriphs/src/stm32f4xx_rcc.c **** 
 313:Lib/StdPeriphs/src/stm32f4xx_rcc.c ****   if (RCC_GetFlagStatus(RCC_FLAG_HSERDY) != RESET)
 314:Lib/StdPeriphs/src/stm32f4xx_rcc.c ****   {
 315:Lib/StdPeriphs/src/stm32f4xx_rcc.c ****     status = SUCCESS;
 316:Lib/StdPeriphs/src/stm32f4xx_rcc.c ****   }
 317:Lib/StdPeriphs/src/stm32f4xx_rcc.c ****   else
 318:Lib/StdPeriphs/src/stm32f4xx_rcc.c ****   {
 319:Lib/StdPeriphs/src/stm32f4xx_rcc.c ****     status = ERROR;
 320:Lib/StdPeriphs/src/stm32f4xx_rcc.c ****   }
 321:Lib/StdPeriphs/src/stm32f4xx_rcc.c ****   return (status);
 322:Lib/StdPeriphs/src/stm32f4xx_rcc.c **** }
 323:Lib/StdPeriphs/src/stm32f4xx_rcc.c **** 
 324:Lib/StdPeriphs/src/stm32f4xx_rcc.c **** /**
 325:Lib/StdPeriphs/src/stm32f4xx_rcc.c ****   * @brief  Adjusts the Internal High Speed oscillator (HSI) calibration value.
 326:Lib/StdPeriphs/src/stm32f4xx_rcc.c ****   * @note   The calibration is used to compensate for the variations in voltage
 327:Lib/StdPeriphs/src/stm32f4xx_rcc.c ****   *         and temperature that influence the frequency of the internal HSI RC.
 328:Lib/StdPeriphs/src/stm32f4xx_rcc.c ****   * @param  HSICalibrationValue: specifies the calibration trimming value.
 329:Lib/StdPeriphs/src/stm32f4xx_rcc.c ****   *         This parameter must be a number between 0 and 0x1F.
 330:Lib/StdPeriphs/src/stm32f4xx_rcc.c ****   * @retval None
 331:Lib/StdPeriphs/src/stm32f4xx_rcc.c ****   */
 332:Lib/StdPeriphs/src/stm32f4xx_rcc.c **** void RCC_AdjustHSICalibrationValue(uint8_t HSICalibrationValue)
ARM GAS  C:\Users\asus\AppData\Local\Temp\ccEdY3aN.s 			page 9


 333:Lib/StdPeriphs/src/stm32f4xx_rcc.c **** {
 130              		.loc 1 333 1 is_stmt 1 view -0
 131              		.cfi_startproc
 132              		@ args = 0, pretend = 0, frame = 0
 133              		@ frame_needed = 0, uses_anonymous_args = 0
 134              		@ link register save eliminated.
 334:Lib/StdPeriphs/src/stm32f4xx_rcc.c ****   uint32_t tmpreg = 0;
 135              		.loc 1 334 3 view .LVU31
 335:Lib/StdPeriphs/src/stm32f4xx_rcc.c ****   /* Check the parameters */
 336:Lib/StdPeriphs/src/stm32f4xx_rcc.c ****   assert_param(IS_RCC_CALIBRATION_VALUE(HSICalibrationValue));
 136              		.loc 1 336 3 view .LVU32
 337:Lib/StdPeriphs/src/stm32f4xx_rcc.c **** 
 338:Lib/StdPeriphs/src/stm32f4xx_rcc.c ****   tmpreg = RCC->CR;
 137              		.loc 1 338 3 view .LVU33
 138              		.loc 1 338 10 is_stmt 0 view .LVU34
 139 0000 034A     		ldr	r2, .L8
 140 0002 1368     		ldr	r3, [r2]
 141              	.LVL2:
 339:Lib/StdPeriphs/src/stm32f4xx_rcc.c **** 
 340:Lib/StdPeriphs/src/stm32f4xx_rcc.c ****   /* Clear HSITRIM[4:0] bits */
 341:Lib/StdPeriphs/src/stm32f4xx_rcc.c ****   tmpreg &= ~RCC_CR_HSITRIM;
 142              		.loc 1 341 3 is_stmt 1 view .LVU35
 143              		.loc 1 341 10 is_stmt 0 view .LVU36
 144 0004 23F0F803 		bic	r3, r3, #248
 145              	.LVL3:
 342:Lib/StdPeriphs/src/stm32f4xx_rcc.c **** 
 343:Lib/StdPeriphs/src/stm32f4xx_rcc.c ****   /* Set the HSITRIM[4:0] bits according to HSICalibrationValue value */
 344:Lib/StdPeriphs/src/stm32f4xx_rcc.c ****   tmpreg |= (uint32_t)HSICalibrationValue << 3;
 146              		.loc 1 344 3 is_stmt 1 view .LVU37
 147              		.loc 1 344 10 is_stmt 0 view .LVU38
 148 0008 43EAC003 		orr	r3, r3, r0, lsl #3
 149              	.LVL4:
 345:Lib/StdPeriphs/src/stm32f4xx_rcc.c **** 
 346:Lib/StdPeriphs/src/stm32f4xx_rcc.c ****   /* Store the new value */
 347:Lib/StdPeriphs/src/stm32f4xx_rcc.c ****   RCC->CR = tmpreg;
 150              		.loc 1 347 3 is_stmt 1 view .LVU39
 151              		.loc 1 347 11 is_stmt 0 view .LVU40
 152 000c 1360     		str	r3, [r2]
 348:Lib/StdPeriphs/src/stm32f4xx_rcc.c **** }
 153              		.loc 1 348 1 view .LVU41
 154 000e 7047     		bx	lr
 155              	.L9:
 156              		.align	2
 157              	.L8:
 158 0010 00380240 		.word	1073887232
 159              		.cfi_endproc
 160              	.LFE126:
 162              		.section	.text.RCC_HSICmd,"ax",%progbits
 163              		.align	1
 164              		.global	RCC_HSICmd
 165              		.syntax unified
 166              		.thumb
 167              		.thumb_func
 169              	RCC_HSICmd:
 170              	.LVL5:
 171              	.LFB127:
 349:Lib/StdPeriphs/src/stm32f4xx_rcc.c **** 
ARM GAS  C:\Users\asus\AppData\Local\Temp\ccEdY3aN.s 			page 10


 350:Lib/StdPeriphs/src/stm32f4xx_rcc.c **** /**
 351:Lib/StdPeriphs/src/stm32f4xx_rcc.c ****   * @brief  Enables or disables the Internal High Speed oscillator (HSI).
 352:Lib/StdPeriphs/src/stm32f4xx_rcc.c ****   * @note   The HSI is stopped by hardware when entering STOP and STANDBY modes.
 353:Lib/StdPeriphs/src/stm32f4xx_rcc.c ****   *         It is used (enabled by hardware) as system clock source after startup
 354:Lib/StdPeriphs/src/stm32f4xx_rcc.c ****   *         from Reset, wakeup from STOP and STANDBY mode, or in case of failure
 355:Lib/StdPeriphs/src/stm32f4xx_rcc.c ****   *         of the HSE used directly or indirectly as system clock (if the Clock
 356:Lib/StdPeriphs/src/stm32f4xx_rcc.c ****   *         Security System CSS is enabled).             
 357:Lib/StdPeriphs/src/stm32f4xx_rcc.c ****   * @note   HSI can not be stopped if it is used as system clock source. In this case,
 358:Lib/StdPeriphs/src/stm32f4xx_rcc.c ****   *         you have to select another source of the system clock then stop the HSI.  
 359:Lib/StdPeriphs/src/stm32f4xx_rcc.c ****   * @note   After enabling the HSI, the application software should wait on HSIRDY
 360:Lib/StdPeriphs/src/stm32f4xx_rcc.c ****   *         flag to be set indicating that HSI clock is stable and can be used as
 361:Lib/StdPeriphs/src/stm32f4xx_rcc.c ****   *         system clock source.  
 362:Lib/StdPeriphs/src/stm32f4xx_rcc.c ****   * @param  NewState: new state of the HSI.
 363:Lib/StdPeriphs/src/stm32f4xx_rcc.c ****   *          This parameter can be: ENABLE or DISABLE.
 364:Lib/StdPeriphs/src/stm32f4xx_rcc.c ****   * @note   When the HSI is stopped, HSIRDY flag goes low after 6 HSI oscillator
 365:Lib/StdPeriphs/src/stm32f4xx_rcc.c ****   *         clock cycles.  
 366:Lib/StdPeriphs/src/stm32f4xx_rcc.c ****   * @retval None
 367:Lib/StdPeriphs/src/stm32f4xx_rcc.c ****   */
 368:Lib/StdPeriphs/src/stm32f4xx_rcc.c **** void RCC_HSICmd(FunctionalState NewState)
 369:Lib/StdPeriphs/src/stm32f4xx_rcc.c **** {
 172              		.loc 1 369 1 is_stmt 1 view -0
 173              		.cfi_startproc
 174              		@ args = 0, pretend = 0, frame = 0
 175              		@ frame_needed = 0, uses_anonymous_args = 0
 176              		@ link register save eliminated.
 370:Lib/StdPeriphs/src/stm32f4xx_rcc.c ****   /* Check the parameters */
 371:Lib/StdPeriphs/src/stm32f4xx_rcc.c ****   assert_param(IS_FUNCTIONAL_STATE(NewState));
 177              		.loc 1 371 3 view .LVU43
 372:Lib/StdPeriphs/src/stm32f4xx_rcc.c **** 
 373:Lib/StdPeriphs/src/stm32f4xx_rcc.c ****   *(__IO uint32_t *) CR_HSION_BB = (uint32_t)NewState;
 178              		.loc 1 373 3 view .LVU44
 179              		.loc 1 373 34 is_stmt 0 view .LVU45
 180 0000 014B     		ldr	r3, .L11
 181 0002 1860     		str	r0, [r3]
 374:Lib/StdPeriphs/src/stm32f4xx_rcc.c **** }
 182              		.loc 1 374 1 view .LVU46
 183 0004 7047     		bx	lr
 184              	.L12:
 185 0006 00BF     		.align	2
 186              	.L11:
 187 0008 00004742 		.word	1111949312
 188              		.cfi_endproc
 189              	.LFE127:
 191              		.section	.text.RCC_LSEConfig,"ax",%progbits
 192              		.align	1
 193              		.global	RCC_LSEConfig
 194              		.syntax unified
 195              		.thumb
 196              		.thumb_func
 198              	RCC_LSEConfig:
 199              	.LVL6:
 200              	.LFB128:
 375:Lib/StdPeriphs/src/stm32f4xx_rcc.c **** 
 376:Lib/StdPeriphs/src/stm32f4xx_rcc.c **** /**
 377:Lib/StdPeriphs/src/stm32f4xx_rcc.c ****   * @brief  Configures the External Low Speed oscillator (LSE).
 378:Lib/StdPeriphs/src/stm32f4xx_rcc.c ****   * @note   As the LSE is in the Backup domain and write access is denied to
 379:Lib/StdPeriphs/src/stm32f4xx_rcc.c ****   *         this domain after reset, you have to enable write access using 
ARM GAS  C:\Users\asus\AppData\Local\Temp\ccEdY3aN.s 			page 11


 380:Lib/StdPeriphs/src/stm32f4xx_rcc.c ****   *         PWR_BackupAccessCmd(ENABLE) function before to configure the LSE
 381:Lib/StdPeriphs/src/stm32f4xx_rcc.c ****   *         (to be done once after reset).  
 382:Lib/StdPeriphs/src/stm32f4xx_rcc.c ****   * @note   After enabling the LSE (RCC_LSE_ON or RCC_LSE_Bypass), the application
 383:Lib/StdPeriphs/src/stm32f4xx_rcc.c ****   *         software should wait on LSERDY flag to be set indicating that LSE clock
 384:Lib/StdPeriphs/src/stm32f4xx_rcc.c ****   *         is stable and can be used to clock the RTC.
 385:Lib/StdPeriphs/src/stm32f4xx_rcc.c ****   * @param  RCC_LSE: specifies the new state of the LSE.
 386:Lib/StdPeriphs/src/stm32f4xx_rcc.c ****   *          This parameter can be one of the following values:
 387:Lib/StdPeriphs/src/stm32f4xx_rcc.c ****   *            @arg RCC_LSE_OFF: turn OFF the LSE oscillator, LSERDY flag goes low after
 388:Lib/StdPeriphs/src/stm32f4xx_rcc.c ****   *                              6 LSE oscillator clock cycles.
 389:Lib/StdPeriphs/src/stm32f4xx_rcc.c ****   *            @arg RCC_LSE_ON: turn ON the LSE oscillator
 390:Lib/StdPeriphs/src/stm32f4xx_rcc.c ****   *            @arg RCC_LSE_Bypass: LSE oscillator bypassed with external clock
 391:Lib/StdPeriphs/src/stm32f4xx_rcc.c ****   * @retval None
 392:Lib/StdPeriphs/src/stm32f4xx_rcc.c ****   */
 393:Lib/StdPeriphs/src/stm32f4xx_rcc.c **** void RCC_LSEConfig(uint8_t RCC_LSE)
 394:Lib/StdPeriphs/src/stm32f4xx_rcc.c **** {
 201              		.loc 1 394 1 is_stmt 1 view -0
 202              		.cfi_startproc
 203              		@ args = 0, pretend = 0, frame = 0
 204              		@ frame_needed = 0, uses_anonymous_args = 0
 205              		@ link register save eliminated.
 395:Lib/StdPeriphs/src/stm32f4xx_rcc.c ****   /* Check the parameters */
 396:Lib/StdPeriphs/src/stm32f4xx_rcc.c ****   assert_param(IS_RCC_LSE(RCC_LSE));
 206              		.loc 1 396 3 view .LVU48
 397:Lib/StdPeriphs/src/stm32f4xx_rcc.c **** 
 398:Lib/StdPeriphs/src/stm32f4xx_rcc.c ****   /* Reset LSEON and LSEBYP bits before configuring the LSE ------------------*/
 399:Lib/StdPeriphs/src/stm32f4xx_rcc.c ****   /* Reset LSEON bit */
 400:Lib/StdPeriphs/src/stm32f4xx_rcc.c ****   *(__IO uint8_t *) BDCR_ADDRESS = RCC_LSE_OFF;
 207              		.loc 1 400 3 view .LVU49
 208              		.loc 1 400 34 is_stmt 0 view .LVU50
 209 0000 0A4B     		ldr	r3, .L17
 210 0002 0022     		movs	r2, #0
 211 0004 83F87020 		strb	r2, [r3, #112]
 401:Lib/StdPeriphs/src/stm32f4xx_rcc.c **** 
 402:Lib/StdPeriphs/src/stm32f4xx_rcc.c ****   /* Reset LSEBYP bit */
 403:Lib/StdPeriphs/src/stm32f4xx_rcc.c ****   *(__IO uint8_t *) BDCR_ADDRESS = RCC_LSE_OFF;
 212              		.loc 1 403 3 is_stmt 1 view .LVU51
 213              		.loc 1 403 34 is_stmt 0 view .LVU52
 214 0008 83F87020 		strb	r2, [r3, #112]
 404:Lib/StdPeriphs/src/stm32f4xx_rcc.c **** 
 405:Lib/StdPeriphs/src/stm32f4xx_rcc.c ****   /* Configure LSE (RCC_LSE_OFF is already covered by the code section above) */
 406:Lib/StdPeriphs/src/stm32f4xx_rcc.c ****   switch (RCC_LSE)
 215              		.loc 1 406 3 is_stmt 1 view .LVU53
 216 000c 0128     		cmp	r0, #1
 217 000e 02D0     		beq	.L14
 218 0010 0428     		cmp	r0, #4
 219 0012 05D0     		beq	.L15
 220 0014 7047     		bx	lr
 221              	.L14:
 407:Lib/StdPeriphs/src/stm32f4xx_rcc.c ****   {
 408:Lib/StdPeriphs/src/stm32f4xx_rcc.c ****     case RCC_LSE_ON:
 409:Lib/StdPeriphs/src/stm32f4xx_rcc.c ****       /* Set LSEON bit */
 410:Lib/StdPeriphs/src/stm32f4xx_rcc.c ****       *(__IO uint8_t *) BDCR_ADDRESS = RCC_LSE_ON;
 222              		.loc 1 410 7 view .LVU54
 223              		.loc 1 410 38 is_stmt 0 view .LVU55
 224 0016 054B     		ldr	r3, .L17
 225 0018 0122     		movs	r2, #1
 226 001a 83F87020 		strb	r2, [r3, #112]
ARM GAS  C:\Users\asus\AppData\Local\Temp\ccEdY3aN.s 			page 12


 411:Lib/StdPeriphs/src/stm32f4xx_rcc.c ****       break;
 227              		.loc 1 411 7 is_stmt 1 view .LVU56
 228 001e 7047     		bx	lr
 229              	.L15:
 412:Lib/StdPeriphs/src/stm32f4xx_rcc.c ****     case RCC_LSE_Bypass:
 413:Lib/StdPeriphs/src/stm32f4xx_rcc.c ****       /* Set LSEBYP and LSEON bits */
 414:Lib/StdPeriphs/src/stm32f4xx_rcc.c ****       *(__IO uint8_t *) BDCR_ADDRESS = RCC_LSE_Bypass | RCC_LSE_ON;
 230              		.loc 1 414 7 view .LVU57
 231              		.loc 1 414 38 is_stmt 0 view .LVU58
 232 0020 024B     		ldr	r3, .L17
 233 0022 0522     		movs	r2, #5
 234 0024 83F87020 		strb	r2, [r3, #112]
 415:Lib/StdPeriphs/src/stm32f4xx_rcc.c ****       break;
 235              		.loc 1 415 7 is_stmt 1 view .LVU59
 416:Lib/StdPeriphs/src/stm32f4xx_rcc.c ****     default:
 417:Lib/StdPeriphs/src/stm32f4xx_rcc.c ****       break;
 418:Lib/StdPeriphs/src/stm32f4xx_rcc.c ****   }
 419:Lib/StdPeriphs/src/stm32f4xx_rcc.c **** }
 236              		.loc 1 419 1 is_stmt 0 view .LVU60
 237 0028 7047     		bx	lr
 238              	.L18:
 239 002a 00BF     		.align	2
 240              	.L17:
 241 002c 00380240 		.word	1073887232
 242              		.cfi_endproc
 243              	.LFE128:
 245              		.section	.text.RCC_LSICmd,"ax",%progbits
 246              		.align	1
 247              		.global	RCC_LSICmd
 248              		.syntax unified
 249              		.thumb
 250              		.thumb_func
 252              	RCC_LSICmd:
 253              	.LVL7:
 254              	.LFB129:
 420:Lib/StdPeriphs/src/stm32f4xx_rcc.c **** 
 421:Lib/StdPeriphs/src/stm32f4xx_rcc.c **** /**
 422:Lib/StdPeriphs/src/stm32f4xx_rcc.c ****   * @brief  Enables or disables the Internal Low Speed oscillator (LSI).
 423:Lib/StdPeriphs/src/stm32f4xx_rcc.c ****   * @note   After enabling the LSI, the application software should wait on 
 424:Lib/StdPeriphs/src/stm32f4xx_rcc.c ****   *         LSIRDY flag to be set indicating that LSI clock is stable and can
 425:Lib/StdPeriphs/src/stm32f4xx_rcc.c ****   *         be used to clock the IWDG and/or the RTC.
 426:Lib/StdPeriphs/src/stm32f4xx_rcc.c ****   * @note   LSI can not be disabled if the IWDG is running.  
 427:Lib/StdPeriphs/src/stm32f4xx_rcc.c ****   * @param  NewState: new state of the LSI.
 428:Lib/StdPeriphs/src/stm32f4xx_rcc.c ****   *          This parameter can be: ENABLE or DISABLE.
 429:Lib/StdPeriphs/src/stm32f4xx_rcc.c ****   * @note   When the LSI is stopped, LSIRDY flag goes low after 6 LSI oscillator
 430:Lib/StdPeriphs/src/stm32f4xx_rcc.c ****   *         clock cycles. 
 431:Lib/StdPeriphs/src/stm32f4xx_rcc.c ****   * @retval None
 432:Lib/StdPeriphs/src/stm32f4xx_rcc.c ****   */
 433:Lib/StdPeriphs/src/stm32f4xx_rcc.c **** void RCC_LSICmd(FunctionalState NewState)
 434:Lib/StdPeriphs/src/stm32f4xx_rcc.c **** {
 255              		.loc 1 434 1 is_stmt 1 view -0
 256              		.cfi_startproc
 257              		@ args = 0, pretend = 0, frame = 0
 258              		@ frame_needed = 0, uses_anonymous_args = 0
 259              		@ link register save eliminated.
 435:Lib/StdPeriphs/src/stm32f4xx_rcc.c ****   /* Check the parameters */
 436:Lib/StdPeriphs/src/stm32f4xx_rcc.c ****   assert_param(IS_FUNCTIONAL_STATE(NewState));
ARM GAS  C:\Users\asus\AppData\Local\Temp\ccEdY3aN.s 			page 13


 260              		.loc 1 436 3 view .LVU62
 437:Lib/StdPeriphs/src/stm32f4xx_rcc.c **** 
 438:Lib/StdPeriphs/src/stm32f4xx_rcc.c ****   *(__IO uint32_t *) CSR_LSION_BB = (uint32_t)NewState;
 261              		.loc 1 438 3 view .LVU63
 262              		.loc 1 438 35 is_stmt 0 view .LVU64
 263 0000 014B     		ldr	r3, .L20
 264 0002 C3F8800E 		str	r0, [r3, #3712]
 439:Lib/StdPeriphs/src/stm32f4xx_rcc.c **** }
 265              		.loc 1 439 1 view .LVU65
 266 0006 7047     		bx	lr
 267              	.L21:
 268              		.align	2
 269              	.L20:
 270 0008 00004742 		.word	1111949312
 271              		.cfi_endproc
 272              	.LFE129:
 274              		.section	.text.RCC_PLLConfig,"ax",%progbits
 275              		.align	1
 276              		.global	RCC_PLLConfig
 277              		.syntax unified
 278              		.thumb
 279              		.thumb_func
 281              	RCC_PLLConfig:
 282              	.LVL8:
 283              	.LFB130:
 440:Lib/StdPeriphs/src/stm32f4xx_rcc.c **** 
 441:Lib/StdPeriphs/src/stm32f4xx_rcc.c **** #if defined(STM32F410xx) || defined(STM32F412xG) || defined(STM32F413_423xx) || defined(STM32F446xx
 442:Lib/StdPeriphs/src/stm32f4xx_rcc.c **** /**
 443:Lib/StdPeriphs/src/stm32f4xx_rcc.c ****   * @brief  Configures the main PLL clock source, multiplication and division factors.
 444:Lib/StdPeriphs/src/stm32f4xx_rcc.c ****   * @note   This function must be used only when the main PLL is disabled.
 445:Lib/StdPeriphs/src/stm32f4xx_rcc.c ****   *  
 446:Lib/StdPeriphs/src/stm32f4xx_rcc.c ****   * @param  RCC_PLLSource: specifies the PLL entry clock source.
 447:Lib/StdPeriphs/src/stm32f4xx_rcc.c ****   *          This parameter can be one of the following values:
 448:Lib/StdPeriphs/src/stm32f4xx_rcc.c ****   *            @arg RCC_PLLSource_HSI: HSI oscillator clock selected as PLL clock entry
 449:Lib/StdPeriphs/src/stm32f4xx_rcc.c ****   *            @arg RCC_PLLSource_HSE: HSE oscillator clock selected as PLL clock entry
 450:Lib/StdPeriphs/src/stm32f4xx_rcc.c ****   * @note   This clock source (RCC_PLLSource) is common for the main PLL and PLLI2S.  
 451:Lib/StdPeriphs/src/stm32f4xx_rcc.c ****   *  
 452:Lib/StdPeriphs/src/stm32f4xx_rcc.c ****   * @param  PLLM: specifies the division factor for PLL VCO input clock
 453:Lib/StdPeriphs/src/stm32f4xx_rcc.c ****   *          This parameter must be a number between 0 and 63.
 454:Lib/StdPeriphs/src/stm32f4xx_rcc.c ****   * @note   You have to set the PLLM parameter correctly to ensure that the VCO input
 455:Lib/StdPeriphs/src/stm32f4xx_rcc.c ****   *         frequency ranges from 1 to 2 MHz. It is recommended to select a frequency
 456:Lib/StdPeriphs/src/stm32f4xx_rcc.c ****   *         of 2 MHz to limit PLL jitter.
 457:Lib/StdPeriphs/src/stm32f4xx_rcc.c ****   *  
 458:Lib/StdPeriphs/src/stm32f4xx_rcc.c ****   * @param  PLLN: specifies the multiplication factor for PLL VCO output clock
 459:Lib/StdPeriphs/src/stm32f4xx_rcc.c ****   *          This parameter must be a number between 50 and 432.
 460:Lib/StdPeriphs/src/stm32f4xx_rcc.c ****   * @note   You have to set the PLLN parameter correctly to ensure that the VCO
 461:Lib/StdPeriphs/src/stm32f4xx_rcc.c ****   *         output frequency is between 100 and 432 MHz.
 462:Lib/StdPeriphs/src/stm32f4xx_rcc.c ****   *   
 463:Lib/StdPeriphs/src/stm32f4xx_rcc.c ****   * @param  PLLP: specifies the division factor for main system clock (SYSCLK)
 464:Lib/StdPeriphs/src/stm32f4xx_rcc.c ****   *          This parameter must be a number in the range {2, 4, 6, or 8}.
 465:Lib/StdPeriphs/src/stm32f4xx_rcc.c ****   * @note   You have to set the PLLP parameter correctly to not exceed 168 MHz on
 466:Lib/StdPeriphs/src/stm32f4xx_rcc.c ****   *         the System clock frequency.
 467:Lib/StdPeriphs/src/stm32f4xx_rcc.c ****   *  
 468:Lib/StdPeriphs/src/stm32f4xx_rcc.c ****   * @param  PLLQ: specifies the division factor for OTG FS, SDIO and RNG clocks
 469:Lib/StdPeriphs/src/stm32f4xx_rcc.c ****   *          This parameter must be a number between 4 and 15.
 470:Lib/StdPeriphs/src/stm32f4xx_rcc.c ****   *
 471:Lib/StdPeriphs/src/stm32f4xx_rcc.c ****   * @param  PLLR: specifies the division factor for I2S, SAI, SYSTEM, SPDIF in STM32F446xx devices
ARM GAS  C:\Users\asus\AppData\Local\Temp\ccEdY3aN.s 			page 14


 472:Lib/StdPeriphs/src/stm32f4xx_rcc.c ****   *          This parameter must be a number between 2 and 7.
 473:Lib/StdPeriphs/src/stm32f4xx_rcc.c ****   *
 474:Lib/StdPeriphs/src/stm32f4xx_rcc.c ****   * @note   If the USB OTG FS is used in your application, you have to set the
 475:Lib/StdPeriphs/src/stm32f4xx_rcc.c ****   *         PLLQ parameter correctly to have 48 MHz clock for the USB. However,
 476:Lib/StdPeriphs/src/stm32f4xx_rcc.c ****   *         the SDIO and RNG need a frequency lower than or equal to 48 MHz to work
 477:Lib/StdPeriphs/src/stm32f4xx_rcc.c ****   *         correctly.
 478:Lib/StdPeriphs/src/stm32f4xx_rcc.c ****   *   
 479:Lib/StdPeriphs/src/stm32f4xx_rcc.c ****   * @retval None
 480:Lib/StdPeriphs/src/stm32f4xx_rcc.c ****   */
 481:Lib/StdPeriphs/src/stm32f4xx_rcc.c **** void RCC_PLLConfig(uint32_t RCC_PLLSource, uint32_t PLLM, uint32_t PLLN, uint32_t PLLP, uint32_t PL
 482:Lib/StdPeriphs/src/stm32f4xx_rcc.c **** {
 483:Lib/StdPeriphs/src/stm32f4xx_rcc.c ****   /* Check the parameters */
 484:Lib/StdPeriphs/src/stm32f4xx_rcc.c ****   assert_param(IS_RCC_PLL_SOURCE(RCC_PLLSource));
 485:Lib/StdPeriphs/src/stm32f4xx_rcc.c ****   assert_param(IS_RCC_PLLM_VALUE(PLLM));
 486:Lib/StdPeriphs/src/stm32f4xx_rcc.c ****   assert_param(IS_RCC_PLLN_VALUE(PLLN));
 487:Lib/StdPeriphs/src/stm32f4xx_rcc.c ****   assert_param(IS_RCC_PLLP_VALUE(PLLP));
 488:Lib/StdPeriphs/src/stm32f4xx_rcc.c ****   assert_param(IS_RCC_PLLQ_VALUE(PLLQ));
 489:Lib/StdPeriphs/src/stm32f4xx_rcc.c ****   assert_param(IS_RCC_PLLR_VALUE(PLLR));
 490:Lib/StdPeriphs/src/stm32f4xx_rcc.c ****   
 491:Lib/StdPeriphs/src/stm32f4xx_rcc.c ****   RCC->PLLCFGR = PLLM | (PLLN << 6) | (((PLLP >> 1) -1) << 16) | (RCC_PLLSource) |
 492:Lib/StdPeriphs/src/stm32f4xx_rcc.c ****                  (PLLQ << 24) | (PLLR << 28);
 493:Lib/StdPeriphs/src/stm32f4xx_rcc.c **** }
 494:Lib/StdPeriphs/src/stm32f4xx_rcc.c **** #endif /* STM32F410xx || STM32F412xG || STM32F413_423xx || STM32F446xx || STM32F469_479xx */
 495:Lib/StdPeriphs/src/stm32f4xx_rcc.c **** 
 496:Lib/StdPeriphs/src/stm32f4xx_rcc.c **** #if defined(STM32F40_41xxx) || defined(STM32F427_437xx) || defined(STM32F429_439xx) || defined(STM3
 497:Lib/StdPeriphs/src/stm32f4xx_rcc.c **** /**
 498:Lib/StdPeriphs/src/stm32f4xx_rcc.c ****   * @brief  Configures the main PLL clock source, multiplication and division factors.
 499:Lib/StdPeriphs/src/stm32f4xx_rcc.c ****   * @note   This function must be used only when the main PLL is disabled.
 500:Lib/StdPeriphs/src/stm32f4xx_rcc.c ****   *  
 501:Lib/StdPeriphs/src/stm32f4xx_rcc.c ****   * @param  RCC_PLLSource: specifies the PLL entry clock source.
 502:Lib/StdPeriphs/src/stm32f4xx_rcc.c ****   *          This parameter can be one of the following values:
 503:Lib/StdPeriphs/src/stm32f4xx_rcc.c ****   *            @arg RCC_PLLSource_HSI: HSI oscillator clock selected as PLL clock entry
 504:Lib/StdPeriphs/src/stm32f4xx_rcc.c ****   *            @arg RCC_PLLSource_HSE: HSE oscillator clock selected as PLL clock entry
 505:Lib/StdPeriphs/src/stm32f4xx_rcc.c ****   * @note   This clock source (RCC_PLLSource) is common for the main PLL and PLLI2S.  
 506:Lib/StdPeriphs/src/stm32f4xx_rcc.c ****   *  
 507:Lib/StdPeriphs/src/stm32f4xx_rcc.c ****   * @param  PLLM: specifies the division factor for PLL VCO input clock
 508:Lib/StdPeriphs/src/stm32f4xx_rcc.c ****   *          This parameter must be a number between 0 and 63.
 509:Lib/StdPeriphs/src/stm32f4xx_rcc.c ****   * @note   You have to set the PLLM parameter correctly to ensure that the VCO input
 510:Lib/StdPeriphs/src/stm32f4xx_rcc.c ****   *         frequency ranges from 1 to 2 MHz. It is recommended to select a frequency
 511:Lib/StdPeriphs/src/stm32f4xx_rcc.c ****   *         of 2 MHz to limit PLL jitter.
 512:Lib/StdPeriphs/src/stm32f4xx_rcc.c ****   *  
 513:Lib/StdPeriphs/src/stm32f4xx_rcc.c ****   * @param  PLLN: specifies the multiplication factor for PLL VCO output clock
 514:Lib/StdPeriphs/src/stm32f4xx_rcc.c ****   *          This parameter must be a number between 50 and 432.
 515:Lib/StdPeriphs/src/stm32f4xx_rcc.c ****   * @note   You have to set the PLLN parameter correctly to ensure that the VCO
 516:Lib/StdPeriphs/src/stm32f4xx_rcc.c ****   *         output frequency is between 100 and 432 MHz.
 517:Lib/StdPeriphs/src/stm32f4xx_rcc.c ****   *   
 518:Lib/StdPeriphs/src/stm32f4xx_rcc.c ****   * @param  PLLP: specifies the division factor for main system clock (SYSCLK)
 519:Lib/StdPeriphs/src/stm32f4xx_rcc.c ****   *          This parameter must be a number in the range {2, 4, 6, or 8}.
 520:Lib/StdPeriphs/src/stm32f4xx_rcc.c ****   * @note   You have to set the PLLP parameter correctly to not exceed 168 MHz on
 521:Lib/StdPeriphs/src/stm32f4xx_rcc.c ****   *         the System clock frequency.
 522:Lib/StdPeriphs/src/stm32f4xx_rcc.c ****   *  
 523:Lib/StdPeriphs/src/stm32f4xx_rcc.c ****   * @param  PLLQ: specifies the division factor for OTG FS, SDIO and RNG clocks
 524:Lib/StdPeriphs/src/stm32f4xx_rcc.c ****   *          This parameter must be a number between 4 and 15.
 525:Lib/StdPeriphs/src/stm32f4xx_rcc.c ****   * @note   If the USB OTG FS is used in your application, you have to set the
 526:Lib/StdPeriphs/src/stm32f4xx_rcc.c ****   *         PLLQ parameter correctly to have 48 MHz clock for the USB. However,
 527:Lib/StdPeriphs/src/stm32f4xx_rcc.c ****   *         the SDIO and RNG need a frequency lower than or equal to 48 MHz to work
 528:Lib/StdPeriphs/src/stm32f4xx_rcc.c ****   *         correctly.
ARM GAS  C:\Users\asus\AppData\Local\Temp\ccEdY3aN.s 			page 15


 529:Lib/StdPeriphs/src/stm32f4xx_rcc.c ****   *   
 530:Lib/StdPeriphs/src/stm32f4xx_rcc.c ****   * @retval None
 531:Lib/StdPeriphs/src/stm32f4xx_rcc.c ****   */
 532:Lib/StdPeriphs/src/stm32f4xx_rcc.c **** void RCC_PLLConfig(uint32_t RCC_PLLSource, uint32_t PLLM, uint32_t PLLN, uint32_t PLLP, uint32_t PL
 533:Lib/StdPeriphs/src/stm32f4xx_rcc.c **** {
 284              		.loc 1 533 1 is_stmt 1 view -0
 285              		.cfi_startproc
 286              		@ args = 4, pretend = 0, frame = 0
 287              		@ frame_needed = 0, uses_anonymous_args = 0
 288              		@ link register save eliminated.
 534:Lib/StdPeriphs/src/stm32f4xx_rcc.c ****   /* Check the parameters */
 535:Lib/StdPeriphs/src/stm32f4xx_rcc.c ****   assert_param(IS_RCC_PLL_SOURCE(RCC_PLLSource));
 289              		.loc 1 535 3 view .LVU67
 536:Lib/StdPeriphs/src/stm32f4xx_rcc.c ****   assert_param(IS_RCC_PLLM_VALUE(PLLM));
 290              		.loc 1 536 3 view .LVU68
 537:Lib/StdPeriphs/src/stm32f4xx_rcc.c ****   assert_param(IS_RCC_PLLN_VALUE(PLLN));
 291              		.loc 1 537 3 view .LVU69
 538:Lib/StdPeriphs/src/stm32f4xx_rcc.c ****   assert_param(IS_RCC_PLLP_VALUE(PLLP));
 292              		.loc 1 538 3 view .LVU70
 539:Lib/StdPeriphs/src/stm32f4xx_rcc.c ****   assert_param(IS_RCC_PLLQ_VALUE(PLLQ));
 293              		.loc 1 539 3 view .LVU71
 540:Lib/StdPeriphs/src/stm32f4xx_rcc.c **** 
 541:Lib/StdPeriphs/src/stm32f4xx_rcc.c ****   RCC->PLLCFGR = PLLM | (PLLN << 6) | (((PLLP >> 1) -1) << 16) | (RCC_PLLSource) |
 294              		.loc 1 541 3 view .LVU72
 295              		.loc 1 541 23 is_stmt 0 view .LVU73
 296 0000 41EA8211 		orr	r1, r1, r2, lsl #6
 297              	.LVL9:
 298              		.loc 1 541 47 view .LVU74
 299 0004 5B08     		lsrs	r3, r3, #1
 300              	.LVL10:
 301              		.loc 1 541 53 view .LVU75
 302 0006 013B     		subs	r3, r3, #1
 303              		.loc 1 541 37 view .LVU76
 304 0008 41EA0341 		orr	r1, r1, r3, lsl #16
 305              		.loc 1 541 64 view .LVU77
 306 000c 0143     		orrs	r1, r1, r0
 307              		.loc 1 541 82 view .LVU78
 308 000e 009B     		ldr	r3, [sp]
 309 0010 41EA0361 		orr	r1, r1, r3, lsl #24
 310              		.loc 1 541 16 view .LVU79
 311 0014 014B     		ldr	r3, .L23
 312 0016 5960     		str	r1, [r3, #4]
 313              	.LVL11:
 542:Lib/StdPeriphs/src/stm32f4xx_rcc.c ****                  (PLLQ << 24);
 543:Lib/StdPeriphs/src/stm32f4xx_rcc.c **** }
 314              		.loc 1 543 1 view .LVU80
 315 0018 7047     		bx	lr
 316              	.L24:
 317 001a 00BF     		.align	2
 318              	.L23:
 319 001c 00380240 		.word	1073887232
 320              		.cfi_endproc
 321              	.LFE130:
 323              		.section	.text.RCC_PLLCmd,"ax",%progbits
 324              		.align	1
 325              		.global	RCC_PLLCmd
 326              		.syntax unified
ARM GAS  C:\Users\asus\AppData\Local\Temp\ccEdY3aN.s 			page 16


 327              		.thumb
 328              		.thumb_func
 330              	RCC_PLLCmd:
 331              	.LVL12:
 332              	.LFB131:
 544:Lib/StdPeriphs/src/stm32f4xx_rcc.c **** #endif /* STM32F40_41xxx || STM32F427_437xx || STM32F429_439xx || STM32F401xx || STM32F411xE */
 545:Lib/StdPeriphs/src/stm32f4xx_rcc.c **** 
 546:Lib/StdPeriphs/src/stm32f4xx_rcc.c **** /**
 547:Lib/StdPeriphs/src/stm32f4xx_rcc.c ****   * @brief  Enables or disables the main PLL.
 548:Lib/StdPeriphs/src/stm32f4xx_rcc.c ****   * @note   After enabling the main PLL, the application software should wait on 
 549:Lib/StdPeriphs/src/stm32f4xx_rcc.c ****   *         PLLRDY flag to be set indicating that PLL clock is stable and can
 550:Lib/StdPeriphs/src/stm32f4xx_rcc.c ****   *         be used as system clock source.
 551:Lib/StdPeriphs/src/stm32f4xx_rcc.c ****   * @note   The main PLL can not be disabled if it is used as system clock source
 552:Lib/StdPeriphs/src/stm32f4xx_rcc.c ****   * @note   The main PLL is disabled by hardware when entering STOP and STANDBY modes.
 553:Lib/StdPeriphs/src/stm32f4xx_rcc.c ****   * @param  NewState: new state of the main PLL. This parameter can be: ENABLE or DISABLE.
 554:Lib/StdPeriphs/src/stm32f4xx_rcc.c ****   * @retval None
 555:Lib/StdPeriphs/src/stm32f4xx_rcc.c ****   */
 556:Lib/StdPeriphs/src/stm32f4xx_rcc.c **** void RCC_PLLCmd(FunctionalState NewState)
 557:Lib/StdPeriphs/src/stm32f4xx_rcc.c **** {
 333              		.loc 1 557 1 is_stmt 1 view -0
 334              		.cfi_startproc
 335              		@ args = 0, pretend = 0, frame = 0
 336              		@ frame_needed = 0, uses_anonymous_args = 0
 337              		@ link register save eliminated.
 558:Lib/StdPeriphs/src/stm32f4xx_rcc.c ****   /* Check the parameters */
 559:Lib/StdPeriphs/src/stm32f4xx_rcc.c ****   assert_param(IS_FUNCTIONAL_STATE(NewState));
 338              		.loc 1 559 3 view .LVU82
 560:Lib/StdPeriphs/src/stm32f4xx_rcc.c ****   *(__IO uint32_t *) CR_PLLON_BB = (uint32_t)NewState;
 339              		.loc 1 560 3 view .LVU83
 340              		.loc 1 560 34 is_stmt 0 view .LVU84
 341 0000 014B     		ldr	r3, .L26
 342 0002 1866     		str	r0, [r3, #96]
 561:Lib/StdPeriphs/src/stm32f4xx_rcc.c **** }
 343              		.loc 1 561 1 view .LVU85
 344 0004 7047     		bx	lr
 345              	.L27:
 346 0006 00BF     		.align	2
 347              	.L26:
 348 0008 00004742 		.word	1111949312
 349              		.cfi_endproc
 350              	.LFE131:
 352              		.section	.text.RCC_PLLI2SConfig,"ax",%progbits
 353              		.align	1
 354              		.global	RCC_PLLI2SConfig
 355              		.syntax unified
 356              		.thumb
 357              		.thumb_func
 359              	RCC_PLLI2SConfig:
 360              	.LVL13:
 361              	.LFB132:
 562:Lib/StdPeriphs/src/stm32f4xx_rcc.c **** 
 563:Lib/StdPeriphs/src/stm32f4xx_rcc.c **** #if defined(STM32F40_41xxx) || defined(STM32F401xx)
 564:Lib/StdPeriphs/src/stm32f4xx_rcc.c **** /**
 565:Lib/StdPeriphs/src/stm32f4xx_rcc.c ****   * @brief  Configures the PLLI2S clock multiplication and division factors.
 566:Lib/StdPeriphs/src/stm32f4xx_rcc.c ****   *  
 567:Lib/StdPeriphs/src/stm32f4xx_rcc.c ****   * @note   This function can be used only for STM32F405xx/407xx, STM32F415xx/417xx 
 568:Lib/StdPeriphs/src/stm32f4xx_rcc.c ****   *         or STM32F401xx devices. 
ARM GAS  C:\Users\asus\AppData\Local\Temp\ccEdY3aN.s 			page 17


 569:Lib/StdPeriphs/src/stm32f4xx_rcc.c ****   *    
 570:Lib/StdPeriphs/src/stm32f4xx_rcc.c ****   * @note   This function must be used only when the PLLI2S is disabled.
 571:Lib/StdPeriphs/src/stm32f4xx_rcc.c ****   * @note   PLLI2S clock source is common with the main PLL (configured in 
 572:Lib/StdPeriphs/src/stm32f4xx_rcc.c ****   *         RCC_PLLConfig function )  
 573:Lib/StdPeriphs/src/stm32f4xx_rcc.c ****   *             
 574:Lib/StdPeriphs/src/stm32f4xx_rcc.c ****   * @param  PLLI2SN: specifies the multiplication factor for PLLI2S VCO output clock
 575:Lib/StdPeriphs/src/stm32f4xx_rcc.c ****   *          This parameter must be a number between 50 and 432.
 576:Lib/StdPeriphs/src/stm32f4xx_rcc.c ****   * @note   You have to set the PLLI2SN parameter correctly to ensure that the VCO 
 577:Lib/StdPeriphs/src/stm32f4xx_rcc.c ****   *         output frequency is between 100 and 432 MHz.
 578:Lib/StdPeriphs/src/stm32f4xx_rcc.c ****   *    
 579:Lib/StdPeriphs/src/stm32f4xx_rcc.c ****   * @param  PLLI2SR: specifies the division factor for I2S clock
 580:Lib/StdPeriphs/src/stm32f4xx_rcc.c ****   *          This parameter must be a number between 2 and 7.
 581:Lib/StdPeriphs/src/stm32f4xx_rcc.c ****   * @note   You have to set the PLLI2SR parameter correctly to not exceed 192 MHz
 582:Lib/StdPeriphs/src/stm32f4xx_rcc.c ****   *         on the I2S clock frequency.
 583:Lib/StdPeriphs/src/stm32f4xx_rcc.c ****   *   
 584:Lib/StdPeriphs/src/stm32f4xx_rcc.c ****   * @retval None
 585:Lib/StdPeriphs/src/stm32f4xx_rcc.c ****   */
 586:Lib/StdPeriphs/src/stm32f4xx_rcc.c **** void RCC_PLLI2SConfig(uint32_t PLLI2SN, uint32_t PLLI2SR)
 587:Lib/StdPeriphs/src/stm32f4xx_rcc.c **** {
 362              		.loc 1 587 1 is_stmt 1 view -0
 363              		.cfi_startproc
 364              		@ args = 0, pretend = 0, frame = 0
 365              		@ frame_needed = 0, uses_anonymous_args = 0
 366              		@ link register save eliminated.
 588:Lib/StdPeriphs/src/stm32f4xx_rcc.c ****   /* Check the parameters */
 589:Lib/StdPeriphs/src/stm32f4xx_rcc.c ****   assert_param(IS_RCC_PLLI2SN_VALUE(PLLI2SN));
 367              		.loc 1 589 3 view .LVU87
 590:Lib/StdPeriphs/src/stm32f4xx_rcc.c ****   assert_param(IS_RCC_PLLI2SR_VALUE(PLLI2SR));
 368              		.loc 1 590 3 view .LVU88
 591:Lib/StdPeriphs/src/stm32f4xx_rcc.c **** 
 592:Lib/StdPeriphs/src/stm32f4xx_rcc.c ****   RCC->PLLI2SCFGR = (PLLI2SN << 6) | (PLLI2SR << 28);
 369              		.loc 1 592 3 view .LVU89
 370              		.loc 1 592 47 is_stmt 0 view .LVU90
 371 0000 0907     		lsls	r1, r1, #28
 372              	.LVL14:
 373              		.loc 1 592 36 view .LVU91
 374 0002 41EA8011 		orr	r1, r1, r0, lsl #6
 375              		.loc 1 592 19 view .LVU92
 376 0006 024B     		ldr	r3, .L29
 377 0008 C3F88410 		str	r1, [r3, #132]
 593:Lib/StdPeriphs/src/stm32f4xx_rcc.c **** }
 378              		.loc 1 593 1 view .LVU93
 379 000c 7047     		bx	lr
 380              	.L30:
 381 000e 00BF     		.align	2
 382              	.L29:
 383 0010 00380240 		.word	1073887232
 384              		.cfi_endproc
 385              	.LFE132:
 387              		.section	.text.RCC_PLLI2SCmd,"ax",%progbits
 388              		.align	1
 389              		.global	RCC_PLLI2SCmd
 390              		.syntax unified
 391              		.thumb
 392              		.thumb_func
 394              	RCC_PLLI2SCmd:
 395              	.LVL15:
ARM GAS  C:\Users\asus\AppData\Local\Temp\ccEdY3aN.s 			page 18


 396              	.LFB133:
 594:Lib/StdPeriphs/src/stm32f4xx_rcc.c **** #endif /* STM32F40_41xxx || STM32F401xx */
 595:Lib/StdPeriphs/src/stm32f4xx_rcc.c **** 
 596:Lib/StdPeriphs/src/stm32f4xx_rcc.c **** #if defined(STM32F411xE)
 597:Lib/StdPeriphs/src/stm32f4xx_rcc.c **** /**
 598:Lib/StdPeriphs/src/stm32f4xx_rcc.c ****   * @brief  Configures the PLLI2S clock multiplication and division factors.
 599:Lib/StdPeriphs/src/stm32f4xx_rcc.c ****   *  
 600:Lib/StdPeriphs/src/stm32f4xx_rcc.c ****   * @note   This function can be used only for STM32F411xE devices. 
 601:Lib/StdPeriphs/src/stm32f4xx_rcc.c ****   *    
 602:Lib/StdPeriphs/src/stm32f4xx_rcc.c ****   * @note   This function must be used only when the PLLI2S is disabled.
 603:Lib/StdPeriphs/src/stm32f4xx_rcc.c ****   * @note   PLLI2S clock source is common with the main PLL (configured in 
 604:Lib/StdPeriphs/src/stm32f4xx_rcc.c ****   *         RCC_PLLConfig function )  
 605:Lib/StdPeriphs/src/stm32f4xx_rcc.c ****   *
 606:Lib/StdPeriphs/src/stm32f4xx_rcc.c ****   * @param  PLLI2SM: specifies the division factor for PLLI2S VCO input clock
 607:Lib/StdPeriphs/src/stm32f4xx_rcc.c ****   *         This parameter must be a number between Min_Data = 2 and Max_Data = 63.
 608:Lib/StdPeriphs/src/stm32f4xx_rcc.c ****   * @note   You have to set the PLLI2SM parameter correctly to ensure that the VCO input
 609:Lib/StdPeriphs/src/stm32f4xx_rcc.c ****   *         frequency ranges from 1 to 2 MHz. It is recommended to select a frequency
 610:Lib/StdPeriphs/src/stm32f4xx_rcc.c ****   *         of 2 MHz to limit PLLI2S jitter.
 611:Lib/StdPeriphs/src/stm32f4xx_rcc.c ****   *
 612:Lib/StdPeriphs/src/stm32f4xx_rcc.c ****   * @param  PLLI2SN: specifies the multiplication factor for PLLI2S VCO output clock
 613:Lib/StdPeriphs/src/stm32f4xx_rcc.c ****   *          This parameter must be a number between 50 and 432.
 614:Lib/StdPeriphs/src/stm32f4xx_rcc.c ****   * @note   You have to set the PLLI2SN parameter correctly to ensure that the VCO 
 615:Lib/StdPeriphs/src/stm32f4xx_rcc.c ****   *         output frequency is between 100 and 432 MHz.
 616:Lib/StdPeriphs/src/stm32f4xx_rcc.c ****   *    
 617:Lib/StdPeriphs/src/stm32f4xx_rcc.c ****   * @param  PLLI2SR: specifies the division factor for I2S clock
 618:Lib/StdPeriphs/src/stm32f4xx_rcc.c ****   *          This parameter must be a number between 2 and 7.
 619:Lib/StdPeriphs/src/stm32f4xx_rcc.c ****   * @note   You have to set the PLLI2SR parameter correctly to not exceed 192 MHz
 620:Lib/StdPeriphs/src/stm32f4xx_rcc.c ****   *         on the I2S clock frequency.
 621:Lib/StdPeriphs/src/stm32f4xx_rcc.c ****   *   
 622:Lib/StdPeriphs/src/stm32f4xx_rcc.c ****   * @retval None
 623:Lib/StdPeriphs/src/stm32f4xx_rcc.c ****   */
 624:Lib/StdPeriphs/src/stm32f4xx_rcc.c **** void RCC_PLLI2SConfig(uint32_t PLLI2SN, uint32_t PLLI2SR, uint32_t PLLI2SM)
 625:Lib/StdPeriphs/src/stm32f4xx_rcc.c **** {
 626:Lib/StdPeriphs/src/stm32f4xx_rcc.c ****   /* Check the parameters */
 627:Lib/StdPeriphs/src/stm32f4xx_rcc.c ****   assert_param(IS_RCC_PLLI2SN_VALUE(PLLI2SN));
 628:Lib/StdPeriphs/src/stm32f4xx_rcc.c ****   assert_param(IS_RCC_PLLI2SM_VALUE(PLLI2SM));
 629:Lib/StdPeriphs/src/stm32f4xx_rcc.c ****   assert_param(IS_RCC_PLLI2SR_VALUE(PLLI2SR));
 630:Lib/StdPeriphs/src/stm32f4xx_rcc.c **** 
 631:Lib/StdPeriphs/src/stm32f4xx_rcc.c ****   RCC->PLLI2SCFGR = (PLLI2SN << 6) | (PLLI2SR << 28) | PLLI2SM;
 632:Lib/StdPeriphs/src/stm32f4xx_rcc.c **** }
 633:Lib/StdPeriphs/src/stm32f4xx_rcc.c **** #endif /* STM32F411xE */
 634:Lib/StdPeriphs/src/stm32f4xx_rcc.c **** 
 635:Lib/StdPeriphs/src/stm32f4xx_rcc.c **** #if defined(STM32F427_437xx) || defined(STM32F429_439xx) || defined(STM32F469_479xx)
 636:Lib/StdPeriphs/src/stm32f4xx_rcc.c **** /**
 637:Lib/StdPeriphs/src/stm32f4xx_rcc.c ****   * @brief  Configures the PLLI2S clock multiplication and division factors.
 638:Lib/StdPeriphs/src/stm32f4xx_rcc.c ****   * 
 639:Lib/StdPeriphs/src/stm32f4xx_rcc.c ****   * @note   This function can be used only for STM32F42xxx/43xxx devices 
 640:Lib/StdPeriphs/src/stm32f4xx_rcc.c ****   *         
 641:Lib/StdPeriphs/src/stm32f4xx_rcc.c ****   * @note   This function must be used only when the PLLI2S is disabled.
 642:Lib/StdPeriphs/src/stm32f4xx_rcc.c ****   * @note   PLLI2S clock source is common with the main PLL (configured in 
 643:Lib/StdPeriphs/src/stm32f4xx_rcc.c ****   *         RCC_PLLConfig function )  
 644:Lib/StdPeriphs/src/stm32f4xx_rcc.c ****   *             
 645:Lib/StdPeriphs/src/stm32f4xx_rcc.c ****   * @param  PLLI2SN: specifies the multiplication factor for PLLI2S VCO output clock
 646:Lib/StdPeriphs/src/stm32f4xx_rcc.c ****   *          This parameter must be a number between 50 and 432.
 647:Lib/StdPeriphs/src/stm32f4xx_rcc.c ****   * @note   You have to set the PLLI2SN parameter correctly to ensure that the VCO 
 648:Lib/StdPeriphs/src/stm32f4xx_rcc.c ****   *         output frequency is between 100 and 432 MHz.
 649:Lib/StdPeriphs/src/stm32f4xx_rcc.c ****   * 
ARM GAS  C:\Users\asus\AppData\Local\Temp\ccEdY3aN.s 			page 19


 650:Lib/StdPeriphs/src/stm32f4xx_rcc.c ****   * @param  PLLI2SQ: specifies the division factor for SAI1 clock
 651:Lib/StdPeriphs/src/stm32f4xx_rcc.c ****   *          This parameter must be a number between 2 and 15.
 652:Lib/StdPeriphs/src/stm32f4xx_rcc.c ****   *                 
 653:Lib/StdPeriphs/src/stm32f4xx_rcc.c ****   * @param  PLLI2SR: specifies the division factor for I2S clock
 654:Lib/StdPeriphs/src/stm32f4xx_rcc.c ****   *          This parameter must be a number between 2 and 7.
 655:Lib/StdPeriphs/src/stm32f4xx_rcc.c ****   * @note   You have to set the PLLI2SR parameter correctly to not exceed 192 MHz
 656:Lib/StdPeriphs/src/stm32f4xx_rcc.c ****   *         on the I2S clock frequency.
 657:Lib/StdPeriphs/src/stm32f4xx_rcc.c ****   *   
 658:Lib/StdPeriphs/src/stm32f4xx_rcc.c ****   * @retval None
 659:Lib/StdPeriphs/src/stm32f4xx_rcc.c ****   */
 660:Lib/StdPeriphs/src/stm32f4xx_rcc.c **** void RCC_PLLI2SConfig(uint32_t PLLI2SN, uint32_t PLLI2SQ, uint32_t PLLI2SR)
 661:Lib/StdPeriphs/src/stm32f4xx_rcc.c **** {
 662:Lib/StdPeriphs/src/stm32f4xx_rcc.c ****   /* Check the parameters */
 663:Lib/StdPeriphs/src/stm32f4xx_rcc.c ****   assert_param(IS_RCC_PLLI2SN_VALUE(PLLI2SN));
 664:Lib/StdPeriphs/src/stm32f4xx_rcc.c ****   assert_param(IS_RCC_PLLI2SQ_VALUE(PLLI2SQ));
 665:Lib/StdPeriphs/src/stm32f4xx_rcc.c ****   assert_param(IS_RCC_PLLI2SR_VALUE(PLLI2SR));
 666:Lib/StdPeriphs/src/stm32f4xx_rcc.c **** 
 667:Lib/StdPeriphs/src/stm32f4xx_rcc.c ****   RCC->PLLI2SCFGR = (PLLI2SN << 6) | (PLLI2SQ << 24) | (PLLI2SR << 28);
 668:Lib/StdPeriphs/src/stm32f4xx_rcc.c **** }
 669:Lib/StdPeriphs/src/stm32f4xx_rcc.c **** #endif /* STM32F427_437xx || STM32F429_439xx || STM32F469_479xx */
 670:Lib/StdPeriphs/src/stm32f4xx_rcc.c **** 
 671:Lib/StdPeriphs/src/stm32f4xx_rcc.c **** #if defined(STM32F412xG ) || defined(STM32F413_423xx) || defined(STM32F446xx)
 672:Lib/StdPeriphs/src/stm32f4xx_rcc.c **** /**
 673:Lib/StdPeriphs/src/stm32f4xx_rcc.c ****   * @brief  Configures the PLLI2S clock multiplication and division factors.
 674:Lib/StdPeriphs/src/stm32f4xx_rcc.c ****   * 
 675:Lib/StdPeriphs/src/stm32f4xx_rcc.c ****   * @note   This function can be used only for STM32F446xx devices 
 676:Lib/StdPeriphs/src/stm32f4xx_rcc.c ****   *         
 677:Lib/StdPeriphs/src/stm32f4xx_rcc.c ****   * @note   This function must be used only when the PLLI2S is disabled.
 678:Lib/StdPeriphs/src/stm32f4xx_rcc.c ****   * @note   PLLI2S clock source is common with the main PLL (configured in 
 679:Lib/StdPeriphs/src/stm32f4xx_rcc.c ****   *         RCC_PLLConfig function )  
 680:Lib/StdPeriphs/src/stm32f4xx_rcc.c ****   * 
 681:Lib/StdPeriphs/src/stm32f4xx_rcc.c ****   * @param  PLLI2SM: specifies the division factor for PLLI2S VCO input clock
 682:Lib/StdPeriphs/src/stm32f4xx_rcc.c ****   *         This parameter must be a number between Min_Data = 2 and Max_Data = 63.
 683:Lib/StdPeriphs/src/stm32f4xx_rcc.c ****   * @note   You have to set the PLLI2SM parameter correctly to ensure that the VCO input
 684:Lib/StdPeriphs/src/stm32f4xx_rcc.c ****   *         frequency ranges from 1 to 2 MHz. It is recommended to select a frequency
 685:Lib/StdPeriphs/src/stm32f4xx_rcc.c ****   *         of 2 MHz to limit PLLI2S jitter.
 686:Lib/StdPeriphs/src/stm32f4xx_rcc.c ****   *
 687:Lib/StdPeriphs/src/stm32f4xx_rcc.c ****   * @param  PLLI2SN: specifies the multiplication factor for PLLI2S VCO output clock
 688:Lib/StdPeriphs/src/stm32f4xx_rcc.c ****   *          This parameter must be a number between 50 and 432.
 689:Lib/StdPeriphs/src/stm32f4xx_rcc.c ****   * @note   You have to set the PLLI2SN parameter correctly to ensure that the VCO 
 690:Lib/StdPeriphs/src/stm32f4xx_rcc.c ****   *         output frequency is between 100 and 432 MHz.
 691:Lib/StdPeriphs/src/stm32f4xx_rcc.c ****   *
 692:Lib/StdPeriphs/src/stm32f4xx_rcc.c ****   * @param  PLLI2SP: specifies the division factor for PLL 48Mhz clock output
 693:Lib/StdPeriphs/src/stm32f4xx_rcc.c ****   *          This parameter must be a number in the range {2, 4, 6, or 8}.
 694:Lib/StdPeriphs/src/stm32f4xx_rcc.c ****   *
 695:Lib/StdPeriphs/src/stm32f4xx_rcc.c ****   * @param  PLLI2SQ: specifies the division factor for SAI1 clock
 696:Lib/StdPeriphs/src/stm32f4xx_rcc.c ****   *          This parameter must be a number between 2 and 15.
 697:Lib/StdPeriphs/src/stm32f4xx_rcc.c ****   *                 
 698:Lib/StdPeriphs/src/stm32f4xx_rcc.c ****   * @param  PLLI2SR: specifies the division factor for I2S clock
 699:Lib/StdPeriphs/src/stm32f4xx_rcc.c ****   *          This parameter must be a number between 2 and 7.
 700:Lib/StdPeriphs/src/stm32f4xx_rcc.c ****   * @note   You have to set the PLLI2SR parameter correctly to not exceed 192 MHz
 701:Lib/StdPeriphs/src/stm32f4xx_rcc.c ****   *         on the I2S clock frequency.
 702:Lib/StdPeriphs/src/stm32f4xx_rcc.c ****   * @note   the PLLI2SR parameter is only available with STM32F42xxx/43xxx devices.  
 703:Lib/StdPeriphs/src/stm32f4xx_rcc.c ****   *   
 704:Lib/StdPeriphs/src/stm32f4xx_rcc.c ****   * @retval None
 705:Lib/StdPeriphs/src/stm32f4xx_rcc.c ****   */
 706:Lib/StdPeriphs/src/stm32f4xx_rcc.c **** void RCC_PLLI2SConfig(uint32_t PLLI2SM, uint32_t PLLI2SN, uint32_t PLLI2SP, uint32_t PLLI2SQ, uint3
ARM GAS  C:\Users\asus\AppData\Local\Temp\ccEdY3aN.s 			page 20


 707:Lib/StdPeriphs/src/stm32f4xx_rcc.c **** {
 708:Lib/StdPeriphs/src/stm32f4xx_rcc.c ****   /* Check the parameters */
 709:Lib/StdPeriphs/src/stm32f4xx_rcc.c ****   assert_param(IS_RCC_PLLI2SM_VALUE(PLLI2SM));
 710:Lib/StdPeriphs/src/stm32f4xx_rcc.c ****   assert_param(IS_RCC_PLLI2SN_VALUE(PLLI2SN));
 711:Lib/StdPeriphs/src/stm32f4xx_rcc.c ****   assert_param(IS_RCC_PLLI2SP_VALUE(PLLI2SP));
 712:Lib/StdPeriphs/src/stm32f4xx_rcc.c ****   assert_param(IS_RCC_PLLI2SQ_VALUE(PLLI2SQ));
 713:Lib/StdPeriphs/src/stm32f4xx_rcc.c ****   assert_param(IS_RCC_PLLI2SR_VALUE(PLLI2SR));
 714:Lib/StdPeriphs/src/stm32f4xx_rcc.c **** 
 715:Lib/StdPeriphs/src/stm32f4xx_rcc.c ****   RCC->PLLI2SCFGR =  PLLI2SM | (PLLI2SN << 6) | (((PLLI2SP >> 1) -1) << 16) | (PLLI2SQ << 24) | (PL
 716:Lib/StdPeriphs/src/stm32f4xx_rcc.c **** }
 717:Lib/StdPeriphs/src/stm32f4xx_rcc.c **** #endif /* STM32F412xG || STM32F413_423xx || STM32F446xx */
 718:Lib/StdPeriphs/src/stm32f4xx_rcc.c **** 
 719:Lib/StdPeriphs/src/stm32f4xx_rcc.c **** /**
 720:Lib/StdPeriphs/src/stm32f4xx_rcc.c ****   * @brief  Enables or disables the PLLI2S. 
 721:Lib/StdPeriphs/src/stm32f4xx_rcc.c ****   * @note   The PLLI2S is disabled by hardware when entering STOP and STANDBY modes.  
 722:Lib/StdPeriphs/src/stm32f4xx_rcc.c ****   * @param  NewState: new state of the PLLI2S. This parameter can be: ENABLE or DISABLE.
 723:Lib/StdPeriphs/src/stm32f4xx_rcc.c ****   * @retval None
 724:Lib/StdPeriphs/src/stm32f4xx_rcc.c ****   */
 725:Lib/StdPeriphs/src/stm32f4xx_rcc.c **** void RCC_PLLI2SCmd(FunctionalState NewState)
 726:Lib/StdPeriphs/src/stm32f4xx_rcc.c **** {
 397              		.loc 1 726 1 is_stmt 1 view -0
 398              		.cfi_startproc
 399              		@ args = 0, pretend = 0, frame = 0
 400              		@ frame_needed = 0, uses_anonymous_args = 0
 401              		@ link register save eliminated.
 727:Lib/StdPeriphs/src/stm32f4xx_rcc.c ****   /* Check the parameters */
 728:Lib/StdPeriphs/src/stm32f4xx_rcc.c ****   assert_param(IS_FUNCTIONAL_STATE(NewState));
 402              		.loc 1 728 3 view .LVU95
 729:Lib/StdPeriphs/src/stm32f4xx_rcc.c ****   *(__IO uint32_t *) CR_PLLI2SON_BB = (uint32_t)NewState;
 403              		.loc 1 729 3 view .LVU96
 404              		.loc 1 729 37 is_stmt 0 view .LVU97
 405 0000 014B     		ldr	r3, .L32
 406 0002 9866     		str	r0, [r3, #104]
 730:Lib/StdPeriphs/src/stm32f4xx_rcc.c **** }
 407              		.loc 1 730 1 view .LVU98
 408 0004 7047     		bx	lr
 409              	.L33:
 410 0006 00BF     		.align	2
 411              	.L32:
 412 0008 00004742 		.word	1111949312
 413              		.cfi_endproc
 414              	.LFE133:
 416              		.section	.text.RCC_PLLSAIConfig,"ax",%progbits
 417              		.align	1
 418              		.global	RCC_PLLSAIConfig
 419              		.syntax unified
 420              		.thumb
 421              		.thumb_func
 423              	RCC_PLLSAIConfig:
 424              	.LVL16:
 425              	.LFB134:
 731:Lib/StdPeriphs/src/stm32f4xx_rcc.c **** 
 732:Lib/StdPeriphs/src/stm32f4xx_rcc.c **** #if defined(STM32F469_479xx)
 733:Lib/StdPeriphs/src/stm32f4xx_rcc.c **** /**
 734:Lib/StdPeriphs/src/stm32f4xx_rcc.c ****   * @brief  Configures the PLLSAI clock multiplication and division factors.
 735:Lib/StdPeriphs/src/stm32f4xx_rcc.c ****   *
 736:Lib/StdPeriphs/src/stm32f4xx_rcc.c ****   * @note   This function can be used only for STM32F469_479xx devices 
ARM GAS  C:\Users\asus\AppData\Local\Temp\ccEdY3aN.s 			page 21


 737:Lib/StdPeriphs/src/stm32f4xx_rcc.c ****   *        
 738:Lib/StdPeriphs/src/stm32f4xx_rcc.c ****   * @note   This function must be used only when the PLLSAI is disabled.
 739:Lib/StdPeriphs/src/stm32f4xx_rcc.c ****   * @note   PLLSAI clock source is common with the main PLL (configured in 
 740:Lib/StdPeriphs/src/stm32f4xx_rcc.c ****   *         RCC_PLLConfig function )  
 741:Lib/StdPeriphs/src/stm32f4xx_rcc.c ****   *
 742:Lib/StdPeriphs/src/stm32f4xx_rcc.c ****   * @param  PLLSAIN: specifies the multiplication factor for PLLSAI VCO output clock
 743:Lib/StdPeriphs/src/stm32f4xx_rcc.c ****   *         This parameter must be a number between 50 and 432.
 744:Lib/StdPeriphs/src/stm32f4xx_rcc.c ****   * @note   You have to set the PLLSAIN parameter correctly to ensure that the VCO 
 745:Lib/StdPeriphs/src/stm32f4xx_rcc.c ****   *         output frequency is between 100 and 432 MHz.
 746:Lib/StdPeriphs/src/stm32f4xx_rcc.c ****   *
 747:Lib/StdPeriphs/src/stm32f4xx_rcc.c ****   * @param  PLLSAIP: specifies the division factor for PLL 48Mhz clock output
 748:Lib/StdPeriphs/src/stm32f4xx_rcc.c ****   *         This parameter must be a number in the range {2, 4, 6, or 8}..
 749:Lib/StdPeriphs/src/stm32f4xx_rcc.c ****   *           
 750:Lib/StdPeriphs/src/stm32f4xx_rcc.c ****   * @param  PLLSAIQ: specifies the division factor for SAI1 clock
 751:Lib/StdPeriphs/src/stm32f4xx_rcc.c ****   *         This parameter must be a number between 2 and 15.
 752:Lib/StdPeriphs/src/stm32f4xx_rcc.c ****   *            
 753:Lib/StdPeriphs/src/stm32f4xx_rcc.c ****   * @param  PLLSAIR: specifies the division factor for LTDC clock
 754:Lib/StdPeriphs/src/stm32f4xx_rcc.c ****   *          This parameter must be a number between 2 and 7.
 755:Lib/StdPeriphs/src/stm32f4xx_rcc.c ****   *   
 756:Lib/StdPeriphs/src/stm32f4xx_rcc.c ****   * @retval None
 757:Lib/StdPeriphs/src/stm32f4xx_rcc.c ****   */
 758:Lib/StdPeriphs/src/stm32f4xx_rcc.c **** void RCC_PLLSAIConfig(uint32_t PLLSAIN, uint32_t PLLSAIP, uint32_t PLLSAIQ, uint32_t PLLSAIR)
 759:Lib/StdPeriphs/src/stm32f4xx_rcc.c **** {
 760:Lib/StdPeriphs/src/stm32f4xx_rcc.c ****   /* Check the parameters */
 761:Lib/StdPeriphs/src/stm32f4xx_rcc.c ****   assert_param(IS_RCC_PLLSAIN_VALUE(PLLSAIN));
 762:Lib/StdPeriphs/src/stm32f4xx_rcc.c ****   assert_param(IS_RCC_PLLSAIP_VALUE(PLLSAIP));
 763:Lib/StdPeriphs/src/stm32f4xx_rcc.c ****   assert_param(IS_RCC_PLLSAIQ_VALUE(PLLSAIQ));
 764:Lib/StdPeriphs/src/stm32f4xx_rcc.c ****   assert_param(IS_RCC_PLLSAIR_VALUE(PLLSAIR));
 765:Lib/StdPeriphs/src/stm32f4xx_rcc.c **** 
 766:Lib/StdPeriphs/src/stm32f4xx_rcc.c ****   RCC->PLLSAICFGR = (PLLSAIN << 6) | (((PLLSAIP >> 1) -1) << 16) | (PLLSAIQ << 24) | (PLLSAIR << 28
 767:Lib/StdPeriphs/src/stm32f4xx_rcc.c **** }
 768:Lib/StdPeriphs/src/stm32f4xx_rcc.c **** #endif /* STM32F469_479xx */
 769:Lib/StdPeriphs/src/stm32f4xx_rcc.c **** 
 770:Lib/StdPeriphs/src/stm32f4xx_rcc.c **** #if defined(STM32F446xx)
 771:Lib/StdPeriphs/src/stm32f4xx_rcc.c **** /**
 772:Lib/StdPeriphs/src/stm32f4xx_rcc.c ****   * @brief  Configures the PLLSAI clock multiplication and division factors.
 773:Lib/StdPeriphs/src/stm32f4xx_rcc.c ****   *
 774:Lib/StdPeriphs/src/stm32f4xx_rcc.c ****   * @note   This function can be used only for STM32F446xx devices 
 775:Lib/StdPeriphs/src/stm32f4xx_rcc.c ****   *        
 776:Lib/StdPeriphs/src/stm32f4xx_rcc.c ****   * @note   This function must be used only when the PLLSAI is disabled.
 777:Lib/StdPeriphs/src/stm32f4xx_rcc.c ****   * @note   PLLSAI clock source is common with the main PLL (configured in 
 778:Lib/StdPeriphs/src/stm32f4xx_rcc.c ****   *         RCC_PLLConfig function )  
 779:Lib/StdPeriphs/src/stm32f4xx_rcc.c ****   * 
 780:Lib/StdPeriphs/src/stm32f4xx_rcc.c ****   * @param  PLLSAIM: specifies the division factor for PLLSAI VCO input clock
 781:Lib/StdPeriphs/src/stm32f4xx_rcc.c ****   *         This parameter must be a number between Min_Data = 2 and Max_Data = 63.
 782:Lib/StdPeriphs/src/stm32f4xx_rcc.c ****   * @note   You have to set the PLLSAIM parameter correctly to ensure that the VCO input
 783:Lib/StdPeriphs/src/stm32f4xx_rcc.c ****   *         frequency ranges from 1 to 2 MHz. It is recommended to select a frequency
 784:Lib/StdPeriphs/src/stm32f4xx_rcc.c ****   *         of 2 MHz to limit PLLSAI jitter.
 785:Lib/StdPeriphs/src/stm32f4xx_rcc.c ****   *
 786:Lib/StdPeriphs/src/stm32f4xx_rcc.c ****   * @param  PLLSAIN: specifies the multiplication factor for PLLSAI VCO output clock
 787:Lib/StdPeriphs/src/stm32f4xx_rcc.c ****   *         This parameter must be a number between 50 and 432.
 788:Lib/StdPeriphs/src/stm32f4xx_rcc.c ****   * @note   You have to set the PLLSAIN parameter correctly to ensure that the VCO 
 789:Lib/StdPeriphs/src/stm32f4xx_rcc.c ****   *         output frequency is between 100 and 432 MHz.
 790:Lib/StdPeriphs/src/stm32f4xx_rcc.c ****   * 
 791:Lib/StdPeriphs/src/stm32f4xx_rcc.c ****   * @param  PLLSAIP: specifies the division factor for PLL 48Mhz clock output
 792:Lib/StdPeriphs/src/stm32f4xx_rcc.c ****   *         This parameter must be a number in the range {2, 4, 6, or 8}.
 793:Lib/StdPeriphs/src/stm32f4xx_rcc.c ****   *
ARM GAS  C:\Users\asus\AppData\Local\Temp\ccEdY3aN.s 			page 22


 794:Lib/StdPeriphs/src/stm32f4xx_rcc.c ****   * @param  PLLSAIQ: specifies the division factor for SAI1 clock
 795:Lib/StdPeriphs/src/stm32f4xx_rcc.c ****   *         This parameter must be a number between 2 and 15.
 796:Lib/StdPeriphs/src/stm32f4xx_rcc.c ****   *   
 797:Lib/StdPeriphs/src/stm32f4xx_rcc.c ****   * @retval None
 798:Lib/StdPeriphs/src/stm32f4xx_rcc.c ****   */
 799:Lib/StdPeriphs/src/stm32f4xx_rcc.c **** void RCC_PLLSAIConfig(uint32_t PLLSAIM, uint32_t PLLSAIN, uint32_t PLLSAIP, uint32_t PLLSAIQ)
 800:Lib/StdPeriphs/src/stm32f4xx_rcc.c **** {
 801:Lib/StdPeriphs/src/stm32f4xx_rcc.c ****   /* Check the parameters */
 802:Lib/StdPeriphs/src/stm32f4xx_rcc.c ****   assert_param(IS_RCC_PLLSAIM_VALUE(PLLSAIM));
 803:Lib/StdPeriphs/src/stm32f4xx_rcc.c ****   assert_param(IS_RCC_PLLSAIN_VALUE(PLLSAIN));
 804:Lib/StdPeriphs/src/stm32f4xx_rcc.c ****   assert_param(IS_RCC_PLLSAIP_VALUE(PLLSAIP));
 805:Lib/StdPeriphs/src/stm32f4xx_rcc.c ****   assert_param(IS_RCC_PLLSAIQ_VALUE(PLLSAIQ));
 806:Lib/StdPeriphs/src/stm32f4xx_rcc.c **** 
 807:Lib/StdPeriphs/src/stm32f4xx_rcc.c ****   RCC->PLLSAICFGR = PLLSAIM | (PLLSAIN << 6) | (((PLLSAIP >> 1) -1) << 16)  | (PLLSAIQ << 24);
 808:Lib/StdPeriphs/src/stm32f4xx_rcc.c **** }
 809:Lib/StdPeriphs/src/stm32f4xx_rcc.c **** #endif /* STM32F446xx */
 810:Lib/StdPeriphs/src/stm32f4xx_rcc.c **** 
 811:Lib/StdPeriphs/src/stm32f4xx_rcc.c **** #if defined(STM32F40_41xxx) || defined(STM32F427_437xx) || defined(STM32F429_439xx) || defined(STM3
 812:Lib/StdPeriphs/src/stm32f4xx_rcc.c **** /**
 813:Lib/StdPeriphs/src/stm32f4xx_rcc.c ****   * @brief  Configures the PLLSAI clock multiplication and division factors.
 814:Lib/StdPeriphs/src/stm32f4xx_rcc.c ****   *
 815:Lib/StdPeriphs/src/stm32f4xx_rcc.c ****   * @note   This function can be used only for STM32F42xxx/43xxx devices 
 816:Lib/StdPeriphs/src/stm32f4xx_rcc.c ****   *        
 817:Lib/StdPeriphs/src/stm32f4xx_rcc.c ****   * @note   This function must be used only when the PLLSAI is disabled.
 818:Lib/StdPeriphs/src/stm32f4xx_rcc.c ****   * @note   PLLSAI clock source is common with the main PLL (configured in 
 819:Lib/StdPeriphs/src/stm32f4xx_rcc.c ****   *         RCC_PLLConfig function )  
 820:Lib/StdPeriphs/src/stm32f4xx_rcc.c ****   *             
 821:Lib/StdPeriphs/src/stm32f4xx_rcc.c ****   * @param  PLLSAIN: specifies the multiplication factor for PLLSAI VCO output clock
 822:Lib/StdPeriphs/src/stm32f4xx_rcc.c ****   *          This parameter must be a number between 50 and 432.
 823:Lib/StdPeriphs/src/stm32f4xx_rcc.c ****   * @note   You have to set the PLLSAIN parameter correctly to ensure that the VCO 
 824:Lib/StdPeriphs/src/stm32f4xx_rcc.c ****   *         output frequency is between 100 and 432 MHz.
 825:Lib/StdPeriphs/src/stm32f4xx_rcc.c ****   *           
 826:Lib/StdPeriphs/src/stm32f4xx_rcc.c ****   * @param  PLLSAIQ: specifies the division factor for SAI1 clock
 827:Lib/StdPeriphs/src/stm32f4xx_rcc.c ****   *          This parameter must be a number between 2 and 15.
 828:Lib/StdPeriphs/src/stm32f4xx_rcc.c ****   *            
 829:Lib/StdPeriphs/src/stm32f4xx_rcc.c ****   * @param  PLLSAIR: specifies the division factor for LTDC clock
 830:Lib/StdPeriphs/src/stm32f4xx_rcc.c ****   *          This parameter must be a number between 2 and 7.
 831:Lib/StdPeriphs/src/stm32f4xx_rcc.c ****   *   
 832:Lib/StdPeriphs/src/stm32f4xx_rcc.c ****   * @retval None
 833:Lib/StdPeriphs/src/stm32f4xx_rcc.c ****   */
 834:Lib/StdPeriphs/src/stm32f4xx_rcc.c **** void RCC_PLLSAIConfig(uint32_t PLLSAIN, uint32_t PLLSAIQ, uint32_t PLLSAIR)
 835:Lib/StdPeriphs/src/stm32f4xx_rcc.c **** {
 426              		.loc 1 835 1 is_stmt 1 view -0
 427              		.cfi_startproc
 428              		@ args = 0, pretend = 0, frame = 0
 429              		@ frame_needed = 0, uses_anonymous_args = 0
 430              		@ link register save eliminated.
 836:Lib/StdPeriphs/src/stm32f4xx_rcc.c ****   /* Check the parameters */
 837:Lib/StdPeriphs/src/stm32f4xx_rcc.c ****   assert_param(IS_RCC_PLLSAIN_VALUE(PLLSAIN));
 431              		.loc 1 837 3 view .LVU100
 838:Lib/StdPeriphs/src/stm32f4xx_rcc.c ****   assert_param(IS_RCC_PLLSAIR_VALUE(PLLSAIR));
 432              		.loc 1 838 3 view .LVU101
 839:Lib/StdPeriphs/src/stm32f4xx_rcc.c ****   assert_param(IS_RCC_PLLSAIQ_VALUE(PLLSAIQ));
 433              		.loc 1 839 3 view .LVU102
 840:Lib/StdPeriphs/src/stm32f4xx_rcc.c ****   
 841:Lib/StdPeriphs/src/stm32f4xx_rcc.c ****   RCC->PLLSAICFGR = (PLLSAIN << 6) | (PLLSAIQ << 24) | (PLLSAIR << 28);
 434              		.loc 1 841 3 view .LVU103
ARM GAS  C:\Users\asus\AppData\Local\Temp\ccEdY3aN.s 			page 23


 435              		.loc 1 841 47 is_stmt 0 view .LVU104
 436 0000 0906     		lsls	r1, r1, #24
 437              	.LVL17:
 438              		.loc 1 841 36 view .LVU105
 439 0002 41EA8011 		orr	r1, r1, r0, lsl #6
 440              		.loc 1 841 54 view .LVU106
 441 0006 41EA0271 		orr	r1, r1, r2, lsl #28
 442              		.loc 1 841 19 view .LVU107
 443 000a 024B     		ldr	r3, .L35
 444 000c C3F88810 		str	r1, [r3, #136]
 842:Lib/StdPeriphs/src/stm32f4xx_rcc.c **** }
 445              		.loc 1 842 1 view .LVU108
 446 0010 7047     		bx	lr
 447              	.L36:
 448 0012 00BF     		.align	2
 449              	.L35:
 450 0014 00380240 		.word	1073887232
 451              		.cfi_endproc
 452              	.LFE134:
 454              		.section	.text.RCC_PLLSAICmd,"ax",%progbits
 455              		.align	1
 456              		.global	RCC_PLLSAICmd
 457              		.syntax unified
 458              		.thumb
 459              		.thumb_func
 461              	RCC_PLLSAICmd:
 462              	.LVL18:
 463              	.LFB135:
 843:Lib/StdPeriphs/src/stm32f4xx_rcc.c **** #endif /* STM32F40_41xxx || STM32F427_437xx || STM32F429_439xx || STM32F401xx || STM32F411xE */
 844:Lib/StdPeriphs/src/stm32f4xx_rcc.c **** 
 845:Lib/StdPeriphs/src/stm32f4xx_rcc.c **** /**
 846:Lib/StdPeriphs/src/stm32f4xx_rcc.c ****   * @brief  Enables or disables the PLLSAI. 
 847:Lib/StdPeriphs/src/stm32f4xx_rcc.c ****   * 
 848:Lib/StdPeriphs/src/stm32f4xx_rcc.c ****   * @note   This function can be used only for STM32F42xxx/43xxx/446xx/469xx/479xx devices 
 849:Lib/StdPeriphs/src/stm32f4xx_rcc.c ****   *       
 850:Lib/StdPeriphs/src/stm32f4xx_rcc.c ****   * @note   The PLLSAI is disabled by hardware when entering STOP and STANDBY modes.  
 851:Lib/StdPeriphs/src/stm32f4xx_rcc.c ****   * @param  NewState: new state of the PLLSAI. This parameter can be: ENABLE or DISABLE.
 852:Lib/StdPeriphs/src/stm32f4xx_rcc.c ****   * @retval None
 853:Lib/StdPeriphs/src/stm32f4xx_rcc.c ****   */
 854:Lib/StdPeriphs/src/stm32f4xx_rcc.c **** void RCC_PLLSAICmd(FunctionalState NewState)
 855:Lib/StdPeriphs/src/stm32f4xx_rcc.c **** {
 464              		.loc 1 855 1 is_stmt 1 view -0
 465              		.cfi_startproc
 466              		@ args = 0, pretend = 0, frame = 0
 467              		@ frame_needed = 0, uses_anonymous_args = 0
 468              		@ link register save eliminated.
 856:Lib/StdPeriphs/src/stm32f4xx_rcc.c ****   /* Check the parameters */
 857:Lib/StdPeriphs/src/stm32f4xx_rcc.c ****   assert_param(IS_FUNCTIONAL_STATE(NewState));
 469              		.loc 1 857 3 view .LVU110
 858:Lib/StdPeriphs/src/stm32f4xx_rcc.c ****   *(__IO uint32_t *) CR_PLLSAION_BB = (uint32_t)NewState;
 470              		.loc 1 858 3 view .LVU111
 471              		.loc 1 858 37 is_stmt 0 view .LVU112
 472 0000 014B     		ldr	r3, .L38
 473 0002 1867     		str	r0, [r3, #112]
 859:Lib/StdPeriphs/src/stm32f4xx_rcc.c **** }
 474              		.loc 1 859 1 view .LVU113
 475 0004 7047     		bx	lr
ARM GAS  C:\Users\asus\AppData\Local\Temp\ccEdY3aN.s 			page 24


 476              	.L39:
 477 0006 00BF     		.align	2
 478              	.L38:
 479 0008 00004742 		.word	1111949312
 480              		.cfi_endproc
 481              	.LFE135:
 483              		.section	.text.RCC_ClockSecuritySystemCmd,"ax",%progbits
 484              		.align	1
 485              		.global	RCC_ClockSecuritySystemCmd
 486              		.syntax unified
 487              		.thumb
 488              		.thumb_func
 490              	RCC_ClockSecuritySystemCmd:
 491              	.LVL19:
 492              	.LFB136:
 860:Lib/StdPeriphs/src/stm32f4xx_rcc.c **** 
 861:Lib/StdPeriphs/src/stm32f4xx_rcc.c **** /**
 862:Lib/StdPeriphs/src/stm32f4xx_rcc.c ****   * @brief  Enables or disables the Clock Security System.
 863:Lib/StdPeriphs/src/stm32f4xx_rcc.c ****   * @note   If a failure is detected on the HSE oscillator clock, this oscillator
 864:Lib/StdPeriphs/src/stm32f4xx_rcc.c ****   *         is automatically disabled and an interrupt is generated to inform the
 865:Lib/StdPeriphs/src/stm32f4xx_rcc.c ****   *         software about the failure (Clock Security System Interrupt, CSSI),
 866:Lib/StdPeriphs/src/stm32f4xx_rcc.c ****   *         allowing the MCU to perform rescue operations. The CSSI is linked to 
 867:Lib/StdPeriphs/src/stm32f4xx_rcc.c ****   *         the Cortex-M4 NMI (Non-Maskable Interrupt) exception vector.  
 868:Lib/StdPeriphs/src/stm32f4xx_rcc.c ****   * @param  NewState: new state of the Clock Security System.
 869:Lib/StdPeriphs/src/stm32f4xx_rcc.c ****   *         This parameter can be: ENABLE or DISABLE.
 870:Lib/StdPeriphs/src/stm32f4xx_rcc.c ****   * @retval None
 871:Lib/StdPeriphs/src/stm32f4xx_rcc.c ****   */
 872:Lib/StdPeriphs/src/stm32f4xx_rcc.c **** void RCC_ClockSecuritySystemCmd(FunctionalState NewState)
 873:Lib/StdPeriphs/src/stm32f4xx_rcc.c **** {
 493              		.loc 1 873 1 is_stmt 1 view -0
 494              		.cfi_startproc
 495              		@ args = 0, pretend = 0, frame = 0
 496              		@ frame_needed = 0, uses_anonymous_args = 0
 497              		@ link register save eliminated.
 874:Lib/StdPeriphs/src/stm32f4xx_rcc.c ****   /* Check the parameters */
 875:Lib/StdPeriphs/src/stm32f4xx_rcc.c ****   assert_param(IS_FUNCTIONAL_STATE(NewState));
 498              		.loc 1 875 3 view .LVU115
 876:Lib/StdPeriphs/src/stm32f4xx_rcc.c ****   *(__IO uint32_t *) CR_CSSON_BB = (uint32_t)NewState;
 499              		.loc 1 876 3 view .LVU116
 500              		.loc 1 876 34 is_stmt 0 view .LVU117
 501 0000 014B     		ldr	r3, .L41
 502 0002 D864     		str	r0, [r3, #76]
 877:Lib/StdPeriphs/src/stm32f4xx_rcc.c **** }
 503              		.loc 1 877 1 view .LVU118
 504 0004 7047     		bx	lr
 505              	.L42:
 506 0006 00BF     		.align	2
 507              	.L41:
 508 0008 00004742 		.word	1111949312
 509              		.cfi_endproc
 510              	.LFE136:
 512              		.section	.text.RCC_MCO1Config,"ax",%progbits
 513              		.align	1
 514              		.global	RCC_MCO1Config
 515              		.syntax unified
 516              		.thumb
 517              		.thumb_func
ARM GAS  C:\Users\asus\AppData\Local\Temp\ccEdY3aN.s 			page 25


 519              	RCC_MCO1Config:
 520              	.LVL20:
 521              	.LFB137:
 878:Lib/StdPeriphs/src/stm32f4xx_rcc.c **** 
 879:Lib/StdPeriphs/src/stm32f4xx_rcc.c **** /**
 880:Lib/StdPeriphs/src/stm32f4xx_rcc.c ****   * @brief  Selects the clock source to output on MCO1 pin(PA8).
 881:Lib/StdPeriphs/src/stm32f4xx_rcc.c ****   * @note   PA8 should be configured in alternate function mode.
 882:Lib/StdPeriphs/src/stm32f4xx_rcc.c ****   * @param  RCC_MCO1Source: specifies the clock source to output.
 883:Lib/StdPeriphs/src/stm32f4xx_rcc.c ****   *          This parameter can be one of the following values:
 884:Lib/StdPeriphs/src/stm32f4xx_rcc.c ****   *            @arg RCC_MCO1Source_HSI: HSI clock selected as MCO1 source
 885:Lib/StdPeriphs/src/stm32f4xx_rcc.c ****   *            @arg RCC_MCO1Source_LSE: LSE clock selected as MCO1 source
 886:Lib/StdPeriphs/src/stm32f4xx_rcc.c ****   *            @arg RCC_MCO1Source_HSE: HSE clock selected as MCO1 source
 887:Lib/StdPeriphs/src/stm32f4xx_rcc.c ****   *            @arg RCC_MCO1Source_PLLCLK: main PLL clock selected as MCO1 source
 888:Lib/StdPeriphs/src/stm32f4xx_rcc.c ****   * @param  RCC_MCO1Div: specifies the MCO1 prescaler.
 889:Lib/StdPeriphs/src/stm32f4xx_rcc.c ****   *          This parameter can be one of the following values:
 890:Lib/StdPeriphs/src/stm32f4xx_rcc.c ****   *            @arg RCC_MCO1Div_1: no division applied to MCO1 clock
 891:Lib/StdPeriphs/src/stm32f4xx_rcc.c ****   *            @arg RCC_MCO1Div_2: division by 2 applied to MCO1 clock
 892:Lib/StdPeriphs/src/stm32f4xx_rcc.c ****   *            @arg RCC_MCO1Div_3: division by 3 applied to MCO1 clock
 893:Lib/StdPeriphs/src/stm32f4xx_rcc.c ****   *            @arg RCC_MCO1Div_4: division by 4 applied to MCO1 clock
 894:Lib/StdPeriphs/src/stm32f4xx_rcc.c ****   *            @arg RCC_MCO1Div_5: division by 5 applied to MCO1 clock
 895:Lib/StdPeriphs/src/stm32f4xx_rcc.c ****   * @retval None
 896:Lib/StdPeriphs/src/stm32f4xx_rcc.c ****   */
 897:Lib/StdPeriphs/src/stm32f4xx_rcc.c **** void RCC_MCO1Config(uint32_t RCC_MCO1Source, uint32_t RCC_MCO1Div)
 898:Lib/StdPeriphs/src/stm32f4xx_rcc.c **** {
 522              		.loc 1 898 1 is_stmt 1 view -0
 523              		.cfi_startproc
 524              		@ args = 0, pretend = 0, frame = 0
 525              		@ frame_needed = 0, uses_anonymous_args = 0
 526              		@ link register save eliminated.
 899:Lib/StdPeriphs/src/stm32f4xx_rcc.c ****   uint32_t tmpreg = 0;
 527              		.loc 1 899 3 view .LVU120
 900:Lib/StdPeriphs/src/stm32f4xx_rcc.c ****   
 901:Lib/StdPeriphs/src/stm32f4xx_rcc.c ****   /* Check the parameters */
 902:Lib/StdPeriphs/src/stm32f4xx_rcc.c ****   assert_param(IS_RCC_MCO1SOURCE(RCC_MCO1Source));
 528              		.loc 1 902 3 view .LVU121
 903:Lib/StdPeriphs/src/stm32f4xx_rcc.c ****   assert_param(IS_RCC_MCO1DIV(RCC_MCO1Div));  
 529              		.loc 1 903 3 view .LVU122
 904:Lib/StdPeriphs/src/stm32f4xx_rcc.c **** 
 905:Lib/StdPeriphs/src/stm32f4xx_rcc.c ****   tmpreg = RCC->CFGR;
 530              		.loc 1 905 3 view .LVU123
 531              		.loc 1 905 10 is_stmt 0 view .LVU124
 532 0000 034A     		ldr	r2, .L44
 533 0002 9368     		ldr	r3, [r2, #8]
 534              	.LVL21:
 906:Lib/StdPeriphs/src/stm32f4xx_rcc.c **** 
 907:Lib/StdPeriphs/src/stm32f4xx_rcc.c ****   /* Clear MCO1[1:0] and MCO1PRE[2:0] bits */
 908:Lib/StdPeriphs/src/stm32f4xx_rcc.c ****   tmpreg &= CFGR_MCO1_RESET_MASK;
 535              		.loc 1 908 3 is_stmt 1 view .LVU125
 536              		.loc 1 908 10 is_stmt 0 view .LVU126
 537 0004 23F0EC63 		bic	r3, r3, #123731968
 538              	.LVL22:
 909:Lib/StdPeriphs/src/stm32f4xx_rcc.c **** 
 910:Lib/StdPeriphs/src/stm32f4xx_rcc.c ****   /* Select MCO1 clock source and prescaler */
 911:Lib/StdPeriphs/src/stm32f4xx_rcc.c ****   tmpreg |= RCC_MCO1Source | RCC_MCO1Div;
 539              		.loc 1 911 3 is_stmt 1 view .LVU127
 540              		.loc 1 911 28 is_stmt 0 view .LVU128
 541 0008 0843     		orrs	r0, r0, r1
ARM GAS  C:\Users\asus\AppData\Local\Temp\ccEdY3aN.s 			page 26


 542              	.LVL23:
 543              		.loc 1 911 10 view .LVU129
 544 000a 1843     		orrs	r0, r0, r3
 545              	.LVL24:
 912:Lib/StdPeriphs/src/stm32f4xx_rcc.c ****   
 913:Lib/StdPeriphs/src/stm32f4xx_rcc.c ****   /* Store the new value */
 914:Lib/StdPeriphs/src/stm32f4xx_rcc.c ****   RCC->CFGR = tmpreg;
 546              		.loc 1 914 3 is_stmt 1 view .LVU130
 547              		.loc 1 914 13 is_stmt 0 view .LVU131
 548 000c 9060     		str	r0, [r2, #8]
 915:Lib/StdPeriphs/src/stm32f4xx_rcc.c **** 
 916:Lib/StdPeriphs/src/stm32f4xx_rcc.c **** #if defined(STM32F410xx)
 917:Lib/StdPeriphs/src/stm32f4xx_rcc.c ****   RCC_MCO1Cmd(ENABLE);
 918:Lib/StdPeriphs/src/stm32f4xx_rcc.c **** #endif /* STM32F410xx */   
 919:Lib/StdPeriphs/src/stm32f4xx_rcc.c **** }
 549              		.loc 1 919 1 view .LVU132
 550 000e 7047     		bx	lr
 551              	.L45:
 552              		.align	2
 553              	.L44:
 554 0010 00380240 		.word	1073887232
 555              		.cfi_endproc
 556              	.LFE137:
 558              		.section	.text.RCC_MCO2Config,"ax",%progbits
 559              		.align	1
 560              		.global	RCC_MCO2Config
 561              		.syntax unified
 562              		.thumb
 563              		.thumb_func
 565              	RCC_MCO2Config:
 566              	.LVL25:
 567              	.LFB138:
 920:Lib/StdPeriphs/src/stm32f4xx_rcc.c **** 
 921:Lib/StdPeriphs/src/stm32f4xx_rcc.c **** /**
 922:Lib/StdPeriphs/src/stm32f4xx_rcc.c ****   * @brief  Selects the clock source to output on MCO2 pin(PC9).
 923:Lib/StdPeriphs/src/stm32f4xx_rcc.c ****   * @note   PC9 should be configured in alternate function mode.
 924:Lib/StdPeriphs/src/stm32f4xx_rcc.c ****   * @param  RCC_MCO2Source: specifies the clock source to output.
 925:Lib/StdPeriphs/src/stm32f4xx_rcc.c ****   *          This parameter can be one of the following values:
 926:Lib/StdPeriphs/src/stm32f4xx_rcc.c ****   *            @arg RCC_MCO2Source_SYSCLK: System clock (SYSCLK) selected as MCO2 source
 927:Lib/StdPeriphs/src/stm32f4xx_rcc.c ****   *            @arg RCC_MCO2SOURCE_PLLI2SCLK: PLLI2S clock selected as MCO2 source, available for a
 928:Lib/StdPeriphs/src/stm32f4xx_rcc.c ****   *            @arg RCC_MCO2SOURCE_I2SCLK: I2SCLK clock selected as MCO2 source, available only for
 929:Lib/StdPeriphs/src/stm32f4xx_rcc.c ****   *            @arg RCC_MCO2Source_HSE: HSE clock selected as MCO2 source
 930:Lib/StdPeriphs/src/stm32f4xx_rcc.c ****   *            @arg RCC_MCO2Source_PLLCLK: main PLL clock selected as MCO2 source
 931:Lib/StdPeriphs/src/stm32f4xx_rcc.c ****   * @param  RCC_MCO2Div: specifies the MCO2 prescaler.
 932:Lib/StdPeriphs/src/stm32f4xx_rcc.c ****   *          This parameter can be one of the following values:
 933:Lib/StdPeriphs/src/stm32f4xx_rcc.c ****   *            @arg RCC_MCO2Div_1: no division applied to MCO2 clock
 934:Lib/StdPeriphs/src/stm32f4xx_rcc.c ****   *            @arg RCC_MCO2Div_2: division by 2 applied to MCO2 clock
 935:Lib/StdPeriphs/src/stm32f4xx_rcc.c ****   *            @arg RCC_MCO2Div_3: division by 3 applied to MCO2 clock
 936:Lib/StdPeriphs/src/stm32f4xx_rcc.c ****   *            @arg RCC_MCO2Div_4: division by 4 applied to MCO2 clock
 937:Lib/StdPeriphs/src/stm32f4xx_rcc.c ****   *            @arg RCC_MCO2Div_5: division by 5 applied to MCO2 clock
 938:Lib/StdPeriphs/src/stm32f4xx_rcc.c ****   * @note  For STM32F410xx devices to output I2SCLK clock on MCO2 you should have
 939:Lib/StdPeriphs/src/stm32f4xx_rcc.c ****   *        at last one of the SPI clocks enabled (SPI1, SPI2 or SPI5).
 940:Lib/StdPeriphs/src/stm32f4xx_rcc.c ****   * @retval None
 941:Lib/StdPeriphs/src/stm32f4xx_rcc.c ****   */
 942:Lib/StdPeriphs/src/stm32f4xx_rcc.c **** void RCC_MCO2Config(uint32_t RCC_MCO2Source, uint32_t RCC_MCO2Div)
 943:Lib/StdPeriphs/src/stm32f4xx_rcc.c **** {
 568              		.loc 1 943 1 is_stmt 1 view -0
ARM GAS  C:\Users\asus\AppData\Local\Temp\ccEdY3aN.s 			page 27


 569              		.cfi_startproc
 570              		@ args = 0, pretend = 0, frame = 0
 571              		@ frame_needed = 0, uses_anonymous_args = 0
 572              		@ link register save eliminated.
 944:Lib/StdPeriphs/src/stm32f4xx_rcc.c ****   uint32_t tmpreg = 0;
 573              		.loc 1 944 3 view .LVU134
 945:Lib/StdPeriphs/src/stm32f4xx_rcc.c ****   
 946:Lib/StdPeriphs/src/stm32f4xx_rcc.c ****   /* Check the parameters */
 947:Lib/StdPeriphs/src/stm32f4xx_rcc.c ****   assert_param(IS_RCC_MCO2SOURCE(RCC_MCO2Source));
 574              		.loc 1 947 3 view .LVU135
 948:Lib/StdPeriphs/src/stm32f4xx_rcc.c ****   assert_param(IS_RCC_MCO2DIV(RCC_MCO2Div));
 575              		.loc 1 948 3 view .LVU136
 949:Lib/StdPeriphs/src/stm32f4xx_rcc.c ****   
 950:Lib/StdPeriphs/src/stm32f4xx_rcc.c ****   tmpreg = RCC->CFGR;
 576              		.loc 1 950 3 view .LVU137
 577              		.loc 1 950 10 is_stmt 0 view .LVU138
 578 0000 034A     		ldr	r2, .L47
 579 0002 9368     		ldr	r3, [r2, #8]
 580              	.LVL26:
 951:Lib/StdPeriphs/src/stm32f4xx_rcc.c ****   
 952:Lib/StdPeriphs/src/stm32f4xx_rcc.c ****   /* Clear MCO2 and MCO2PRE[2:0] bits */
 953:Lib/StdPeriphs/src/stm32f4xx_rcc.c ****   tmpreg &= CFGR_MCO2_RESET_MASK;
 581              		.loc 1 953 3 is_stmt 1 view .LVU139
 582              		.loc 1 953 10 is_stmt 0 view .LVU140
 583 0004 23F07843 		bic	r3, r3, #-134217728
 584              	.LVL27:
 954:Lib/StdPeriphs/src/stm32f4xx_rcc.c **** 
 955:Lib/StdPeriphs/src/stm32f4xx_rcc.c ****   /* Select MCO2 clock source and prescaler */
 956:Lib/StdPeriphs/src/stm32f4xx_rcc.c ****   tmpreg |= RCC_MCO2Source | RCC_MCO2Div;
 585              		.loc 1 956 3 is_stmt 1 view .LVU141
 586              		.loc 1 956 28 is_stmt 0 view .LVU142
 587 0008 0843     		orrs	r0, r0, r1
 588              	.LVL28:
 589              		.loc 1 956 10 view .LVU143
 590 000a 1843     		orrs	r0, r0, r3
 591              	.LVL29:
 957:Lib/StdPeriphs/src/stm32f4xx_rcc.c ****   
 958:Lib/StdPeriphs/src/stm32f4xx_rcc.c ****   /* Store the new value */
 959:Lib/StdPeriphs/src/stm32f4xx_rcc.c ****   RCC->CFGR = tmpreg;
 592              		.loc 1 959 3 is_stmt 1 view .LVU144
 593              		.loc 1 959 13 is_stmt 0 view .LVU145
 594 000c 9060     		str	r0, [r2, #8]
 960:Lib/StdPeriphs/src/stm32f4xx_rcc.c **** 
 961:Lib/StdPeriphs/src/stm32f4xx_rcc.c **** #if defined(STM32F410xx)
 962:Lib/StdPeriphs/src/stm32f4xx_rcc.c ****   RCC_MCO2Cmd(ENABLE);
 963:Lib/StdPeriphs/src/stm32f4xx_rcc.c **** #endif /* STM32F410xx */   
 964:Lib/StdPeriphs/src/stm32f4xx_rcc.c **** }
 595              		.loc 1 964 1 view .LVU146
 596 000e 7047     		bx	lr
 597              	.L48:
 598              		.align	2
 599              	.L47:
 600 0010 00380240 		.word	1073887232
 601              		.cfi_endproc
 602              	.LFE138:
 604              		.section	.text.RCC_SYSCLKConfig,"ax",%progbits
 605              		.align	1
ARM GAS  C:\Users\asus\AppData\Local\Temp\ccEdY3aN.s 			page 28


 606              		.global	RCC_SYSCLKConfig
 607              		.syntax unified
 608              		.thumb
 609              		.thumb_func
 611              	RCC_SYSCLKConfig:
 612              	.LVL30:
 613              	.LFB139:
 965:Lib/StdPeriphs/src/stm32f4xx_rcc.c **** 
 966:Lib/StdPeriphs/src/stm32f4xx_rcc.c **** /**
 967:Lib/StdPeriphs/src/stm32f4xx_rcc.c ****   * @}
 968:Lib/StdPeriphs/src/stm32f4xx_rcc.c ****   */
 969:Lib/StdPeriphs/src/stm32f4xx_rcc.c **** 
 970:Lib/StdPeriphs/src/stm32f4xx_rcc.c **** /** @defgroup RCC_Group2 System AHB and APB busses clocks configuration functions
 971:Lib/StdPeriphs/src/stm32f4xx_rcc.c ****  *  @brief   System, AHB and APB busses clocks configuration functions
 972:Lib/StdPeriphs/src/stm32f4xx_rcc.c ****  *
 973:Lib/StdPeriphs/src/stm32f4xx_rcc.c **** @verbatim   
 974:Lib/StdPeriphs/src/stm32f4xx_rcc.c ****  ===============================================================================
 975:Lib/StdPeriphs/src/stm32f4xx_rcc.c ****       ##### System, AHB and APB busses clocks configuration functions #####
 976:Lib/StdPeriphs/src/stm32f4xx_rcc.c ****  ===============================================================================  
 977:Lib/StdPeriphs/src/stm32f4xx_rcc.c ****     [..]
 978:Lib/StdPeriphs/src/stm32f4xx_rcc.c ****       This section provide functions allowing to configure the System, AHB, APB1 and 
 979:Lib/StdPeriphs/src/stm32f4xx_rcc.c ****       APB2 busses clocks.
 980:Lib/StdPeriphs/src/stm32f4xx_rcc.c ****   
 981:Lib/StdPeriphs/src/stm32f4xx_rcc.c ****       (#) Several clock sources can be used to drive the System clock (SYSCLK): HSI,
 982:Lib/StdPeriphs/src/stm32f4xx_rcc.c ****           HSE and PLL.
 983:Lib/StdPeriphs/src/stm32f4xx_rcc.c ****           The AHB clock (HCLK) is derived from System clock through configurable 
 984:Lib/StdPeriphs/src/stm32f4xx_rcc.c ****           prescaler and used to clock the CPU, memory and peripherals mapped 
 985:Lib/StdPeriphs/src/stm32f4xx_rcc.c ****           on AHB bus (DMA, GPIO...). APB1 (PCLK1) and APB2 (PCLK2) clocks are derived 
 986:Lib/StdPeriphs/src/stm32f4xx_rcc.c ****           from AHB clock through configurable prescalers and used to clock 
 987:Lib/StdPeriphs/src/stm32f4xx_rcc.c ****           the peripherals mapped on these busses. You can use 
 988:Lib/StdPeriphs/src/stm32f4xx_rcc.c ****           "RCC_GetClocksFreq()" function to retrieve the frequencies of these clocks.  
 989:Lib/StdPeriphs/src/stm32f4xx_rcc.c **** 
 990:Lib/StdPeriphs/src/stm32f4xx_rcc.c ****       -@- All the peripheral clocks are derived from the System clock (SYSCLK) except:
 991:Lib/StdPeriphs/src/stm32f4xx_rcc.c ****         (+@) I2S: the I2S clock can be derived either from a specific PLL (PLLI2S) or
 992:Lib/StdPeriphs/src/stm32f4xx_rcc.c ****              from an external clock mapped on the I2S_CKIN pin. 
 993:Lib/StdPeriphs/src/stm32f4xx_rcc.c ****              You have to use RCC_I2SCLKConfig() function to configure this clock. 
 994:Lib/StdPeriphs/src/stm32f4xx_rcc.c ****         (+@) RTC: the RTC clock can be derived either from the LSI, LSE or HSE clock
 995:Lib/StdPeriphs/src/stm32f4xx_rcc.c ****              divided by 2 to 31. You have to use RCC_RTCCLKConfig() and RCC_RTCCLKCmd()
 996:Lib/StdPeriphs/src/stm32f4xx_rcc.c ****              functions to configure this clock. 
 997:Lib/StdPeriphs/src/stm32f4xx_rcc.c ****         (+@) USB OTG FS, SDIO and RTC: USB OTG FS require a frequency equal to 48 MHz
 998:Lib/StdPeriphs/src/stm32f4xx_rcc.c ****              to work correctly, while the SDIO require a frequency equal or lower than
 999:Lib/StdPeriphs/src/stm32f4xx_rcc.c ****              to 48. This clock is derived of the main PLL through PLLQ divider.
1000:Lib/StdPeriphs/src/stm32f4xx_rcc.c ****         (+@) IWDG clock which is always the LSI clock.
1001:Lib/StdPeriphs/src/stm32f4xx_rcc.c ****        
1002:Lib/StdPeriphs/src/stm32f4xx_rcc.c ****       (#) For STM32F405xx/407xx and STM32F415xx/417xx devices, the maximum frequency 
1003:Lib/StdPeriphs/src/stm32f4xx_rcc.c ****          of the SYSCLK and HCLK is 168 MHz, PCLK2 84 MHz and PCLK1 42 MHz. Depending 
1004:Lib/StdPeriphs/src/stm32f4xx_rcc.c ****          on the device voltage range, the maximum frequency should be adapted accordingly:
1005:Lib/StdPeriphs/src/stm32f4xx_rcc.c ****  +-------------------------------------------------------------------------------------+
1006:Lib/StdPeriphs/src/stm32f4xx_rcc.c ****  | Latency       |                HCLK clock frequency (MHz)                           |
1007:Lib/StdPeriphs/src/stm32f4xx_rcc.c ****  |               |---------------------------------------------------------------------|
1008:Lib/StdPeriphs/src/stm32f4xx_rcc.c ****  |               | voltage range  | voltage range  | voltage range   | voltage range   |
1009:Lib/StdPeriphs/src/stm32f4xx_rcc.c ****  |               | 2.7 V - 3.6 V  | 2.4 V - 2.7 V  | 2.1 V - 2.4 V   | 1.8 V - 2.1 V   |
1010:Lib/StdPeriphs/src/stm32f4xx_rcc.c ****  |---------------|----------------|----------------|-----------------|-----------------|
1011:Lib/StdPeriphs/src/stm32f4xx_rcc.c ****  |0WS(1CPU cycle)|0 < HCLK <= 30  |0 < HCLK <= 24  |0 < HCLK <= 22   |0 < HCLK <= 20   |
1012:Lib/StdPeriphs/src/stm32f4xx_rcc.c ****  |---------------|----------------|----------------|-----------------|-----------------|
1013:Lib/StdPeriphs/src/stm32f4xx_rcc.c ****  |1WS(2CPU cycle)|30 < HCLK <= 60 |24 < HCLK <= 48 |22 < HCLK <= 44  |20 < HCLK <= 40  |
1014:Lib/StdPeriphs/src/stm32f4xx_rcc.c ****  |---------------|----------------|----------------|-----------------|-----------------|
ARM GAS  C:\Users\asus\AppData\Local\Temp\ccEdY3aN.s 			page 29


1015:Lib/StdPeriphs/src/stm32f4xx_rcc.c ****  |2WS(3CPU cycle)|60 < HCLK <= 90 |48 < HCLK <= 72 |44 < HCLK <= 66  |40 < HCLK <= 60  |
1016:Lib/StdPeriphs/src/stm32f4xx_rcc.c ****  |---------------|----------------|----------------|-----------------|-----------------|
1017:Lib/StdPeriphs/src/stm32f4xx_rcc.c ****  |3WS(4CPU cycle)|90 < HCLK <= 120|72 < HCLK <= 96 |66 < HCLK <= 88  |60 < HCLK <= 80  |
1018:Lib/StdPeriphs/src/stm32f4xx_rcc.c ****  |---------------|----------------|----------------|-----------------|-----------------|
1019:Lib/StdPeriphs/src/stm32f4xx_rcc.c ****  |4WS(5CPU cycle)|120< HCLK <= 150|96 < HCLK <= 120|88 < HCLK <= 110 |80 < HCLK <= 100 |
1020:Lib/StdPeriphs/src/stm32f4xx_rcc.c ****  |---------------|----------------|----------------|-----------------|-----------------|
1021:Lib/StdPeriphs/src/stm32f4xx_rcc.c ****  |5WS(6CPU cycle)|150< HCLK <= 168|120< HCLK <= 144|110 < HCLK <= 132|100 < HCLK <= 120|
1022:Lib/StdPeriphs/src/stm32f4xx_rcc.c ****  |---------------|----------------|----------------|-----------------|-----------------|
1023:Lib/StdPeriphs/src/stm32f4xx_rcc.c ****  |6WS(7CPU cycle)|      NA        |144< HCLK <= 168|132 < HCLK <= 154|120 < HCLK <= 140|
1024:Lib/StdPeriphs/src/stm32f4xx_rcc.c ****  |---------------|----------------|----------------|-----------------|-----------------|
1025:Lib/StdPeriphs/src/stm32f4xx_rcc.c ****  |7WS(8CPU cycle)|      NA        |      NA        |154 < HCLK <= 168|140 < HCLK <= 160|
1026:Lib/StdPeriphs/src/stm32f4xx_rcc.c ****  +---------------|----------------|----------------|-----------------|-----------------+
1027:Lib/StdPeriphs/src/stm32f4xx_rcc.c ****       (#) For STM32F42xxx/43xxx/469xx/479xx devices, the maximum frequency of the SYSCLK and HCLK i
1028:Lib/StdPeriphs/src/stm32f4xx_rcc.c ****           PCLK2 90 MHz and PCLK1 45 MHz. Depending on the device voltage range, the maximum 
1029:Lib/StdPeriphs/src/stm32f4xx_rcc.c ****           frequency should be adapted accordingly:
1030:Lib/StdPeriphs/src/stm32f4xx_rcc.c ****  +-------------------------------------------------------------------------------------+
1031:Lib/StdPeriphs/src/stm32f4xx_rcc.c ****  | Latency       |                HCLK clock frequency (MHz)                           |
1032:Lib/StdPeriphs/src/stm32f4xx_rcc.c ****  |               |---------------------------------------------------------------------|
1033:Lib/StdPeriphs/src/stm32f4xx_rcc.c ****  |               | voltage range  | voltage range  | voltage range   | voltage range   |
1034:Lib/StdPeriphs/src/stm32f4xx_rcc.c ****  |               | 2.7 V - 3.6 V  | 2.4 V - 2.7 V  | 2.1 V - 2.4 V   | 1.8 V - 2.1 V   |
1035:Lib/StdPeriphs/src/stm32f4xx_rcc.c ****  |---------------|----------------|----------------|-----------------|-----------------|
1036:Lib/StdPeriphs/src/stm32f4xx_rcc.c ****  |0WS(1CPU cycle)|0 < HCLK <= 30  |0 < HCLK <= 24  |0 < HCLK <= 22   |0 < HCLK <= 20   |
1037:Lib/StdPeriphs/src/stm32f4xx_rcc.c ****  |---------------|----------------|----------------|-----------------|-----------------|
1038:Lib/StdPeriphs/src/stm32f4xx_rcc.c ****  |1WS(2CPU cycle)|30 < HCLK <= 60 |24 < HCLK <= 48 |22 < HCLK <= 44  |20 < HCLK <= 40  |
1039:Lib/StdPeriphs/src/stm32f4xx_rcc.c ****  |---------------|----------------|----------------|-----------------|-----------------|
1040:Lib/StdPeriphs/src/stm32f4xx_rcc.c ****  |2WS(3CPU cycle)|60 < HCLK <= 90 |48 < HCLK <= 72 |44 < HCLK <= 66  |40 < HCLK <= 60  |
1041:Lib/StdPeriphs/src/stm32f4xx_rcc.c ****  |---------------|----------------|----------------|-----------------|-----------------|
1042:Lib/StdPeriphs/src/stm32f4xx_rcc.c ****  |3WS(4CPU cycle)|90 < HCLK <= 120|72 < HCLK <= 96 |66 < HCLK <= 88  |60 < HCLK <= 80  |
1043:Lib/StdPeriphs/src/stm32f4xx_rcc.c ****  |---------------|----------------|----------------|-----------------|-----------------|
1044:Lib/StdPeriphs/src/stm32f4xx_rcc.c ****  |4WS(5CPU cycle)|120< HCLK <= 150|96 < HCLK <= 120|88 < HCLK <= 110 |80 < HCLK <= 100 |
1045:Lib/StdPeriphs/src/stm32f4xx_rcc.c ****  |---------------|----------------|----------------|-----------------|-----------------|
1046:Lib/StdPeriphs/src/stm32f4xx_rcc.c ****  |5WS(6CPU cycle)|120< HCLK <= 180|120< HCLK <= 144|110 < HCLK <= 132|100 < HCLK <= 120|
1047:Lib/StdPeriphs/src/stm32f4xx_rcc.c ****  |---------------|----------------|----------------|-----------------|-----------------|
1048:Lib/StdPeriphs/src/stm32f4xx_rcc.c ****  |6WS(7CPU cycle)|      NA        |144< HCLK <= 168|132 < HCLK <= 154|120 < HCLK <= 140|
1049:Lib/StdPeriphs/src/stm32f4xx_rcc.c ****  |---------------|----------------|----------------|-----------------|-----------------|
1050:Lib/StdPeriphs/src/stm32f4xx_rcc.c ****  |7WS(8CPU cycle)|      NA        |168< HCLK <= 180|154 < HCLK <= 176|140 < HCLK <= 160|
1051:Lib/StdPeriphs/src/stm32f4xx_rcc.c ****  |---------------|----------------|----------------|-----------------|-----------------|
1052:Lib/StdPeriphs/src/stm32f4xx_rcc.c ****  |8WS(9CPU cycle)|      NA        |      NA        |176 < HCLK <= 180|160 < HCLK <= 168|
1053:Lib/StdPeriphs/src/stm32f4xx_rcc.c ****  +-------------------------------------------------------------------------------------+
1054:Lib/StdPeriphs/src/stm32f4xx_rcc.c ****    
1055:Lib/StdPeriphs/src/stm32f4xx_rcc.c ****       (#) For STM32F401xx devices, the maximum frequency of the SYSCLK and HCLK is 84 MHz, 
1056:Lib/StdPeriphs/src/stm32f4xx_rcc.c ****           PCLK2 84 MHz and PCLK1 42 MHz. Depending on the device voltage range, the maximum 
1057:Lib/StdPeriphs/src/stm32f4xx_rcc.c ****           frequency should be adapted accordingly:
1058:Lib/StdPeriphs/src/stm32f4xx_rcc.c ****  +-------------------------------------------------------------------------------------+
1059:Lib/StdPeriphs/src/stm32f4xx_rcc.c ****  | Latency       |                HCLK clock frequency (MHz)                           |
1060:Lib/StdPeriphs/src/stm32f4xx_rcc.c ****  |               |---------------------------------------------------------------------|
1061:Lib/StdPeriphs/src/stm32f4xx_rcc.c ****  |               | voltage range  | voltage range  | voltage range   | voltage range   |
1062:Lib/StdPeriphs/src/stm32f4xx_rcc.c ****  |               | 2.7 V - 3.6 V  | 2.4 V - 2.7 V  | 2.1 V - 2.4 V   | 1.8 V - 2.1 V   |
1063:Lib/StdPeriphs/src/stm32f4xx_rcc.c ****  |---------------|----------------|----------------|-----------------|-----------------|
1064:Lib/StdPeriphs/src/stm32f4xx_rcc.c ****  |0WS(1CPU cycle)|0 < HCLK <= 30  |0 < HCLK <= 24  |0 < HCLK <= 22   |0 < HCLK <= 20   |
1065:Lib/StdPeriphs/src/stm32f4xx_rcc.c ****  |---------------|----------------|----------------|-----------------|-----------------|
1066:Lib/StdPeriphs/src/stm32f4xx_rcc.c ****  |1WS(2CPU cycle)|30 < HCLK <= 60 |24 < HCLK <= 48 |22 < HCLK <= 44  |20 < HCLK <= 40  |
1067:Lib/StdPeriphs/src/stm32f4xx_rcc.c ****  |---------------|----------------|----------------|-----------------|-----------------|
1068:Lib/StdPeriphs/src/stm32f4xx_rcc.c ****  |2WS(3CPU cycle)|60 < HCLK <= 84 |48 < HCLK <= 72 |44 < HCLK <= 66  |40 < HCLK <= 60  |
1069:Lib/StdPeriphs/src/stm32f4xx_rcc.c ****  |---------------|----------------|----------------|-----------------|-----------------|
1070:Lib/StdPeriphs/src/stm32f4xx_rcc.c ****  |3WS(4CPU cycle)|      NA        |72 < HCLK <= 84 |66 < HCLK <= 84  |60 < HCLK <= 80  |
1071:Lib/StdPeriphs/src/stm32f4xx_rcc.c ****  |---------------|----------------|----------------|-----------------|-----------------|
ARM GAS  C:\Users\asus\AppData\Local\Temp\ccEdY3aN.s 			page 30


1072:Lib/StdPeriphs/src/stm32f4xx_rcc.c ****  |4WS(5CPU cycle)|      NA        |      NA        |      NA         |80 < HCLK <= 84  |
1073:Lib/StdPeriphs/src/stm32f4xx_rcc.c ****  +-------------------------------------------------------------------------------------+
1074:Lib/StdPeriphs/src/stm32f4xx_rcc.c **** 
1075:Lib/StdPeriphs/src/stm32f4xx_rcc.c ****       (#) For STM32F410xx/STM32F411xE devices, the maximum frequency of the SYSCLK and HCLK is 100 
1076:Lib/StdPeriphs/src/stm32f4xx_rcc.c ****           PCLK2 100 MHz and PCLK1 50 MHz. Depending on the device voltage range, the maximum 
1077:Lib/StdPeriphs/src/stm32f4xx_rcc.c ****           frequency should be adapted accordingly:
1078:Lib/StdPeriphs/src/stm32f4xx_rcc.c ****  +-------------------------------------------------------------------------------------+
1079:Lib/StdPeriphs/src/stm32f4xx_rcc.c ****  | Latency       |                HCLK clock frequency (MHz)                           |
1080:Lib/StdPeriphs/src/stm32f4xx_rcc.c ****  |               |---------------------------------------------------------------------|
1081:Lib/StdPeriphs/src/stm32f4xx_rcc.c ****  |               | voltage range  | voltage range  | voltage range   | voltage range   |
1082:Lib/StdPeriphs/src/stm32f4xx_rcc.c ****  |               | 2.7 V - 3.6 V  | 2.4 V - 2.7 V  | 2.1 V - 2.4 V   | 1.8 V - 2.1 V   |
1083:Lib/StdPeriphs/src/stm32f4xx_rcc.c ****  |---------------|----------------|----------------|-----------------|-----------------|
1084:Lib/StdPeriphs/src/stm32f4xx_rcc.c ****  |0WS(1CPU cycle)|0 < HCLK <= 30  |0 < HCLK <= 24  |0 < HCLK <= 18   |0 < HCLK <= 16   |
1085:Lib/StdPeriphs/src/stm32f4xx_rcc.c ****  |---------------|----------------|----------------|-----------------|-----------------|
1086:Lib/StdPeriphs/src/stm32f4xx_rcc.c ****  |1WS(2CPU cycle)|30 < HCLK <= 64 |24 < HCLK <= 48 |18 < HCLK <= 36  |16 < HCLK <= 32  |
1087:Lib/StdPeriphs/src/stm32f4xx_rcc.c ****  |---------------|----------------|----------------|-----------------|-----------------|
1088:Lib/StdPeriphs/src/stm32f4xx_rcc.c ****  |2WS(3CPU cycle)|64 < HCLK <= 90 |48 < HCLK <= 72 |36 < HCLK <= 54  |32 < HCLK <= 48  |
1089:Lib/StdPeriphs/src/stm32f4xx_rcc.c ****  |---------------|----------------|----------------|-----------------|-----------------|
1090:Lib/StdPeriphs/src/stm32f4xx_rcc.c ****  |3WS(4CPU cycle)|90 < HCLK <= 100|72 < HCLK <= 96 |54 < HCLK <= 72  |48 < HCLK <= 64  |
1091:Lib/StdPeriphs/src/stm32f4xx_rcc.c ****  |---------------|----------------|----------------|-----------------|-----------------|
1092:Lib/StdPeriphs/src/stm32f4xx_rcc.c ****  |4WS(5CPU cycle)|      NA        |96 < HCLK <= 100|72 < HCLK <= 90  |64 < HCLK <= 80  |
1093:Lib/StdPeriphs/src/stm32f4xx_rcc.c ****  |---------------|----------------|----------------|-----------------|-----------------|
1094:Lib/StdPeriphs/src/stm32f4xx_rcc.c ****  |5WS(6CPU cycle)|      NA        |       NA       |90 < HCLK <= 100 |80 < HCLK <= 96  |
1095:Lib/StdPeriphs/src/stm32f4xx_rcc.c ****  |---------------|----------------|----------------|-----------------|-----------------|
1096:Lib/StdPeriphs/src/stm32f4xx_rcc.c ****  |6WS(7CPU cycle)|      NA        |       NA       |        NA       |96 < HCLK <= 100 |
1097:Lib/StdPeriphs/src/stm32f4xx_rcc.c ****  +-------------------------------------------------------------------------------------+
1098:Lib/StdPeriphs/src/stm32f4xx_rcc.c ****   
1099:Lib/StdPeriphs/src/stm32f4xx_rcc.c ****       -@- On STM32F405xx/407xx and STM32F415xx/417xx devices: 
1100:Lib/StdPeriphs/src/stm32f4xx_rcc.c ****            (++) when VOS = '0', the maximum value of fHCLK = 144MHz. 
1101:Lib/StdPeriphs/src/stm32f4xx_rcc.c ****            (++) when VOS = '1', the maximum value of fHCLK = 168MHz. 
1102:Lib/StdPeriphs/src/stm32f4xx_rcc.c ****           [..] 
1103:Lib/StdPeriphs/src/stm32f4xx_rcc.c ****           On STM32F42xxx/43xxx/469xx/479xx devices:
1104:Lib/StdPeriphs/src/stm32f4xx_rcc.c ****            (++) when VOS[1:0] = '0x01', the maximum value of fHCLK is 120MHz.
1105:Lib/StdPeriphs/src/stm32f4xx_rcc.c ****            (++) when VOS[1:0] = '0x10', the maximum value of fHCLK is 144MHz.
1106:Lib/StdPeriphs/src/stm32f4xx_rcc.c ****            (++) when VOS[1:0] = '0x11', the maximum value of f  is 168MHz 
1107:Lib/StdPeriphs/src/stm32f4xx_rcc.c ****           [..]  
1108:Lib/StdPeriphs/src/stm32f4xx_rcc.c ****           On STM32F401x devices:
1109:Lib/StdPeriphs/src/stm32f4xx_rcc.c ****            (++) when VOS[1:0] = '0x01', the maximum value of fHCLK is 64MHz.
1110:Lib/StdPeriphs/src/stm32f4xx_rcc.c ****            (++) when VOS[1:0] = '0x10', the maximum value of fHCLK is 84MHz.
1111:Lib/StdPeriphs/src/stm32f4xx_rcc.c ****           On STM32F410xx/STM32F411xE devices:
1112:Lib/StdPeriphs/src/stm32f4xx_rcc.c ****            (++) when VOS[1:0] = '0x01' the maximum value of fHCLK is 64MHz.
1113:Lib/StdPeriphs/src/stm32f4xx_rcc.c ****            (++) when VOS[1:0] = '0x10' the maximum value of fHCLK is 84MHz.
1114:Lib/StdPeriphs/src/stm32f4xx_rcc.c ****            (++) when VOS[1:0] = '0x11' the maximum value of fHCLK is 100MHz.
1115:Lib/StdPeriphs/src/stm32f4xx_rcc.c **** 
1116:Lib/StdPeriphs/src/stm32f4xx_rcc.c ****        You can use PWR_MainRegulatorModeConfig() function to control VOS bits.
1117:Lib/StdPeriphs/src/stm32f4xx_rcc.c **** 
1118:Lib/StdPeriphs/src/stm32f4xx_rcc.c **** @endverbatim
1119:Lib/StdPeriphs/src/stm32f4xx_rcc.c ****   * @{
1120:Lib/StdPeriphs/src/stm32f4xx_rcc.c ****   */
1121:Lib/StdPeriphs/src/stm32f4xx_rcc.c **** 
1122:Lib/StdPeriphs/src/stm32f4xx_rcc.c **** /**
1123:Lib/StdPeriphs/src/stm32f4xx_rcc.c ****   * @brief  Configures the system clock (SYSCLK).
1124:Lib/StdPeriphs/src/stm32f4xx_rcc.c ****   * @note   The HSI is used (enabled by hardware) as system clock source after
1125:Lib/StdPeriphs/src/stm32f4xx_rcc.c ****   *         startup from Reset, wake-up from STOP and STANDBY mode, or in case
1126:Lib/StdPeriphs/src/stm32f4xx_rcc.c ****   *         of failure of the HSE used directly or indirectly as system clock
1127:Lib/StdPeriphs/src/stm32f4xx_rcc.c ****   *         (if the Clock Security System CSS is enabled).
1128:Lib/StdPeriphs/src/stm32f4xx_rcc.c ****   * @note   A switch from one clock source to another occurs only if the target
ARM GAS  C:\Users\asus\AppData\Local\Temp\ccEdY3aN.s 			page 31


1129:Lib/StdPeriphs/src/stm32f4xx_rcc.c ****   *         clock source is ready (clock stable after startup delay or PLL locked). 
1130:Lib/StdPeriphs/src/stm32f4xx_rcc.c ****   *         If a clock source which is not yet ready is selected, the switch will
1131:Lib/StdPeriphs/src/stm32f4xx_rcc.c ****   *         occur when the clock source will be ready. 
1132:Lib/StdPeriphs/src/stm32f4xx_rcc.c ****   *         You can use RCC_GetSYSCLKSource() function to know which clock is
1133:Lib/StdPeriphs/src/stm32f4xx_rcc.c ****   *         currently used as system clock source. 
1134:Lib/StdPeriphs/src/stm32f4xx_rcc.c ****   * @param  RCC_SYSCLKSource: specifies the clock source used as system clock.
1135:Lib/StdPeriphs/src/stm32f4xx_rcc.c ****   *          This parameter can be one of the following values:
1136:Lib/StdPeriphs/src/stm32f4xx_rcc.c ****   *            @arg RCC_SYSCLKSource_HSI: HSI selected as system clock source
1137:Lib/StdPeriphs/src/stm32f4xx_rcc.c ****   *            @arg RCC_SYSCLKSource_HSE: HSE selected as system clock source
1138:Lib/StdPeriphs/src/stm32f4xx_rcc.c ****   *            @arg RCC_SYSCLKSource_PLLCLK: PLL selected as system clock source (RCC_SYSCLKSource_
1139:Lib/StdPeriphs/src/stm32f4xx_rcc.c ****   *            @arg RCC_SYSCLKSource_PLLRCLK: PLL R selected as system clock source only for STM32F
1140:Lib/StdPeriphs/src/stm32f4xx_rcc.c ****   * @retval None
1141:Lib/StdPeriphs/src/stm32f4xx_rcc.c ****   */
1142:Lib/StdPeriphs/src/stm32f4xx_rcc.c **** void RCC_SYSCLKConfig(uint32_t RCC_SYSCLKSource)
1143:Lib/StdPeriphs/src/stm32f4xx_rcc.c **** {
 614              		.loc 1 1143 1 is_stmt 1 view -0
 615              		.cfi_startproc
 616              		@ args = 0, pretend = 0, frame = 0
 617              		@ frame_needed = 0, uses_anonymous_args = 0
 618              		@ link register save eliminated.
1144:Lib/StdPeriphs/src/stm32f4xx_rcc.c ****   uint32_t tmpreg = 0;
 619              		.loc 1 1144 3 view .LVU148
1145:Lib/StdPeriphs/src/stm32f4xx_rcc.c **** 
1146:Lib/StdPeriphs/src/stm32f4xx_rcc.c ****   /* Check the parameters */
1147:Lib/StdPeriphs/src/stm32f4xx_rcc.c ****   assert_param(IS_RCC_SYSCLK_SOURCE(RCC_SYSCLKSource));
 620              		.loc 1 1147 3 view .LVU149
1148:Lib/StdPeriphs/src/stm32f4xx_rcc.c **** 
1149:Lib/StdPeriphs/src/stm32f4xx_rcc.c ****   tmpreg = RCC->CFGR;
 621              		.loc 1 1149 3 view .LVU150
 622              		.loc 1 1149 10 is_stmt 0 view .LVU151
 623 0000 034A     		ldr	r2, .L50
 624 0002 9368     		ldr	r3, [r2, #8]
 625              	.LVL31:
1150:Lib/StdPeriphs/src/stm32f4xx_rcc.c **** 
1151:Lib/StdPeriphs/src/stm32f4xx_rcc.c ****   /* Clear SW[1:0] bits */
1152:Lib/StdPeriphs/src/stm32f4xx_rcc.c ****   tmpreg &= ~RCC_CFGR_SW;
 626              		.loc 1 1152 3 is_stmt 1 view .LVU152
 627              		.loc 1 1152 10 is_stmt 0 view .LVU153
 628 0004 23F00303 		bic	r3, r3, #3
 629              	.LVL32:
1153:Lib/StdPeriphs/src/stm32f4xx_rcc.c **** 
1154:Lib/StdPeriphs/src/stm32f4xx_rcc.c ****   /* Set SW[1:0] bits according to RCC_SYSCLKSource value */
1155:Lib/StdPeriphs/src/stm32f4xx_rcc.c ****   tmpreg |= RCC_SYSCLKSource;
 630              		.loc 1 1155 3 is_stmt 1 view .LVU154
 631              		.loc 1 1155 10 is_stmt 0 view .LVU155
 632 0008 0343     		orrs	r3, r3, r0
 633              	.LVL33:
1156:Lib/StdPeriphs/src/stm32f4xx_rcc.c **** 
1157:Lib/StdPeriphs/src/stm32f4xx_rcc.c ****   /* Store the new value */
1158:Lib/StdPeriphs/src/stm32f4xx_rcc.c ****   RCC->CFGR = tmpreg;
 634              		.loc 1 1158 3 is_stmt 1 view .LVU156
 635              		.loc 1 1158 13 is_stmt 0 view .LVU157
 636 000a 9360     		str	r3, [r2, #8]
1159:Lib/StdPeriphs/src/stm32f4xx_rcc.c **** }
 637              		.loc 1 1159 1 view .LVU158
 638 000c 7047     		bx	lr
 639              	.L51:
ARM GAS  C:\Users\asus\AppData\Local\Temp\ccEdY3aN.s 			page 32


 640 000e 00BF     		.align	2
 641              	.L50:
 642 0010 00380240 		.word	1073887232
 643              		.cfi_endproc
 644              	.LFE139:
 646              		.section	.text.RCC_GetSYSCLKSource,"ax",%progbits
 647              		.align	1
 648              		.global	RCC_GetSYSCLKSource
 649              		.syntax unified
 650              		.thumb
 651              		.thumb_func
 653              	RCC_GetSYSCLKSource:
 654              	.LFB140:
1160:Lib/StdPeriphs/src/stm32f4xx_rcc.c **** 
1161:Lib/StdPeriphs/src/stm32f4xx_rcc.c **** /**
1162:Lib/StdPeriphs/src/stm32f4xx_rcc.c ****   * @brief  Returns the clock source used as system clock.
1163:Lib/StdPeriphs/src/stm32f4xx_rcc.c ****   * @param  None
1164:Lib/StdPeriphs/src/stm32f4xx_rcc.c ****   * @retval The clock source used as system clock. The returned value can be one
1165:Lib/StdPeriphs/src/stm32f4xx_rcc.c ****   *         of the following:
1166:Lib/StdPeriphs/src/stm32f4xx_rcc.c ****   *              - 0x00: HSI used as system clock
1167:Lib/StdPeriphs/src/stm32f4xx_rcc.c ****   *              - 0x04: HSE used as system clock
1168:Lib/StdPeriphs/src/stm32f4xx_rcc.c ****   *              - 0x08: PLL used as system clock (PLL P for STM32F446xx devices)
1169:Lib/StdPeriphs/src/stm32f4xx_rcc.c ****   *              - 0x0C: PLL R used as system clock (only for STM32F412xG, STM32F413_423xx and STM3
1170:Lib/StdPeriphs/src/stm32f4xx_rcc.c ****   */
1171:Lib/StdPeriphs/src/stm32f4xx_rcc.c **** uint8_t RCC_GetSYSCLKSource(void)
1172:Lib/StdPeriphs/src/stm32f4xx_rcc.c **** {
 655              		.loc 1 1172 1 is_stmt 1 view -0
 656              		.cfi_startproc
 657              		@ args = 0, pretend = 0, frame = 0
 658              		@ frame_needed = 0, uses_anonymous_args = 0
 659              		@ link register save eliminated.
1173:Lib/StdPeriphs/src/stm32f4xx_rcc.c ****   return ((uint8_t)(RCC->CFGR & RCC_CFGR_SWS));
 660              		.loc 1 1173 3 view .LVU160
 661              		.loc 1 1173 24 is_stmt 0 view .LVU161
 662 0000 024B     		ldr	r3, .L53
 663 0002 9868     		ldr	r0, [r3, #8]
1174:Lib/StdPeriphs/src/stm32f4xx_rcc.c **** }
 664              		.loc 1 1174 1 view .LVU162
 665 0004 00F00C00 		and	r0, r0, #12
 666 0008 7047     		bx	lr
 667              	.L54:
 668 000a 00BF     		.align	2
 669              	.L53:
 670 000c 00380240 		.word	1073887232
 671              		.cfi_endproc
 672              	.LFE140:
 674              		.section	.text.RCC_HCLKConfig,"ax",%progbits
 675              		.align	1
 676              		.global	RCC_HCLKConfig
 677              		.syntax unified
 678              		.thumb
 679              		.thumb_func
 681              	RCC_HCLKConfig:
 682              	.LVL34:
 683              	.LFB141:
1175:Lib/StdPeriphs/src/stm32f4xx_rcc.c **** 
1176:Lib/StdPeriphs/src/stm32f4xx_rcc.c **** /**
ARM GAS  C:\Users\asus\AppData\Local\Temp\ccEdY3aN.s 			page 33


1177:Lib/StdPeriphs/src/stm32f4xx_rcc.c ****   * @brief  Configures the AHB clock (HCLK).
1178:Lib/StdPeriphs/src/stm32f4xx_rcc.c ****   * @note   Depending on the device voltage range, the software has to set correctly
1179:Lib/StdPeriphs/src/stm32f4xx_rcc.c ****   *         these bits to ensure that HCLK not exceed the maximum allowed frequency
1180:Lib/StdPeriphs/src/stm32f4xx_rcc.c ****   *         (for more details refer to section above
1181:Lib/StdPeriphs/src/stm32f4xx_rcc.c ****   *           "CPU, AHB and APB busses clocks configuration functions")
1182:Lib/StdPeriphs/src/stm32f4xx_rcc.c ****   * @param  RCC_SYSCLK: defines the AHB clock divider. This clock is derived from 
1183:Lib/StdPeriphs/src/stm32f4xx_rcc.c ****   *         the system clock (SYSCLK).
1184:Lib/StdPeriphs/src/stm32f4xx_rcc.c ****   *          This parameter can be one of the following values:
1185:Lib/StdPeriphs/src/stm32f4xx_rcc.c ****   *            @arg RCC_SYSCLK_Div1: AHB clock = SYSCLK
1186:Lib/StdPeriphs/src/stm32f4xx_rcc.c ****   *            @arg RCC_SYSCLK_Div2: AHB clock = SYSCLK/2
1187:Lib/StdPeriphs/src/stm32f4xx_rcc.c ****   *            @arg RCC_SYSCLK_Div4: AHB clock = SYSCLK/4
1188:Lib/StdPeriphs/src/stm32f4xx_rcc.c ****   *            @arg RCC_SYSCLK_Div8: AHB clock = SYSCLK/8
1189:Lib/StdPeriphs/src/stm32f4xx_rcc.c ****   *            @arg RCC_SYSCLK_Div16: AHB clock = SYSCLK/16
1190:Lib/StdPeriphs/src/stm32f4xx_rcc.c ****   *            @arg RCC_SYSCLK_Div64: AHB clock = SYSCLK/64
1191:Lib/StdPeriphs/src/stm32f4xx_rcc.c ****   *            @arg RCC_SYSCLK_Div128: AHB clock = SYSCLK/128
1192:Lib/StdPeriphs/src/stm32f4xx_rcc.c ****   *            @arg RCC_SYSCLK_Div256: AHB clock = SYSCLK/256
1193:Lib/StdPeriphs/src/stm32f4xx_rcc.c ****   *            @arg RCC_SYSCLK_Div512: AHB clock = SYSCLK/512
1194:Lib/StdPeriphs/src/stm32f4xx_rcc.c ****   * @retval None
1195:Lib/StdPeriphs/src/stm32f4xx_rcc.c ****   */
1196:Lib/StdPeriphs/src/stm32f4xx_rcc.c **** void RCC_HCLKConfig(uint32_t RCC_SYSCLK)
1197:Lib/StdPeriphs/src/stm32f4xx_rcc.c **** {
 684              		.loc 1 1197 1 is_stmt 1 view -0
 685              		.cfi_startproc
 686              		@ args = 0, pretend = 0, frame = 0
 687              		@ frame_needed = 0, uses_anonymous_args = 0
 688              		@ link register save eliminated.
1198:Lib/StdPeriphs/src/stm32f4xx_rcc.c ****   uint32_t tmpreg = 0;
 689              		.loc 1 1198 3 view .LVU164
1199:Lib/StdPeriphs/src/stm32f4xx_rcc.c ****   
1200:Lib/StdPeriphs/src/stm32f4xx_rcc.c ****   /* Check the parameters */
1201:Lib/StdPeriphs/src/stm32f4xx_rcc.c ****   assert_param(IS_RCC_HCLK(RCC_SYSCLK));
 690              		.loc 1 1201 3 view .LVU165
1202:Lib/StdPeriphs/src/stm32f4xx_rcc.c **** 
1203:Lib/StdPeriphs/src/stm32f4xx_rcc.c ****   tmpreg = RCC->CFGR;
 691              		.loc 1 1203 3 view .LVU166
 692              		.loc 1 1203 10 is_stmt 0 view .LVU167
 693 0000 034A     		ldr	r2, .L56
 694 0002 9368     		ldr	r3, [r2, #8]
 695              	.LVL35:
1204:Lib/StdPeriphs/src/stm32f4xx_rcc.c **** 
1205:Lib/StdPeriphs/src/stm32f4xx_rcc.c ****   /* Clear HPRE[3:0] bits */
1206:Lib/StdPeriphs/src/stm32f4xx_rcc.c ****   tmpreg &= ~RCC_CFGR_HPRE;
 696              		.loc 1 1206 3 is_stmt 1 view .LVU168
 697              		.loc 1 1206 10 is_stmt 0 view .LVU169
 698 0004 23F0F003 		bic	r3, r3, #240
 699              	.LVL36:
1207:Lib/StdPeriphs/src/stm32f4xx_rcc.c **** 
1208:Lib/StdPeriphs/src/stm32f4xx_rcc.c ****   /* Set HPRE[3:0] bits according to RCC_SYSCLK value */
1209:Lib/StdPeriphs/src/stm32f4xx_rcc.c ****   tmpreg |= RCC_SYSCLK;
 700              		.loc 1 1209 3 is_stmt 1 view .LVU170
 701              		.loc 1 1209 10 is_stmt 0 view .LVU171
 702 0008 0343     		orrs	r3, r3, r0
 703              	.LVL37:
1210:Lib/StdPeriphs/src/stm32f4xx_rcc.c **** 
1211:Lib/StdPeriphs/src/stm32f4xx_rcc.c ****   /* Store the new value */
1212:Lib/StdPeriphs/src/stm32f4xx_rcc.c ****   RCC->CFGR = tmpreg;
 704              		.loc 1 1212 3 is_stmt 1 view .LVU172
ARM GAS  C:\Users\asus\AppData\Local\Temp\ccEdY3aN.s 			page 34


 705              		.loc 1 1212 13 is_stmt 0 view .LVU173
 706 000a 9360     		str	r3, [r2, #8]
1213:Lib/StdPeriphs/src/stm32f4xx_rcc.c **** }
 707              		.loc 1 1213 1 view .LVU174
 708 000c 7047     		bx	lr
 709              	.L57:
 710 000e 00BF     		.align	2
 711              	.L56:
 712 0010 00380240 		.word	1073887232
 713              		.cfi_endproc
 714              	.LFE141:
 716              		.section	.text.RCC_PCLK1Config,"ax",%progbits
 717              		.align	1
 718              		.global	RCC_PCLK1Config
 719              		.syntax unified
 720              		.thumb
 721              		.thumb_func
 723              	RCC_PCLK1Config:
 724              	.LVL38:
 725              	.LFB142:
1214:Lib/StdPeriphs/src/stm32f4xx_rcc.c **** 
1215:Lib/StdPeriphs/src/stm32f4xx_rcc.c **** /**
1216:Lib/StdPeriphs/src/stm32f4xx_rcc.c ****   * @brief  Configures the Low Speed APB clock (PCLK1).
1217:Lib/StdPeriphs/src/stm32f4xx_rcc.c ****   * @param  RCC_HCLK: defines the APB1 clock divider. This clock is derived from 
1218:Lib/StdPeriphs/src/stm32f4xx_rcc.c ****   *         the AHB clock (HCLK).
1219:Lib/StdPeriphs/src/stm32f4xx_rcc.c ****   *          This parameter can be one of the following values:
1220:Lib/StdPeriphs/src/stm32f4xx_rcc.c ****   *            @arg RCC_HCLK_Div1:  APB1 clock = HCLK
1221:Lib/StdPeriphs/src/stm32f4xx_rcc.c ****   *            @arg RCC_HCLK_Div2:  APB1 clock = HCLK/2
1222:Lib/StdPeriphs/src/stm32f4xx_rcc.c ****   *            @arg RCC_HCLK_Div4:  APB1 clock = HCLK/4
1223:Lib/StdPeriphs/src/stm32f4xx_rcc.c ****   *            @arg RCC_HCLK_Div8:  APB1 clock = HCLK/8
1224:Lib/StdPeriphs/src/stm32f4xx_rcc.c ****   *            @arg RCC_HCLK_Div16: APB1 clock = HCLK/16
1225:Lib/StdPeriphs/src/stm32f4xx_rcc.c ****   * @retval None
1226:Lib/StdPeriphs/src/stm32f4xx_rcc.c ****   */
1227:Lib/StdPeriphs/src/stm32f4xx_rcc.c **** void RCC_PCLK1Config(uint32_t RCC_HCLK)
1228:Lib/StdPeriphs/src/stm32f4xx_rcc.c **** {
 726              		.loc 1 1228 1 is_stmt 1 view -0
 727              		.cfi_startproc
 728              		@ args = 0, pretend = 0, frame = 0
 729              		@ frame_needed = 0, uses_anonymous_args = 0
 730              		@ link register save eliminated.
1229:Lib/StdPeriphs/src/stm32f4xx_rcc.c ****   uint32_t tmpreg = 0;
 731              		.loc 1 1229 3 view .LVU176
1230:Lib/StdPeriphs/src/stm32f4xx_rcc.c **** 
1231:Lib/StdPeriphs/src/stm32f4xx_rcc.c ****   /* Check the parameters */
1232:Lib/StdPeriphs/src/stm32f4xx_rcc.c ****   assert_param(IS_RCC_PCLK(RCC_HCLK));
 732              		.loc 1 1232 3 view .LVU177
1233:Lib/StdPeriphs/src/stm32f4xx_rcc.c **** 
1234:Lib/StdPeriphs/src/stm32f4xx_rcc.c ****   tmpreg = RCC->CFGR;
 733              		.loc 1 1234 3 view .LVU178
 734              		.loc 1 1234 10 is_stmt 0 view .LVU179
 735 0000 034A     		ldr	r2, .L59
 736 0002 9368     		ldr	r3, [r2, #8]
 737              	.LVL39:
1235:Lib/StdPeriphs/src/stm32f4xx_rcc.c **** 
1236:Lib/StdPeriphs/src/stm32f4xx_rcc.c ****   /* Clear PPRE1[2:0] bits */
1237:Lib/StdPeriphs/src/stm32f4xx_rcc.c ****   tmpreg &= ~RCC_CFGR_PPRE1;
 738              		.loc 1 1237 3 is_stmt 1 view .LVU180
ARM GAS  C:\Users\asus\AppData\Local\Temp\ccEdY3aN.s 			page 35


 739              		.loc 1 1237 10 is_stmt 0 view .LVU181
 740 0004 23F4E053 		bic	r3, r3, #7168
 741              	.LVL40:
1238:Lib/StdPeriphs/src/stm32f4xx_rcc.c **** 
1239:Lib/StdPeriphs/src/stm32f4xx_rcc.c ****   /* Set PPRE1[2:0] bits according to RCC_HCLK value */
1240:Lib/StdPeriphs/src/stm32f4xx_rcc.c ****   tmpreg |= RCC_HCLK;
 742              		.loc 1 1240 3 is_stmt 1 view .LVU182
 743              		.loc 1 1240 10 is_stmt 0 view .LVU183
 744 0008 0343     		orrs	r3, r3, r0
 745              	.LVL41:
1241:Lib/StdPeriphs/src/stm32f4xx_rcc.c **** 
1242:Lib/StdPeriphs/src/stm32f4xx_rcc.c ****   /* Store the new value */
1243:Lib/StdPeriphs/src/stm32f4xx_rcc.c ****   RCC->CFGR = tmpreg;
 746              		.loc 1 1243 3 is_stmt 1 view .LVU184
 747              		.loc 1 1243 13 is_stmt 0 view .LVU185
 748 000a 9360     		str	r3, [r2, #8]
1244:Lib/StdPeriphs/src/stm32f4xx_rcc.c **** }
 749              		.loc 1 1244 1 view .LVU186
 750 000c 7047     		bx	lr
 751              	.L60:
 752 000e 00BF     		.align	2
 753              	.L59:
 754 0010 00380240 		.word	1073887232
 755              		.cfi_endproc
 756              	.LFE142:
 758              		.section	.text.RCC_PCLK2Config,"ax",%progbits
 759              		.align	1
 760              		.global	RCC_PCLK2Config
 761              		.syntax unified
 762              		.thumb
 763              		.thumb_func
 765              	RCC_PCLK2Config:
 766              	.LVL42:
 767              	.LFB143:
1245:Lib/StdPeriphs/src/stm32f4xx_rcc.c **** 
1246:Lib/StdPeriphs/src/stm32f4xx_rcc.c **** /**
1247:Lib/StdPeriphs/src/stm32f4xx_rcc.c ****   * @brief  Configures the High Speed APB clock (PCLK2).
1248:Lib/StdPeriphs/src/stm32f4xx_rcc.c ****   * @param  RCC_HCLK: defines the APB2 clock divider. This clock is derived from 
1249:Lib/StdPeriphs/src/stm32f4xx_rcc.c ****   *         the AHB clock (HCLK).
1250:Lib/StdPeriphs/src/stm32f4xx_rcc.c ****   *          This parameter can be one of the following values:
1251:Lib/StdPeriphs/src/stm32f4xx_rcc.c ****   *            @arg RCC_HCLK_Div1:  APB2 clock = HCLK
1252:Lib/StdPeriphs/src/stm32f4xx_rcc.c ****   *            @arg RCC_HCLK_Div2:  APB2 clock = HCLK/2
1253:Lib/StdPeriphs/src/stm32f4xx_rcc.c ****   *            @arg RCC_HCLK_Div4:  APB2 clock = HCLK/4
1254:Lib/StdPeriphs/src/stm32f4xx_rcc.c ****   *            @arg RCC_HCLK_Div8:  APB2 clock = HCLK/8
1255:Lib/StdPeriphs/src/stm32f4xx_rcc.c ****   *            @arg RCC_HCLK_Div16: APB2 clock = HCLK/16
1256:Lib/StdPeriphs/src/stm32f4xx_rcc.c ****   * @retval None
1257:Lib/StdPeriphs/src/stm32f4xx_rcc.c ****   */
1258:Lib/StdPeriphs/src/stm32f4xx_rcc.c **** void RCC_PCLK2Config(uint32_t RCC_HCLK)
1259:Lib/StdPeriphs/src/stm32f4xx_rcc.c **** {
 768              		.loc 1 1259 1 is_stmt 1 view -0
 769              		.cfi_startproc
 770              		@ args = 0, pretend = 0, frame = 0
 771              		@ frame_needed = 0, uses_anonymous_args = 0
 772              		@ link register save eliminated.
1260:Lib/StdPeriphs/src/stm32f4xx_rcc.c ****   uint32_t tmpreg = 0;
 773              		.loc 1 1260 3 view .LVU188
1261:Lib/StdPeriphs/src/stm32f4xx_rcc.c **** 
ARM GAS  C:\Users\asus\AppData\Local\Temp\ccEdY3aN.s 			page 36


1262:Lib/StdPeriphs/src/stm32f4xx_rcc.c ****   /* Check the parameters */
1263:Lib/StdPeriphs/src/stm32f4xx_rcc.c ****   assert_param(IS_RCC_PCLK(RCC_HCLK));
 774              		.loc 1 1263 3 view .LVU189
1264:Lib/StdPeriphs/src/stm32f4xx_rcc.c **** 
1265:Lib/StdPeriphs/src/stm32f4xx_rcc.c ****   tmpreg = RCC->CFGR;
 775              		.loc 1 1265 3 view .LVU190
 776              		.loc 1 1265 10 is_stmt 0 view .LVU191
 777 0000 034A     		ldr	r2, .L62
 778 0002 9368     		ldr	r3, [r2, #8]
 779              	.LVL43:
1266:Lib/StdPeriphs/src/stm32f4xx_rcc.c **** 
1267:Lib/StdPeriphs/src/stm32f4xx_rcc.c ****   /* Clear PPRE2[2:0] bits */
1268:Lib/StdPeriphs/src/stm32f4xx_rcc.c ****   tmpreg &= ~RCC_CFGR_PPRE2;
 780              		.loc 1 1268 3 is_stmt 1 view .LVU192
 781              		.loc 1 1268 10 is_stmt 0 view .LVU193
 782 0004 23F46043 		bic	r3, r3, #57344
 783              	.LVL44:
1269:Lib/StdPeriphs/src/stm32f4xx_rcc.c **** 
1270:Lib/StdPeriphs/src/stm32f4xx_rcc.c ****   /* Set PPRE2[2:0] bits according to RCC_HCLK value */
1271:Lib/StdPeriphs/src/stm32f4xx_rcc.c ****   tmpreg |= RCC_HCLK << 3;
 784              		.loc 1 1271 3 is_stmt 1 view .LVU194
 785              		.loc 1 1271 10 is_stmt 0 view .LVU195
 786 0008 43EAC003 		orr	r3, r3, r0, lsl #3
 787              	.LVL45:
1272:Lib/StdPeriphs/src/stm32f4xx_rcc.c **** 
1273:Lib/StdPeriphs/src/stm32f4xx_rcc.c ****   /* Store the new value */
1274:Lib/StdPeriphs/src/stm32f4xx_rcc.c ****   RCC->CFGR = tmpreg;
 788              		.loc 1 1274 3 is_stmt 1 view .LVU196
 789              		.loc 1 1274 13 is_stmt 0 view .LVU197
 790 000c 9360     		str	r3, [r2, #8]
1275:Lib/StdPeriphs/src/stm32f4xx_rcc.c **** }
 791              		.loc 1 1275 1 view .LVU198
 792 000e 7047     		bx	lr
 793              	.L63:
 794              		.align	2
 795              	.L62:
 796 0010 00380240 		.word	1073887232
 797              		.cfi_endproc
 798              	.LFE143:
 800              		.section	.text.RCC_GetClocksFreq,"ax",%progbits
 801              		.align	1
 802              		.global	RCC_GetClocksFreq
 803              		.syntax unified
 804              		.thumb
 805              		.thumb_func
 807              	RCC_GetClocksFreq:
 808              	.LVL46:
 809              	.LFB144:
1276:Lib/StdPeriphs/src/stm32f4xx_rcc.c **** 
1277:Lib/StdPeriphs/src/stm32f4xx_rcc.c **** /**
1278:Lib/StdPeriphs/src/stm32f4xx_rcc.c ****   * @brief  Returns the frequencies of different on chip clocks; SYSCLK, HCLK, 
1279:Lib/StdPeriphs/src/stm32f4xx_rcc.c ****   *         PCLK1 and PCLK2.
1280:Lib/StdPeriphs/src/stm32f4xx_rcc.c ****   * 
1281:Lib/StdPeriphs/src/stm32f4xx_rcc.c ****   * @note   The system frequency computed by this function is not the real 
1282:Lib/StdPeriphs/src/stm32f4xx_rcc.c ****   *         frequency in the chip. It is calculated based on the predefined 
1283:Lib/StdPeriphs/src/stm32f4xx_rcc.c ****   *         constant and the selected clock source:
1284:Lib/StdPeriphs/src/stm32f4xx_rcc.c ****   * @note     If SYSCLK source is HSI, function returns values based on HSI_VALUE(*)
ARM GAS  C:\Users\asus\AppData\Local\Temp\ccEdY3aN.s 			page 37


1285:Lib/StdPeriphs/src/stm32f4xx_rcc.c ****   * @note     If SYSCLK source is HSE, function returns values based on HSE_VALUE(**)
1286:Lib/StdPeriphs/src/stm32f4xx_rcc.c ****   * @note     If SYSCLK source is PLL, function returns values based on HSE_VALUE(**) 
1287:Lib/StdPeriphs/src/stm32f4xx_rcc.c ****   *           or HSI_VALUE(*) multiplied/divided by the PLL factors.         
1288:Lib/StdPeriphs/src/stm32f4xx_rcc.c ****   * @note     (*) HSI_VALUE is a constant defined in stm32f4xx.h file (default value
1289:Lib/StdPeriphs/src/stm32f4xx_rcc.c ****   *               16 MHz) but the real value may vary depending on the variations
1290:Lib/StdPeriphs/src/stm32f4xx_rcc.c ****   *               in voltage and temperature.
1291:Lib/StdPeriphs/src/stm32f4xx_rcc.c ****   * @note     (**) HSE_VALUE is a constant defined in stm32f4xx.h file (default value
1292:Lib/StdPeriphs/src/stm32f4xx_rcc.c ****   *                25 MHz), user has to ensure that HSE_VALUE is same as the real
1293:Lib/StdPeriphs/src/stm32f4xx_rcc.c ****   *                frequency of the crystal used. Otherwise, this function may
1294:Lib/StdPeriphs/src/stm32f4xx_rcc.c ****   *                have wrong result.
1295:Lib/StdPeriphs/src/stm32f4xx_rcc.c ****   *                
1296:Lib/StdPeriphs/src/stm32f4xx_rcc.c ****   * @note   The result of this function could be not correct when using fractional
1297:Lib/StdPeriphs/src/stm32f4xx_rcc.c ****   *         value for HSE crystal.
1298:Lib/StdPeriphs/src/stm32f4xx_rcc.c ****   *   
1299:Lib/StdPeriphs/src/stm32f4xx_rcc.c ****   * @param  RCC_Clocks: pointer to a RCC_ClocksTypeDef structure which will hold
1300:Lib/StdPeriphs/src/stm32f4xx_rcc.c ****   *          the clocks frequencies.
1301:Lib/StdPeriphs/src/stm32f4xx_rcc.c ****   *     
1302:Lib/StdPeriphs/src/stm32f4xx_rcc.c ****   * @note   This function can be used by the user application to compute the 
1303:Lib/StdPeriphs/src/stm32f4xx_rcc.c ****   *         baudrate for the communication peripherals or configure other parameters.
1304:Lib/StdPeriphs/src/stm32f4xx_rcc.c ****   * @note   Each time SYSCLK, HCLK, PCLK1 and/or PCLK2 clock changes, this function
1305:Lib/StdPeriphs/src/stm32f4xx_rcc.c ****   *         must be called to update the structure's field. Otherwise, any
1306:Lib/StdPeriphs/src/stm32f4xx_rcc.c ****   *         configuration based on this function will be incorrect.
1307:Lib/StdPeriphs/src/stm32f4xx_rcc.c ****   *    
1308:Lib/StdPeriphs/src/stm32f4xx_rcc.c ****   * @retval None
1309:Lib/StdPeriphs/src/stm32f4xx_rcc.c ****   */
1310:Lib/StdPeriphs/src/stm32f4xx_rcc.c **** void RCC_GetClocksFreq(RCC_ClocksTypeDef* RCC_Clocks)
1311:Lib/StdPeriphs/src/stm32f4xx_rcc.c **** {
 810              		.loc 1 1311 1 is_stmt 1 view -0
 811              		.cfi_startproc
 812              		@ args = 0, pretend = 0, frame = 0
 813              		@ frame_needed = 0, uses_anonymous_args = 0
 814              		@ link register save eliminated.
 815              		.loc 1 1311 1 is_stmt 0 view .LVU200
 816 0000 10B4     		push	{r4}
 817              	.LCFI0:
 818              		.cfi_def_cfa_offset 4
 819              		.cfi_offset 4, -4
1312:Lib/StdPeriphs/src/stm32f4xx_rcc.c ****   uint32_t tmp = 0, presc = 0, pllvco = 0, pllp = 2, pllsource = 0, pllm = 2;
 820              		.loc 1 1312 3 is_stmt 1 view .LVU201
 821              	.LVL47:
1313:Lib/StdPeriphs/src/stm32f4xx_rcc.c **** #if defined(STM32F412xG) || defined(STM32F413_423xx) || defined(STM32F446xx)  
1314:Lib/StdPeriphs/src/stm32f4xx_rcc.c ****   uint32_t pllr = 2;
1315:Lib/StdPeriphs/src/stm32f4xx_rcc.c **** #endif /* STM32F412xG || STM32F413_423xx || STM32F446xx */
1316:Lib/StdPeriphs/src/stm32f4xx_rcc.c ****   
1317:Lib/StdPeriphs/src/stm32f4xx_rcc.c ****   /* Get SYSCLK source -------------------------------------------------------*/
1318:Lib/StdPeriphs/src/stm32f4xx_rcc.c ****   tmp = RCC->CFGR & RCC_CFGR_SWS;
 822              		.loc 1 1318 3 view .LVU202
 823              		.loc 1 1318 12 is_stmt 0 view .LVU203
 824 0002 294B     		ldr	r3, .L72
 825 0004 9B68     		ldr	r3, [r3, #8]
 826              		.loc 1 1318 7 view .LVU204
 827 0006 03F00C03 		and	r3, r3, #12
 828              	.LVL48:
1319:Lib/StdPeriphs/src/stm32f4xx_rcc.c ****   
1320:Lib/StdPeriphs/src/stm32f4xx_rcc.c ****   switch (tmp)
 829              		.loc 1 1320 3 is_stmt 1 view .LVU205
 830 000a 042B     		cmp	r3, #4
ARM GAS  C:\Users\asus\AppData\Local\Temp\ccEdY3aN.s 			page 38


 831 000c 21D0     		beq	.L65
 832 000e 082B     		cmp	r3, #8
 833 0010 22D0     		beq	.L66
 834 0012 002B     		cmp	r3, #0
 835 0014 45D1     		bne	.L67
1321:Lib/StdPeriphs/src/stm32f4xx_rcc.c ****   {
1322:Lib/StdPeriphs/src/stm32f4xx_rcc.c ****   case 0x00:  /* HSI used as system clock source */
1323:Lib/StdPeriphs/src/stm32f4xx_rcc.c ****     RCC_Clocks->SYSCLK_Frequency = HSI_VALUE;
 836              		.loc 1 1323 5 view .LVU206
 837              		.loc 1 1323 34 is_stmt 0 view .LVU207
 838 0016 254B     		ldr	r3, .L72+4
 839              	.LVL49:
 840              		.loc 1 1323 34 view .LVU208
 841 0018 0360     		str	r3, [r0]
1324:Lib/StdPeriphs/src/stm32f4xx_rcc.c ****     break;
 842              		.loc 1 1324 5 is_stmt 1 view .LVU209
 843              	.LVL50:
 844              	.L68:
1325:Lib/StdPeriphs/src/stm32f4xx_rcc.c ****   case 0x04:  /* HSE used as system clock  source */
1326:Lib/StdPeriphs/src/stm32f4xx_rcc.c ****     RCC_Clocks->SYSCLK_Frequency = HSE_VALUE;
1327:Lib/StdPeriphs/src/stm32f4xx_rcc.c ****     break;
1328:Lib/StdPeriphs/src/stm32f4xx_rcc.c ****   case 0x08:  /* PLL P used as system clock  source */
1329:Lib/StdPeriphs/src/stm32f4xx_rcc.c ****     
1330:Lib/StdPeriphs/src/stm32f4xx_rcc.c ****     /* PLL_VCO = (HSE_VALUE or HSI_VALUE / PLLM) * PLLN
1331:Lib/StdPeriphs/src/stm32f4xx_rcc.c ****     SYSCLK = PLL_VCO / PLLP
1332:Lib/StdPeriphs/src/stm32f4xx_rcc.c ****     */    
1333:Lib/StdPeriphs/src/stm32f4xx_rcc.c ****     pllsource = (RCC->PLLCFGR & RCC_PLLCFGR_PLLSRC) >> 22;
1334:Lib/StdPeriphs/src/stm32f4xx_rcc.c ****     pllm = RCC->PLLCFGR & RCC_PLLCFGR_PLLM;
1335:Lib/StdPeriphs/src/stm32f4xx_rcc.c ****     
1336:Lib/StdPeriphs/src/stm32f4xx_rcc.c ****     if (pllsource != 0)
1337:Lib/StdPeriphs/src/stm32f4xx_rcc.c ****     {
1338:Lib/StdPeriphs/src/stm32f4xx_rcc.c ****       /* HSE used as PLL clock source */
1339:Lib/StdPeriphs/src/stm32f4xx_rcc.c ****       pllvco = (HSE_VALUE / pllm) * ((RCC->PLLCFGR & RCC_PLLCFGR_PLLN) >> 6);
1340:Lib/StdPeriphs/src/stm32f4xx_rcc.c ****     }
1341:Lib/StdPeriphs/src/stm32f4xx_rcc.c ****     else
1342:Lib/StdPeriphs/src/stm32f4xx_rcc.c ****     {
1343:Lib/StdPeriphs/src/stm32f4xx_rcc.c ****       /* HSI used as PLL clock source */
1344:Lib/StdPeriphs/src/stm32f4xx_rcc.c ****       pllvco = (HSI_VALUE / pllm) * ((RCC->PLLCFGR & RCC_PLLCFGR_PLLN) >> 6);      
1345:Lib/StdPeriphs/src/stm32f4xx_rcc.c ****     }
1346:Lib/StdPeriphs/src/stm32f4xx_rcc.c ****     
1347:Lib/StdPeriphs/src/stm32f4xx_rcc.c ****     pllp = (((RCC->PLLCFGR & RCC_PLLCFGR_PLLP) >>16) + 1 ) *2;
1348:Lib/StdPeriphs/src/stm32f4xx_rcc.c ****     RCC_Clocks->SYSCLK_Frequency = pllvco/pllp;
1349:Lib/StdPeriphs/src/stm32f4xx_rcc.c ****     break;
1350:Lib/StdPeriphs/src/stm32f4xx_rcc.c **** 
1351:Lib/StdPeriphs/src/stm32f4xx_rcc.c **** #if defined(STM32F412xG) || defined(STM32F413_423xx) || defined(STM32F446xx)
1352:Lib/StdPeriphs/src/stm32f4xx_rcc.c ****   case 0x0C:  /* PLL R used as system clock  source */
1353:Lib/StdPeriphs/src/stm32f4xx_rcc.c ****     /* PLL_VCO = (HSE_VALUE or HSI_VALUE / PLLM) * PLLN
1354:Lib/StdPeriphs/src/stm32f4xx_rcc.c ****     SYSCLK = PLL_VCO / PLLR
1355:Lib/StdPeriphs/src/stm32f4xx_rcc.c ****     */    
1356:Lib/StdPeriphs/src/stm32f4xx_rcc.c ****     pllsource = (RCC->PLLCFGR & RCC_PLLCFGR_PLLSRC) >> 22;
1357:Lib/StdPeriphs/src/stm32f4xx_rcc.c ****     pllm = RCC->PLLCFGR & RCC_PLLCFGR_PLLM;
1358:Lib/StdPeriphs/src/stm32f4xx_rcc.c ****     
1359:Lib/StdPeriphs/src/stm32f4xx_rcc.c ****     if (pllsource != 0)
1360:Lib/StdPeriphs/src/stm32f4xx_rcc.c ****     {
1361:Lib/StdPeriphs/src/stm32f4xx_rcc.c ****       /* HSE used as PLL clock source */
1362:Lib/StdPeriphs/src/stm32f4xx_rcc.c ****       pllvco = (HSE_VALUE / pllm) * ((RCC->PLLCFGR & RCC_PLLCFGR_PLLN) >> 6);
1363:Lib/StdPeriphs/src/stm32f4xx_rcc.c ****     }
ARM GAS  C:\Users\asus\AppData\Local\Temp\ccEdY3aN.s 			page 39


1364:Lib/StdPeriphs/src/stm32f4xx_rcc.c ****     else
1365:Lib/StdPeriphs/src/stm32f4xx_rcc.c ****     {
1366:Lib/StdPeriphs/src/stm32f4xx_rcc.c ****       /* HSI used as PLL clock source */
1367:Lib/StdPeriphs/src/stm32f4xx_rcc.c ****       pllvco = (HSI_VALUE / pllm) * ((RCC->PLLCFGR & RCC_PLLCFGR_PLLN) >> 6);      
1368:Lib/StdPeriphs/src/stm32f4xx_rcc.c ****     }
1369:Lib/StdPeriphs/src/stm32f4xx_rcc.c ****     
1370:Lib/StdPeriphs/src/stm32f4xx_rcc.c ****     pllr = (((RCC->PLLCFGR & RCC_PLLCFGR_PLLR) >>28) + 1 ) *2;
1371:Lib/StdPeriphs/src/stm32f4xx_rcc.c ****     RCC_Clocks->SYSCLK_Frequency = pllvco/pllr;    
1372:Lib/StdPeriphs/src/stm32f4xx_rcc.c ****     break;
1373:Lib/StdPeriphs/src/stm32f4xx_rcc.c **** #endif /* STM32F412xG || STM32F413_423xx || STM32F446xx */
1374:Lib/StdPeriphs/src/stm32f4xx_rcc.c ****     
1375:Lib/StdPeriphs/src/stm32f4xx_rcc.c ****   default:
1376:Lib/StdPeriphs/src/stm32f4xx_rcc.c ****     RCC_Clocks->SYSCLK_Frequency = HSI_VALUE;
1377:Lib/StdPeriphs/src/stm32f4xx_rcc.c ****     break;
1378:Lib/StdPeriphs/src/stm32f4xx_rcc.c ****   }
1379:Lib/StdPeriphs/src/stm32f4xx_rcc.c ****   /* Compute HCLK, PCLK1 and PCLK2 clocks frequencies ------------------------*/
1380:Lib/StdPeriphs/src/stm32f4xx_rcc.c ****   
1381:Lib/StdPeriphs/src/stm32f4xx_rcc.c ****   /* Get HCLK prescaler */
1382:Lib/StdPeriphs/src/stm32f4xx_rcc.c ****   tmp = RCC->CFGR & RCC_CFGR_HPRE;
 845              		.loc 1 1382 3 view .LVU210
 846              		.loc 1 1382 12 is_stmt 0 view .LVU211
 847 001a 234C     		ldr	r4, .L72
 848 001c A368     		ldr	r3, [r4, #8]
 849              	.LVL51:
1383:Lib/StdPeriphs/src/stm32f4xx_rcc.c ****   tmp = tmp >> 4;
 850              		.loc 1 1383 3 is_stmt 1 view .LVU212
 851              		.loc 1 1383 7 is_stmt 0 view .LVU213
 852 001e C3F30313 		ubfx	r3, r3, #4, #4
 853              	.LVL52:
1384:Lib/StdPeriphs/src/stm32f4xx_rcc.c ****   presc = APBAHBPrescTable[tmp];
 854              		.loc 1 1384 3 is_stmt 1 view .LVU214
 855              		.loc 1 1384 27 is_stmt 0 view .LVU215
 856 0022 2349     		ldr	r1, .L72+8
 857 0024 CA5C     		ldrb	r2, [r1, r3]	@ zero_extendqisi2
 858 0026 D2B2     		uxtb	r2, r2
 859              	.LVL53:
1385:Lib/StdPeriphs/src/stm32f4xx_rcc.c ****   /* HCLK clock frequency */
1386:Lib/StdPeriphs/src/stm32f4xx_rcc.c ****   RCC_Clocks->HCLK_Frequency = RCC_Clocks->SYSCLK_Frequency >> presc;
 860              		.loc 1 1386 3 is_stmt 1 view .LVU216
 861              		.loc 1 1386 42 is_stmt 0 view .LVU217
 862 0028 0368     		ldr	r3, [r0]
 863              	.LVL54:
 864              		.loc 1 1386 61 view .LVU218
 865 002a D340     		lsrs	r3, r3, r2
 866              		.loc 1 1386 30 view .LVU219
 867 002c 4360     		str	r3, [r0, #4]
1387:Lib/StdPeriphs/src/stm32f4xx_rcc.c **** 
1388:Lib/StdPeriphs/src/stm32f4xx_rcc.c ****   /* Get PCLK1 prescaler */
1389:Lib/StdPeriphs/src/stm32f4xx_rcc.c ****   tmp = RCC->CFGR & RCC_CFGR_PPRE1;
 868              		.loc 1 1389 3 is_stmt 1 view .LVU220
 869              		.loc 1 1389 12 is_stmt 0 view .LVU221
 870 002e A268     		ldr	r2, [r4, #8]
 871              	.LVL55:
1390:Lib/StdPeriphs/src/stm32f4xx_rcc.c ****   tmp = tmp >> 10;
 872              		.loc 1 1390 3 is_stmt 1 view .LVU222
 873              		.loc 1 1390 7 is_stmt 0 view .LVU223
 874 0030 C2F38222 		ubfx	r2, r2, #10, #3
ARM GAS  C:\Users\asus\AppData\Local\Temp\ccEdY3aN.s 			page 40


 875              	.LVL56:
1391:Lib/StdPeriphs/src/stm32f4xx_rcc.c ****   presc = APBAHBPrescTable[tmp];
 876              		.loc 1 1391 3 is_stmt 1 view .LVU224
 877              		.loc 1 1391 27 is_stmt 0 view .LVU225
 878 0034 8A5C     		ldrb	r2, [r1, r2]	@ zero_extendqisi2
 879              	.LVL57:
 880              		.loc 1 1391 27 view .LVU226
 881 0036 D2B2     		uxtb	r2, r2
 882              	.LVL58:
1392:Lib/StdPeriphs/src/stm32f4xx_rcc.c ****   /* PCLK1 clock frequency */
1393:Lib/StdPeriphs/src/stm32f4xx_rcc.c ****   RCC_Clocks->PCLK1_Frequency = RCC_Clocks->HCLK_Frequency >> presc;
 883              		.loc 1 1393 3 is_stmt 1 view .LVU227
 884              		.loc 1 1393 60 is_stmt 0 view .LVU228
 885 0038 23FA02F2 		lsr	r2, r3, r2
 886              	.LVL59:
 887              		.loc 1 1393 31 view .LVU229
 888 003c 8260     		str	r2, [r0, #8]
1394:Lib/StdPeriphs/src/stm32f4xx_rcc.c **** 
1395:Lib/StdPeriphs/src/stm32f4xx_rcc.c ****   /* Get PCLK2 prescaler */
1396:Lib/StdPeriphs/src/stm32f4xx_rcc.c ****   tmp = RCC->CFGR & RCC_CFGR_PPRE2;
 889              		.loc 1 1396 3 is_stmt 1 view .LVU230
 890              		.loc 1 1396 12 is_stmt 0 view .LVU231
 891 003e A268     		ldr	r2, [r4, #8]
 892              	.LVL60:
1397:Lib/StdPeriphs/src/stm32f4xx_rcc.c ****   tmp = tmp >> 13;
 893              		.loc 1 1397 3 is_stmt 1 view .LVU232
 894              		.loc 1 1397 7 is_stmt 0 view .LVU233
 895 0040 C2F34232 		ubfx	r2, r2, #13, #3
 896              	.LVL61:
1398:Lib/StdPeriphs/src/stm32f4xx_rcc.c ****   presc = APBAHBPrescTable[tmp];
 897              		.loc 1 1398 3 is_stmt 1 view .LVU234
 898              		.loc 1 1398 27 is_stmt 0 view .LVU235
 899 0044 8A5C     		ldrb	r2, [r1, r2]	@ zero_extendqisi2
 900              	.LVL62:
 901              		.loc 1 1398 27 view .LVU236
 902 0046 D2B2     		uxtb	r2, r2
 903              	.LVL63:
1399:Lib/StdPeriphs/src/stm32f4xx_rcc.c ****   /* PCLK2 clock frequency */
1400:Lib/StdPeriphs/src/stm32f4xx_rcc.c ****   RCC_Clocks->PCLK2_Frequency = RCC_Clocks->HCLK_Frequency >> presc;
 904              		.loc 1 1400 3 is_stmt 1 view .LVU237
 905              		.loc 1 1400 60 is_stmt 0 view .LVU238
 906 0048 D340     		lsrs	r3, r3, r2
 907              		.loc 1 1400 31 view .LVU239
 908 004a C360     		str	r3, [r0, #12]
1401:Lib/StdPeriphs/src/stm32f4xx_rcc.c **** }
 909              		.loc 1 1401 1 view .LVU240
 910 004c 5DF8044B 		ldr	r4, [sp], #4
 911              	.LCFI1:
 912              		.cfi_remember_state
 913              		.cfi_restore 4
 914              		.cfi_def_cfa_offset 0
 915 0050 7047     		bx	lr
 916              	.LVL64:
 917              	.L65:
 918              	.LCFI2:
 919              		.cfi_restore_state
1326:Lib/StdPeriphs/src/stm32f4xx_rcc.c ****     break;
ARM GAS  C:\Users\asus\AppData\Local\Temp\ccEdY3aN.s 			page 41


 920              		.loc 1 1326 5 is_stmt 1 view .LVU241
1326:Lib/StdPeriphs/src/stm32f4xx_rcc.c ****     break;
 921              		.loc 1 1326 34 is_stmt 0 view .LVU242
 922 0052 184B     		ldr	r3, .L72+12
 923              	.LVL65:
1326:Lib/StdPeriphs/src/stm32f4xx_rcc.c ****     break;
 924              		.loc 1 1326 34 view .LVU243
 925 0054 0360     		str	r3, [r0]
1327:Lib/StdPeriphs/src/stm32f4xx_rcc.c ****   case 0x08:  /* PLL P used as system clock  source */
 926              		.loc 1 1327 5 is_stmt 1 view .LVU244
 927 0056 E0E7     		b	.L68
 928              	.LVL66:
 929              	.L66:
1333:Lib/StdPeriphs/src/stm32f4xx_rcc.c ****     pllm = RCC->PLLCFGR & RCC_PLLCFGR_PLLM;
 930              		.loc 1 1333 5 view .LVU245
1333:Lib/StdPeriphs/src/stm32f4xx_rcc.c ****     pllm = RCC->PLLCFGR & RCC_PLLCFGR_PLLM;
 931              		.loc 1 1333 21 is_stmt 0 view .LVU246
 932 0058 134B     		ldr	r3, .L72
 933              	.LVL67:
1333:Lib/StdPeriphs/src/stm32f4xx_rcc.c ****     pllm = RCC->PLLCFGR & RCC_PLLCFGR_PLLM;
 934              		.loc 1 1333 21 view .LVU247
 935 005a 5968     		ldr	r1, [r3, #4]
 936              	.LVL68:
1334:Lib/StdPeriphs/src/stm32f4xx_rcc.c ****     
 937              		.loc 1 1334 5 is_stmt 1 view .LVU248
1334:Lib/StdPeriphs/src/stm32f4xx_rcc.c ****     
 938              		.loc 1 1334 15 is_stmt 0 view .LVU249
 939 005c 5A68     		ldr	r2, [r3, #4]
1334:Lib/StdPeriphs/src/stm32f4xx_rcc.c ****     
 940              		.loc 1 1334 10 view .LVU250
 941 005e 02F03F02 		and	r2, r2, #63
 942              	.LVL69:
1336:Lib/StdPeriphs/src/stm32f4xx_rcc.c ****     {
 943              		.loc 1 1336 5 is_stmt 1 view .LVU251
1336:Lib/StdPeriphs/src/stm32f4xx_rcc.c ****     {
 944              		.loc 1 1336 8 is_stmt 0 view .LVU252
 945 0062 11F4800F 		tst	r1, #4194304
 946 0066 12D0     		beq	.L69
1339:Lib/StdPeriphs/src/stm32f4xx_rcc.c ****     }
 947              		.loc 1 1339 7 is_stmt 1 view .LVU253
1339:Lib/StdPeriphs/src/stm32f4xx_rcc.c ****     }
 948              		.loc 1 1339 27 is_stmt 0 view .LVU254
 949 0068 124B     		ldr	r3, .L72+12
 950 006a B3FBF2F3 		udiv	r3, r3, r2
1339:Lib/StdPeriphs/src/stm32f4xx_rcc.c ****     }
 951              		.loc 1 1339 42 view .LVU255
 952 006e 0E4A     		ldr	r2, .L72
 953              	.LVL70:
1339:Lib/StdPeriphs/src/stm32f4xx_rcc.c ****     }
 954              		.loc 1 1339 42 view .LVU256
 955 0070 5268     		ldr	r2, [r2, #4]
1339:Lib/StdPeriphs/src/stm32f4xx_rcc.c ****     }
 956              		.loc 1 1339 72 view .LVU257
 957 0072 C2F38812 		ubfx	r2, r2, #6, #9
1339:Lib/StdPeriphs/src/stm32f4xx_rcc.c ****     }
 958              		.loc 1 1339 14 view .LVU258
 959 0076 02FB03F3 		mul	r3, r2, r3
ARM GAS  C:\Users\asus\AppData\Local\Temp\ccEdY3aN.s 			page 42


 960              	.LVL71:
 961              	.L70:
1347:Lib/StdPeriphs/src/stm32f4xx_rcc.c ****     RCC_Clocks->SYSCLK_Frequency = pllvco/pllp;
 962              		.loc 1 1347 5 is_stmt 1 view .LVU259
1347:Lib/StdPeriphs/src/stm32f4xx_rcc.c ****     RCC_Clocks->SYSCLK_Frequency = pllvco/pllp;
 963              		.loc 1 1347 18 is_stmt 0 view .LVU260
 964 007a 0B4A     		ldr	r2, .L72
 965 007c 5268     		ldr	r2, [r2, #4]
1347:Lib/StdPeriphs/src/stm32f4xx_rcc.c ****     RCC_Clocks->SYSCLK_Frequency = pllvco/pllp;
 966              		.loc 1 1347 48 view .LVU261
 967 007e C2F30142 		ubfx	r2, r2, #16, #2
1347:Lib/StdPeriphs/src/stm32f4xx_rcc.c ****     RCC_Clocks->SYSCLK_Frequency = pllvco/pllp;
 968              		.loc 1 1347 54 view .LVU262
 969 0082 0132     		adds	r2, r2, #1
1347:Lib/StdPeriphs/src/stm32f4xx_rcc.c ****     RCC_Clocks->SYSCLK_Frequency = pllvco/pllp;
 970              		.loc 1 1347 10 view .LVU263
 971 0084 5200     		lsls	r2, r2, #1
 972              	.LVL72:
1348:Lib/StdPeriphs/src/stm32f4xx_rcc.c ****     break;
 973              		.loc 1 1348 5 is_stmt 1 view .LVU264
1348:Lib/StdPeriphs/src/stm32f4xx_rcc.c ****     break;
 974              		.loc 1 1348 42 is_stmt 0 view .LVU265
 975 0086 B3FBF2F3 		udiv	r3, r3, r2
 976              	.LVL73:
1348:Lib/StdPeriphs/src/stm32f4xx_rcc.c ****     break;
 977              		.loc 1 1348 34 view .LVU266
 978 008a 0360     		str	r3, [r0]
1349:Lib/StdPeriphs/src/stm32f4xx_rcc.c **** 
 979              		.loc 1 1349 5 is_stmt 1 view .LVU267
 980 008c C5E7     		b	.L68
 981              	.LVL74:
 982              	.L69:
1344:Lib/StdPeriphs/src/stm32f4xx_rcc.c ****     }
 983              		.loc 1 1344 7 view .LVU268
1344:Lib/StdPeriphs/src/stm32f4xx_rcc.c ****     }
 984              		.loc 1 1344 27 is_stmt 0 view .LVU269
 985 008e 074B     		ldr	r3, .L72+4
 986 0090 B3FBF2F3 		udiv	r3, r3, r2
1344:Lib/StdPeriphs/src/stm32f4xx_rcc.c ****     }
 987              		.loc 1 1344 42 view .LVU270
 988 0094 044A     		ldr	r2, .L72
 989              	.LVL75:
1344:Lib/StdPeriphs/src/stm32f4xx_rcc.c ****     }
 990              		.loc 1 1344 42 view .LVU271
 991 0096 5268     		ldr	r2, [r2, #4]
1344:Lib/StdPeriphs/src/stm32f4xx_rcc.c ****     }
 992              		.loc 1 1344 72 view .LVU272
 993 0098 C2F38812 		ubfx	r2, r2, #6, #9
1344:Lib/StdPeriphs/src/stm32f4xx_rcc.c ****     }
 994              		.loc 1 1344 14 view .LVU273
 995 009c 02FB03F3 		mul	r3, r2, r3
 996              	.LVL76:
1344:Lib/StdPeriphs/src/stm32f4xx_rcc.c ****     }
 997              		.loc 1 1344 14 view .LVU274
 998 00a0 EBE7     		b	.L70
 999              	.LVL77:
 1000              	.L67:
ARM GAS  C:\Users\asus\AppData\Local\Temp\ccEdY3aN.s 			page 43


1376:Lib/StdPeriphs/src/stm32f4xx_rcc.c ****     break;
 1001              		.loc 1 1376 5 is_stmt 1 view .LVU275
1376:Lib/StdPeriphs/src/stm32f4xx_rcc.c ****     break;
 1002              		.loc 1 1376 34 is_stmt 0 view .LVU276
 1003 00a2 024B     		ldr	r3, .L72+4
 1004              	.LVL78:
1376:Lib/StdPeriphs/src/stm32f4xx_rcc.c ****     break;
 1005              		.loc 1 1376 34 view .LVU277
 1006 00a4 0360     		str	r3, [r0]
1377:Lib/StdPeriphs/src/stm32f4xx_rcc.c ****   }
 1007              		.loc 1 1377 5 is_stmt 1 view .LVU278
 1008 00a6 B8E7     		b	.L68
 1009              	.L73:
 1010              		.align	2
 1011              	.L72:
 1012 00a8 00380240 		.word	1073887232
 1013 00ac 0024F400 		.word	16000000
 1014 00b0 00000000 		.word	APBAHBPrescTable
 1015 00b4 00127A00 		.word	8000000
 1016              		.cfi_endproc
 1017              	.LFE144:
 1019              		.section	.text.RCC_RTCCLKConfig,"ax",%progbits
 1020              		.align	1
 1021              		.global	RCC_RTCCLKConfig
 1022              		.syntax unified
 1023              		.thumb
 1024              		.thumb_func
 1026              	RCC_RTCCLKConfig:
 1027              	.LVL79:
 1028              	.LFB145:
1402:Lib/StdPeriphs/src/stm32f4xx_rcc.c **** 
1403:Lib/StdPeriphs/src/stm32f4xx_rcc.c **** /**
1404:Lib/StdPeriphs/src/stm32f4xx_rcc.c ****   * @}
1405:Lib/StdPeriphs/src/stm32f4xx_rcc.c ****   */
1406:Lib/StdPeriphs/src/stm32f4xx_rcc.c **** 
1407:Lib/StdPeriphs/src/stm32f4xx_rcc.c **** /** @defgroup RCC_Group3 Peripheral clocks configuration functions
1408:Lib/StdPeriphs/src/stm32f4xx_rcc.c ****  *  @brief   Peripheral clocks configuration functions 
1409:Lib/StdPeriphs/src/stm32f4xx_rcc.c ****  *
1410:Lib/StdPeriphs/src/stm32f4xx_rcc.c **** @verbatim   
1411:Lib/StdPeriphs/src/stm32f4xx_rcc.c ****  ===============================================================================
1412:Lib/StdPeriphs/src/stm32f4xx_rcc.c ****               ##### Peripheral clocks configuration functions #####
1413:Lib/StdPeriphs/src/stm32f4xx_rcc.c ****  ===============================================================================  
1414:Lib/StdPeriphs/src/stm32f4xx_rcc.c ****     [..] This section provide functions allowing to configure the Peripheral clocks. 
1415:Lib/StdPeriphs/src/stm32f4xx_rcc.c ****   
1416:Lib/StdPeriphs/src/stm32f4xx_rcc.c ****       (#) The RTC clock which is derived from the LSI, LSE or HSE clock divided 
1417:Lib/StdPeriphs/src/stm32f4xx_rcc.c ****           by 2 to 31.
1418:Lib/StdPeriphs/src/stm32f4xx_rcc.c ****      
1419:Lib/StdPeriphs/src/stm32f4xx_rcc.c ****       (#) After restart from Reset or wakeup from STANDBY, all peripherals are off
1420:Lib/StdPeriphs/src/stm32f4xx_rcc.c ****           except internal SRAM, Flash and JTAG. Before to start using a peripheral 
1421:Lib/StdPeriphs/src/stm32f4xx_rcc.c ****           you have to enable its interface clock. You can do this using 
1422:Lib/StdPeriphs/src/stm32f4xx_rcc.c ****           RCC_AHBPeriphClockCmd(), RCC_APB2PeriphClockCmd() and RCC_APB1PeriphClockCmd() functions.
1423:Lib/StdPeriphs/src/stm32f4xx_rcc.c **** 
1424:Lib/StdPeriphs/src/stm32f4xx_rcc.c ****       (#) To reset the peripherals configuration (to the default state after device reset)
1425:Lib/StdPeriphs/src/stm32f4xx_rcc.c ****           you can use RCC_AHBPeriphResetCmd(), RCC_APB2PeriphResetCmd() and 
1426:Lib/StdPeriphs/src/stm32f4xx_rcc.c ****           RCC_APB1PeriphResetCmd() functions.
1427:Lib/StdPeriphs/src/stm32f4xx_rcc.c ****      
1428:Lib/StdPeriphs/src/stm32f4xx_rcc.c ****       (#) To further reduce power consumption in SLEEP mode the peripheral clocks 
ARM GAS  C:\Users\asus\AppData\Local\Temp\ccEdY3aN.s 			page 44


1429:Lib/StdPeriphs/src/stm32f4xx_rcc.c ****           can be disabled prior to executing the WFI or WFE instructions. 
1430:Lib/StdPeriphs/src/stm32f4xx_rcc.c ****           You can do this using RCC_AHBPeriphClockLPModeCmd(), 
1431:Lib/StdPeriphs/src/stm32f4xx_rcc.c ****           RCC_APB2PeriphClockLPModeCmd() and RCC_APB1PeriphClockLPModeCmd() functions.  
1432:Lib/StdPeriphs/src/stm32f4xx_rcc.c **** 
1433:Lib/StdPeriphs/src/stm32f4xx_rcc.c **** @endverbatim
1434:Lib/StdPeriphs/src/stm32f4xx_rcc.c ****   * @{
1435:Lib/StdPeriphs/src/stm32f4xx_rcc.c ****   */
1436:Lib/StdPeriphs/src/stm32f4xx_rcc.c **** 
1437:Lib/StdPeriphs/src/stm32f4xx_rcc.c **** /**
1438:Lib/StdPeriphs/src/stm32f4xx_rcc.c ****   * @brief  Configures the RTC clock (RTCCLK).
1439:Lib/StdPeriphs/src/stm32f4xx_rcc.c ****   * @note   As the RTC clock configuration bits are in the Backup domain and write
1440:Lib/StdPeriphs/src/stm32f4xx_rcc.c ****   *         access is denied to this domain after reset, you have to enable write
1441:Lib/StdPeriphs/src/stm32f4xx_rcc.c ****   *         access using PWR_BackupAccessCmd(ENABLE) function before to configure
1442:Lib/StdPeriphs/src/stm32f4xx_rcc.c ****   *         the RTC clock source (to be done once after reset).    
1443:Lib/StdPeriphs/src/stm32f4xx_rcc.c ****   * @note   Once the RTC clock is configured it can't be changed unless the  
1444:Lib/StdPeriphs/src/stm32f4xx_rcc.c ****   *         Backup domain is reset using RCC_BackupResetCmd() function, or by
1445:Lib/StdPeriphs/src/stm32f4xx_rcc.c ****   *         a Power On Reset (POR).
1446:Lib/StdPeriphs/src/stm32f4xx_rcc.c ****   *    
1447:Lib/StdPeriphs/src/stm32f4xx_rcc.c ****   * @param  RCC_RTCCLKSource: specifies the RTC clock source.
1448:Lib/StdPeriphs/src/stm32f4xx_rcc.c ****   *          This parameter can be one of the following values:
1449:Lib/StdPeriphs/src/stm32f4xx_rcc.c ****   *            @arg RCC_RTCCLKSource_LSE: LSE selected as RTC clock
1450:Lib/StdPeriphs/src/stm32f4xx_rcc.c ****   *            @arg RCC_RTCCLKSource_LSI: LSI selected as RTC clock
1451:Lib/StdPeriphs/src/stm32f4xx_rcc.c ****   *            @arg RCC_RTCCLKSource_HSE_Divx: HSE clock divided by x selected
1452:Lib/StdPeriphs/src/stm32f4xx_rcc.c ****   *                                            as RTC clock, where x:[2,31]
1453:Lib/StdPeriphs/src/stm32f4xx_rcc.c ****   *  
1454:Lib/StdPeriphs/src/stm32f4xx_rcc.c ****   * @note   If the LSE or LSI is used as RTC clock source, the RTC continues to
1455:Lib/StdPeriphs/src/stm32f4xx_rcc.c ****   *         work in STOP and STANDBY modes, and can be used as wakeup source.
1456:Lib/StdPeriphs/src/stm32f4xx_rcc.c ****   *         However, when the HSE clock is used as RTC clock source, the RTC
1457:Lib/StdPeriphs/src/stm32f4xx_rcc.c ****   *         cannot be used in STOP and STANDBY modes.    
1458:Lib/StdPeriphs/src/stm32f4xx_rcc.c ****   * @note   The maximum input clock frequency for RTC is 1MHz (when using HSE as
1459:Lib/StdPeriphs/src/stm32f4xx_rcc.c ****   *         RTC clock source).
1460:Lib/StdPeriphs/src/stm32f4xx_rcc.c ****   *  
1461:Lib/StdPeriphs/src/stm32f4xx_rcc.c ****   * @retval None
1462:Lib/StdPeriphs/src/stm32f4xx_rcc.c ****   */
1463:Lib/StdPeriphs/src/stm32f4xx_rcc.c **** void RCC_RTCCLKConfig(uint32_t RCC_RTCCLKSource)
1464:Lib/StdPeriphs/src/stm32f4xx_rcc.c **** {
 1029              		.loc 1 1464 1 view -0
 1030              		.cfi_startproc
 1031              		@ args = 0, pretend = 0, frame = 0
 1032              		@ frame_needed = 0, uses_anonymous_args = 0
 1033              		@ link register save eliminated.
1465:Lib/StdPeriphs/src/stm32f4xx_rcc.c ****   uint32_t tmpreg = 0;
 1034              		.loc 1 1465 3 view .LVU280
1466:Lib/StdPeriphs/src/stm32f4xx_rcc.c **** 
1467:Lib/StdPeriphs/src/stm32f4xx_rcc.c ****   /* Check the parameters */
1468:Lib/StdPeriphs/src/stm32f4xx_rcc.c ****   assert_param(IS_RCC_RTCCLK_SOURCE(RCC_RTCCLKSource));
 1035              		.loc 1 1468 3 view .LVU281
1469:Lib/StdPeriphs/src/stm32f4xx_rcc.c **** 
1470:Lib/StdPeriphs/src/stm32f4xx_rcc.c ****   if ((RCC_RTCCLKSource & 0x00000300) == 0x00000300)
 1036              		.loc 1 1470 3 view .LVU282
 1037              		.loc 1 1470 25 is_stmt 0 view .LVU283
 1038 0000 00F44073 		and	r3, r0, #768
 1039              		.loc 1 1470 6 view .LVU284
 1040 0004 B3F5407F 		cmp	r3, #768
 1041 0008 06D0     		beq	.L76
 1042              	.LVL80:
 1043              	.L75:
ARM GAS  C:\Users\asus\AppData\Local\Temp\ccEdY3aN.s 			page 45


1471:Lib/StdPeriphs/src/stm32f4xx_rcc.c ****   { /* If HSE is selected as RTC clock source, configure HSE division factor for RTC clock */
1472:Lib/StdPeriphs/src/stm32f4xx_rcc.c ****     tmpreg = RCC->CFGR;
1473:Lib/StdPeriphs/src/stm32f4xx_rcc.c **** 
1474:Lib/StdPeriphs/src/stm32f4xx_rcc.c ****     /* Clear RTCPRE[4:0] bits */
1475:Lib/StdPeriphs/src/stm32f4xx_rcc.c ****     tmpreg &= ~RCC_CFGR_RTCPRE;
1476:Lib/StdPeriphs/src/stm32f4xx_rcc.c **** 
1477:Lib/StdPeriphs/src/stm32f4xx_rcc.c ****     /* Configure HSE division factor for RTC clock */
1478:Lib/StdPeriphs/src/stm32f4xx_rcc.c ****     tmpreg |= (RCC_RTCCLKSource & 0xFFFFCFF);
1479:Lib/StdPeriphs/src/stm32f4xx_rcc.c **** 
1480:Lib/StdPeriphs/src/stm32f4xx_rcc.c ****     /* Store the new value */
1481:Lib/StdPeriphs/src/stm32f4xx_rcc.c ****     RCC->CFGR = tmpreg;
1482:Lib/StdPeriphs/src/stm32f4xx_rcc.c ****   }
1483:Lib/StdPeriphs/src/stm32f4xx_rcc.c ****     
1484:Lib/StdPeriphs/src/stm32f4xx_rcc.c ****   /* Select the RTC clock source */
1485:Lib/StdPeriphs/src/stm32f4xx_rcc.c ****   RCC->BDCR |= (RCC_RTCCLKSource & 0x00000FFF);
 1044              		.loc 1 1485 3 is_stmt 1 view .LVU285
 1045              		.loc 1 1485 6 is_stmt 0 view .LVU286
 1046 000a 094A     		ldr	r2, .L77
 1047 000c 136F     		ldr	r3, [r2, #112]
 1048              		.loc 1 1485 34 view .LVU287
 1049 000e C0F30B00 		ubfx	r0, r0, #0, #12
 1050              	.LVL81:
 1051              		.loc 1 1485 13 view .LVU288
 1052 0012 0343     		orrs	r3, r3, r0
 1053 0014 1367     		str	r3, [r2, #112]
1486:Lib/StdPeriphs/src/stm32f4xx_rcc.c **** }
 1054              		.loc 1 1486 1 view .LVU289
 1055 0016 7047     		bx	lr
 1056              	.LVL82:
 1057              	.L76:
1472:Lib/StdPeriphs/src/stm32f4xx_rcc.c **** 
 1058              		.loc 1 1472 5 is_stmt 1 view .LVU290
1472:Lib/StdPeriphs/src/stm32f4xx_rcc.c **** 
 1059              		.loc 1 1472 12 is_stmt 0 view .LVU291
 1060 0018 0549     		ldr	r1, .L77
 1061 001a 8A68     		ldr	r2, [r1, #8]
 1062              	.LVL83:
1475:Lib/StdPeriphs/src/stm32f4xx_rcc.c **** 
 1063              		.loc 1 1475 5 is_stmt 1 view .LVU292
1475:Lib/StdPeriphs/src/stm32f4xx_rcc.c **** 
 1064              		.loc 1 1475 12 is_stmt 0 view .LVU293
 1065 001c 22F4F812 		bic	r2, r2, #2031616
 1066              	.LVL84:
1478:Lib/StdPeriphs/src/stm32f4xx_rcc.c **** 
 1067              		.loc 1 1478 5 is_stmt 1 view .LVU294
1478:Lib/StdPeriphs/src/stm32f4xx_rcc.c **** 
 1068              		.loc 1 1478 33 is_stmt 0 view .LVU295
 1069 0020 20F07043 		bic	r3, r0, #-268435456
 1070 0024 23F44073 		bic	r3, r3, #768
1478:Lib/StdPeriphs/src/stm32f4xx_rcc.c **** 
 1071              		.loc 1 1478 12 view .LVU296
 1072 0028 1343     		orrs	r3, r3, r2
 1073              	.LVL85:
1481:Lib/StdPeriphs/src/stm32f4xx_rcc.c ****   }
 1074              		.loc 1 1481 5 is_stmt 1 view .LVU297
1481:Lib/StdPeriphs/src/stm32f4xx_rcc.c ****   }
 1075              		.loc 1 1481 15 is_stmt 0 view .LVU298
ARM GAS  C:\Users\asus\AppData\Local\Temp\ccEdY3aN.s 			page 46


 1076 002a 8B60     		str	r3, [r1, #8]
 1077 002c EDE7     		b	.L75
 1078              	.L78:
 1079 002e 00BF     		.align	2
 1080              	.L77:
 1081 0030 00380240 		.word	1073887232
 1082              		.cfi_endproc
 1083              	.LFE145:
 1085              		.section	.text.RCC_RTCCLKCmd,"ax",%progbits
 1086              		.align	1
 1087              		.global	RCC_RTCCLKCmd
 1088              		.syntax unified
 1089              		.thumb
 1090              		.thumb_func
 1092              	RCC_RTCCLKCmd:
 1093              	.LVL86:
 1094              	.LFB146:
1487:Lib/StdPeriphs/src/stm32f4xx_rcc.c **** 
1488:Lib/StdPeriphs/src/stm32f4xx_rcc.c **** /**
1489:Lib/StdPeriphs/src/stm32f4xx_rcc.c ****   * @brief  Enables or disables the RTC clock.
1490:Lib/StdPeriphs/src/stm32f4xx_rcc.c ****   * @note   This function must be used only after the RTC clock source was selected
1491:Lib/StdPeriphs/src/stm32f4xx_rcc.c ****   *         using the RCC_RTCCLKConfig function.
1492:Lib/StdPeriphs/src/stm32f4xx_rcc.c ****   * @param  NewState: new state of the RTC clock. This parameter can be: ENABLE or DISABLE.
1493:Lib/StdPeriphs/src/stm32f4xx_rcc.c ****   * @retval None
1494:Lib/StdPeriphs/src/stm32f4xx_rcc.c ****   */
1495:Lib/StdPeriphs/src/stm32f4xx_rcc.c **** void RCC_RTCCLKCmd(FunctionalState NewState)
1496:Lib/StdPeriphs/src/stm32f4xx_rcc.c **** {
 1095              		.loc 1 1496 1 is_stmt 1 view -0
 1096              		.cfi_startproc
 1097              		@ args = 0, pretend = 0, frame = 0
 1098              		@ frame_needed = 0, uses_anonymous_args = 0
 1099              		@ link register save eliminated.
1497:Lib/StdPeriphs/src/stm32f4xx_rcc.c ****   /* Check the parameters */
1498:Lib/StdPeriphs/src/stm32f4xx_rcc.c ****   assert_param(IS_FUNCTIONAL_STATE(NewState));
 1100              		.loc 1 1498 3 view .LVU300
1499:Lib/StdPeriphs/src/stm32f4xx_rcc.c **** 
1500:Lib/StdPeriphs/src/stm32f4xx_rcc.c ****   *(__IO uint32_t *) BDCR_RTCEN_BB = (uint32_t)NewState;
 1101              		.loc 1 1500 3 view .LVU301
 1102              		.loc 1 1500 36 is_stmt 0 view .LVU302
 1103 0000 014B     		ldr	r3, .L80
 1104 0002 C3F83C0E 		str	r0, [r3, #3644]
1501:Lib/StdPeriphs/src/stm32f4xx_rcc.c **** }
 1105              		.loc 1 1501 1 view .LVU303
 1106 0006 7047     		bx	lr
 1107              	.L81:
 1108              		.align	2
 1109              	.L80:
 1110 0008 00004742 		.word	1111949312
 1111              		.cfi_endproc
 1112              	.LFE146:
 1114              		.section	.text.RCC_BackupResetCmd,"ax",%progbits
 1115              		.align	1
 1116              		.global	RCC_BackupResetCmd
 1117              		.syntax unified
 1118              		.thumb
 1119              		.thumb_func
 1121              	RCC_BackupResetCmd:
ARM GAS  C:\Users\asus\AppData\Local\Temp\ccEdY3aN.s 			page 47


 1122              	.LVL87:
 1123              	.LFB147:
1502:Lib/StdPeriphs/src/stm32f4xx_rcc.c **** 
1503:Lib/StdPeriphs/src/stm32f4xx_rcc.c **** /**
1504:Lib/StdPeriphs/src/stm32f4xx_rcc.c ****   * @brief  Forces or releases the Backup domain reset.
1505:Lib/StdPeriphs/src/stm32f4xx_rcc.c ****   * @note   This function resets the RTC peripheral (including the backup registers)
1506:Lib/StdPeriphs/src/stm32f4xx_rcc.c ****   *         and the RTC clock source selection in RCC_CSR register.
1507:Lib/StdPeriphs/src/stm32f4xx_rcc.c ****   * @note   The BKPSRAM is not affected by this reset.    
1508:Lib/StdPeriphs/src/stm32f4xx_rcc.c ****   * @param  NewState: new state of the Backup domain reset.
1509:Lib/StdPeriphs/src/stm32f4xx_rcc.c ****   *          This parameter can be: ENABLE or DISABLE.
1510:Lib/StdPeriphs/src/stm32f4xx_rcc.c ****   * @retval None
1511:Lib/StdPeriphs/src/stm32f4xx_rcc.c ****   */
1512:Lib/StdPeriphs/src/stm32f4xx_rcc.c **** void RCC_BackupResetCmd(FunctionalState NewState)
1513:Lib/StdPeriphs/src/stm32f4xx_rcc.c **** {
 1124              		.loc 1 1513 1 is_stmt 1 view -0
 1125              		.cfi_startproc
 1126              		@ args = 0, pretend = 0, frame = 0
 1127              		@ frame_needed = 0, uses_anonymous_args = 0
 1128              		@ link register save eliminated.
1514:Lib/StdPeriphs/src/stm32f4xx_rcc.c ****   /* Check the parameters */
1515:Lib/StdPeriphs/src/stm32f4xx_rcc.c ****   assert_param(IS_FUNCTIONAL_STATE(NewState));
 1129              		.loc 1 1515 3 view .LVU305
1516:Lib/StdPeriphs/src/stm32f4xx_rcc.c ****   *(__IO uint32_t *) BDCR_BDRST_BB = (uint32_t)NewState;
 1130              		.loc 1 1516 3 view .LVU306
 1131              		.loc 1 1516 36 is_stmt 0 view .LVU307
 1132 0000 014B     		ldr	r3, .L83
 1133 0002 C3F8400E 		str	r0, [r3, #3648]
1517:Lib/StdPeriphs/src/stm32f4xx_rcc.c **** }
 1134              		.loc 1 1517 1 view .LVU308
 1135 0006 7047     		bx	lr
 1136              	.L84:
 1137              		.align	2
 1138              	.L83:
 1139 0008 00004742 		.word	1111949312
 1140              		.cfi_endproc
 1141              	.LFE147:
 1143              		.section	.text.RCC_I2SCLKConfig,"ax",%progbits
 1144              		.align	1
 1145              		.global	RCC_I2SCLKConfig
 1146              		.syntax unified
 1147              		.thumb
 1148              		.thumb_func
 1150              	RCC_I2SCLKConfig:
 1151              	.LVL88:
 1152              	.LFB148:
1518:Lib/StdPeriphs/src/stm32f4xx_rcc.c **** 
1519:Lib/StdPeriphs/src/stm32f4xx_rcc.c **** #if defined (STM32F412xG) || defined(STM32F413_423xx) || defined(STM32F446xx)
1520:Lib/StdPeriphs/src/stm32f4xx_rcc.c **** /**
1521:Lib/StdPeriphs/src/stm32f4xx_rcc.c ****   * @brief  Configures the I2S clock source (I2SCLK).
1522:Lib/StdPeriphs/src/stm32f4xx_rcc.c ****   * @note   This function must be called before enabling the I2S APB clock.
1523:Lib/StdPeriphs/src/stm32f4xx_rcc.c ****   *
1524:Lib/StdPeriphs/src/stm32f4xx_rcc.c ****   * @param  RCC_I2SAPBx: specifies the APBx I2S clock source.
1525:Lib/StdPeriphs/src/stm32f4xx_rcc.c ****   *          This parameter can be one of the following values:
1526:Lib/StdPeriphs/src/stm32f4xx_rcc.c ****   *            @arg RCC_I2SBus_APB1: I2S peripheral instance is on APB1 Bus
1527:Lib/StdPeriphs/src/stm32f4xx_rcc.c ****   *            @arg RCC_I2SBus_APB2: I2S peripheral instance is on APB2 Bus
1528:Lib/StdPeriphs/src/stm32f4xx_rcc.c ****   *
1529:Lib/StdPeriphs/src/stm32f4xx_rcc.c ****   * @param  RCC_I2SCLKSource: specifies the I2S clock source.
ARM GAS  C:\Users\asus\AppData\Local\Temp\ccEdY3aN.s 			page 48


1530:Lib/StdPeriphs/src/stm32f4xx_rcc.c ****   *          This parameter can be one of the following values:
1531:Lib/StdPeriphs/src/stm32f4xx_rcc.c ****   *            @arg RCC_I2SCLKSource_PLLI2S: PLLI2S clock used as I2S clock source
1532:Lib/StdPeriphs/src/stm32f4xx_rcc.c ****   *            @arg RCC_I2SCLKSource_Ext: External clock mapped on the I2S_CKIN pin
1533:Lib/StdPeriphs/src/stm32f4xx_rcc.c ****   *                                        used as I2S clock source
1534:Lib/StdPeriphs/src/stm32f4xx_rcc.c ****   *            @arg RCC_I2SCLKSource_PLL: PLL clock used as I2S clock source
1535:Lib/StdPeriphs/src/stm32f4xx_rcc.c ****   *            @arg RCC_I2SCLKSource_HSI_HSE: HSI or HSE depends on PLLSRC used as I2S clock source
1536:Lib/StdPeriphs/src/stm32f4xx_rcc.c ****   * @retval None
1537:Lib/StdPeriphs/src/stm32f4xx_rcc.c ****   */
1538:Lib/StdPeriphs/src/stm32f4xx_rcc.c **** void RCC_I2SCLKConfig(uint32_t RCC_I2SAPBx, uint32_t RCC_I2SCLKSource)
1539:Lib/StdPeriphs/src/stm32f4xx_rcc.c **** {
1540:Lib/StdPeriphs/src/stm32f4xx_rcc.c ****   /* Check the parameters */
1541:Lib/StdPeriphs/src/stm32f4xx_rcc.c ****   assert_param(IS_RCC_I2SCLK_SOURCE(RCC_I2SCLKSource));
1542:Lib/StdPeriphs/src/stm32f4xx_rcc.c ****   assert_param(IS_RCC_I2S_APBx(RCC_I2SAPBx));
1543:Lib/StdPeriphs/src/stm32f4xx_rcc.c ****   
1544:Lib/StdPeriphs/src/stm32f4xx_rcc.c ****   if(RCC_I2SAPBx == RCC_I2SBus_APB1)
1545:Lib/StdPeriphs/src/stm32f4xx_rcc.c ****   {
1546:Lib/StdPeriphs/src/stm32f4xx_rcc.c ****     /* Clear APB1 I2Sx clock source selection bits */
1547:Lib/StdPeriphs/src/stm32f4xx_rcc.c ****     RCC->DCKCFGR &= ~RCC_DCKCFGR_I2S1SRC;
1548:Lib/StdPeriphs/src/stm32f4xx_rcc.c ****     /* Set new APB1 I2Sx clock source*/
1549:Lib/StdPeriphs/src/stm32f4xx_rcc.c ****     RCC->DCKCFGR |= RCC_I2SCLKSource;
1550:Lib/StdPeriphs/src/stm32f4xx_rcc.c ****   }
1551:Lib/StdPeriphs/src/stm32f4xx_rcc.c ****   else
1552:Lib/StdPeriphs/src/stm32f4xx_rcc.c ****   {
1553:Lib/StdPeriphs/src/stm32f4xx_rcc.c ****     /* Clear APB2 I2Sx clock source selection  bits */
1554:Lib/StdPeriphs/src/stm32f4xx_rcc.c ****     RCC->DCKCFGR &= ~RCC_DCKCFGR_I2S2SRC;
1555:Lib/StdPeriphs/src/stm32f4xx_rcc.c ****     /* Set new APB2 I2Sx clock source */
1556:Lib/StdPeriphs/src/stm32f4xx_rcc.c ****     RCC->DCKCFGR |= (RCC_I2SCLKSource << 2);
1557:Lib/StdPeriphs/src/stm32f4xx_rcc.c ****   }
1558:Lib/StdPeriphs/src/stm32f4xx_rcc.c **** }
1559:Lib/StdPeriphs/src/stm32f4xx_rcc.c **** #if defined(STM32F446xx)
1560:Lib/StdPeriphs/src/stm32f4xx_rcc.c **** /**
1561:Lib/StdPeriphs/src/stm32f4xx_rcc.c ****   * @brief  Configures the SAIx clock source (SAIxCLK).
1562:Lib/StdPeriphs/src/stm32f4xx_rcc.c ****   * @note   This function must be called before enabling the SAIx APB clock.
1563:Lib/StdPeriphs/src/stm32f4xx_rcc.c ****   *
1564:Lib/StdPeriphs/src/stm32f4xx_rcc.c ****   * @param  RCC_SAIInstance: specifies the SAIx clock source.
1565:Lib/StdPeriphs/src/stm32f4xx_rcc.c ****   *          This parameter can be one of the following values:
1566:Lib/StdPeriphs/src/stm32f4xx_rcc.c ****   *            @arg RCC_SAIInstance_SAI1: SAI1 clock source selection
1567:Lib/StdPeriphs/src/stm32f4xx_rcc.c ****   *            @arg RCC_SAIInstance_SAI2: SAI2 clock source selections
1568:Lib/StdPeriphs/src/stm32f4xx_rcc.c ****   *
1569:Lib/StdPeriphs/src/stm32f4xx_rcc.c ****   * @param  RCC_SAICLKSource: specifies the SAI clock source.
1570:Lib/StdPeriphs/src/stm32f4xx_rcc.c ****   *          This parameter can be one of the following values:
1571:Lib/StdPeriphs/src/stm32f4xx_rcc.c ****   *            @arg RCC_SAICLKSource_PLLSAI: PLLSAI clock used as SAI clock source
1572:Lib/StdPeriphs/src/stm32f4xx_rcc.c ****   *            @arg RCC_SAICLKSource_PLLI2S: PLLI2S clock used as SAI clock source
1573:Lib/StdPeriphs/src/stm32f4xx_rcc.c ****   *            @arg RCC_SAICLKSource_PLL: PLL clock used as SAI clock source
1574:Lib/StdPeriphs/src/stm32f4xx_rcc.c ****   *            @arg RCC_SAICLKSource_HSI_HSE: HSI or HSE depends on PLLSRC used as SAI clock source
1575:Lib/StdPeriphs/src/stm32f4xx_rcc.c ****   * @retval None
1576:Lib/StdPeriphs/src/stm32f4xx_rcc.c ****   */
1577:Lib/StdPeriphs/src/stm32f4xx_rcc.c **** void RCC_SAICLKConfig(uint32_t RCC_SAIInstance, uint32_t RCC_SAICLKSource)
1578:Lib/StdPeriphs/src/stm32f4xx_rcc.c **** {
1579:Lib/StdPeriphs/src/stm32f4xx_rcc.c ****   /* Check the parameters */
1580:Lib/StdPeriphs/src/stm32f4xx_rcc.c ****   assert_param(IS_RCC_SAICLK_SOURCE(RCC_SAICLKSource));
1581:Lib/StdPeriphs/src/stm32f4xx_rcc.c ****   assert_param(IS_RCC_SAI_INSTANCE(RCC_SAIInstance));
1582:Lib/StdPeriphs/src/stm32f4xx_rcc.c ****   
1583:Lib/StdPeriphs/src/stm32f4xx_rcc.c ****   if(RCC_SAIInstance == RCC_SAIInstance_SAI1)
1584:Lib/StdPeriphs/src/stm32f4xx_rcc.c ****   {
1585:Lib/StdPeriphs/src/stm32f4xx_rcc.c ****     /* Clear SAI1 clock source selection bits */
1586:Lib/StdPeriphs/src/stm32f4xx_rcc.c ****     RCC->DCKCFGR &= ~RCC_DCKCFGR_SAI1SRC;
ARM GAS  C:\Users\asus\AppData\Local\Temp\ccEdY3aN.s 			page 49


1587:Lib/StdPeriphs/src/stm32f4xx_rcc.c ****     /* Set new SAI1 clock source */
1588:Lib/StdPeriphs/src/stm32f4xx_rcc.c ****     RCC->DCKCFGR |= RCC_SAICLKSource;
1589:Lib/StdPeriphs/src/stm32f4xx_rcc.c ****   }
1590:Lib/StdPeriphs/src/stm32f4xx_rcc.c ****   else
1591:Lib/StdPeriphs/src/stm32f4xx_rcc.c ****   {
1592:Lib/StdPeriphs/src/stm32f4xx_rcc.c ****     /* Clear SAI2 clock source selection bits */
1593:Lib/StdPeriphs/src/stm32f4xx_rcc.c ****     RCC->DCKCFGR &= ~RCC_DCKCFGR_SAI2SRC;
1594:Lib/StdPeriphs/src/stm32f4xx_rcc.c ****     /* Set new SAI2 clock source */
1595:Lib/StdPeriphs/src/stm32f4xx_rcc.c ****     RCC->DCKCFGR |= (RCC_SAICLKSource << 2);
1596:Lib/StdPeriphs/src/stm32f4xx_rcc.c ****   }
1597:Lib/StdPeriphs/src/stm32f4xx_rcc.c **** }
1598:Lib/StdPeriphs/src/stm32f4xx_rcc.c **** #endif /* STM32F446xx */
1599:Lib/StdPeriphs/src/stm32f4xx_rcc.c **** 
1600:Lib/StdPeriphs/src/stm32f4xx_rcc.c **** #if defined(STM32F413_423xx)
1601:Lib/StdPeriphs/src/stm32f4xx_rcc.c **** /**
1602:Lib/StdPeriphs/src/stm32f4xx_rcc.c ****   * @brief  Configures SAI1BlockA clock source selection.      
1603:Lib/StdPeriphs/src/stm32f4xx_rcc.c ****   * @note   This function must be called before enabling PLLSAI, PLLI2S and  
1604:Lib/StdPeriphs/src/stm32f4xx_rcc.c ****   *         the SAI clock.
1605:Lib/StdPeriphs/src/stm32f4xx_rcc.c ****   * @param  RCC_SAIBlockACLKSource: specifies the SAI Block A clock source.
1606:Lib/StdPeriphs/src/stm32f4xx_rcc.c ****   *          This parameter can be one of the following values:
1607:Lib/StdPeriphs/src/stm32f4xx_rcc.c ****   *            @arg RCC_SAIACLKSource_PLLI2SR: PLLI2SR clock used as SAI clock source
1608:Lib/StdPeriphs/src/stm32f4xx_rcc.c ****   *            @arg RCC_SAIACLKSource_PLLI2S: PLLI2S clock used as SAI clock source
1609:Lib/StdPeriphs/src/stm32f4xx_rcc.c ****   *            @arg RCC_SAIACLKSource_PLL: PLL clock used as SAI clock source
1610:Lib/StdPeriphs/src/stm32f4xx_rcc.c ****   *            @arg RCC_SAIACLKSource_HSI_HSE: HSI or HSE depends on PLLSRC used as SAI clock sourc
1611:Lib/StdPeriphs/src/stm32f4xx_rcc.c ****   * @retval None
1612:Lib/StdPeriphs/src/stm32f4xx_rcc.c ****   */
1613:Lib/StdPeriphs/src/stm32f4xx_rcc.c **** void RCC_SAIBlockACLKConfig(uint32_t RCC_SAIBlockACLKSource)
1614:Lib/StdPeriphs/src/stm32f4xx_rcc.c **** {
1615:Lib/StdPeriphs/src/stm32f4xx_rcc.c ****   uint32_t tmpreg = 0;
1616:Lib/StdPeriphs/src/stm32f4xx_rcc.c ****   
1617:Lib/StdPeriphs/src/stm32f4xx_rcc.c ****   /* Check the parameters */
1618:Lib/StdPeriphs/src/stm32f4xx_rcc.c ****   assert_param(IS_RCC_SAIACLK_SOURCE(RCC_SAIBlockACLKSource));
1619:Lib/StdPeriphs/src/stm32f4xx_rcc.c ****   
1620:Lib/StdPeriphs/src/stm32f4xx_rcc.c ****   tmpreg = RCC->DCKCFGR;
1621:Lib/StdPeriphs/src/stm32f4xx_rcc.c **** 
1622:Lib/StdPeriphs/src/stm32f4xx_rcc.c ****   /* Clear RCC_DCKCFGR_SAI1ASRC[1:0] bits */
1623:Lib/StdPeriphs/src/stm32f4xx_rcc.c ****   tmpreg &= ~RCC_DCKCFGR_SAI1ASRC;
1624:Lib/StdPeriphs/src/stm32f4xx_rcc.c **** 
1625:Lib/StdPeriphs/src/stm32f4xx_rcc.c ****   /* Set SAI Block A source selection value */
1626:Lib/StdPeriphs/src/stm32f4xx_rcc.c ****   tmpreg |= RCC_SAIBlockACLKSource;
1627:Lib/StdPeriphs/src/stm32f4xx_rcc.c **** 
1628:Lib/StdPeriphs/src/stm32f4xx_rcc.c ****   /* Store the new value */
1629:Lib/StdPeriphs/src/stm32f4xx_rcc.c ****   RCC->DCKCFGR = tmpreg;
1630:Lib/StdPeriphs/src/stm32f4xx_rcc.c **** }
1631:Lib/StdPeriphs/src/stm32f4xx_rcc.c **** 
1632:Lib/StdPeriphs/src/stm32f4xx_rcc.c **** /**
1633:Lib/StdPeriphs/src/stm32f4xx_rcc.c ****   * @brief  Configures SAI1BlockB clock source selection.      
1634:Lib/StdPeriphs/src/stm32f4xx_rcc.c ****   * @note   This function must be called before enabling PLLSAI, PLLI2S and  
1635:Lib/StdPeriphs/src/stm32f4xx_rcc.c ****   *         the SAI clock.
1636:Lib/StdPeriphs/src/stm32f4xx_rcc.c ****   * @param  RCC_SAIBlockBCLKSource: specifies the SAI Block B clock source.
1637:Lib/StdPeriphs/src/stm32f4xx_rcc.c ****   *          This parameter can be one of the following values:
1638:Lib/StdPeriphs/src/stm32f4xx_rcc.c ****   *            @arg RCC_SAIBCLKSource_PLLI2SR: PLLI2SR clock used as SAI clock source
1639:Lib/StdPeriphs/src/stm32f4xx_rcc.c ****   *            @arg RCC_SAIBCLKSource_PLLI2S: PLLI2S clock used as SAI clock source
1640:Lib/StdPeriphs/src/stm32f4xx_rcc.c ****   *            @arg RCC_SAIBCLKSource_PLL: PLL clock used as SAI clock source
1641:Lib/StdPeriphs/src/stm32f4xx_rcc.c ****   *            @arg RCC_SAIBCLKSource_HSI_HSE: HSI or HSE depends on PLLSRC used as SAI clock sourc
1642:Lib/StdPeriphs/src/stm32f4xx_rcc.c ****   * @retval None
1643:Lib/StdPeriphs/src/stm32f4xx_rcc.c ****   */
ARM GAS  C:\Users\asus\AppData\Local\Temp\ccEdY3aN.s 			page 50


1644:Lib/StdPeriphs/src/stm32f4xx_rcc.c **** void RCC_SAIBlockBCLKConfig(uint32_t RCC_SAIBlockBCLKSource)
1645:Lib/StdPeriphs/src/stm32f4xx_rcc.c **** {
1646:Lib/StdPeriphs/src/stm32f4xx_rcc.c ****   uint32_t tmpreg = 0;
1647:Lib/StdPeriphs/src/stm32f4xx_rcc.c ****   
1648:Lib/StdPeriphs/src/stm32f4xx_rcc.c ****   /* Check the parameters */
1649:Lib/StdPeriphs/src/stm32f4xx_rcc.c ****   assert_param(IS_RCC_SAIBCLK_SOURCE(RCC_SAIBlockBCLKSource));
1650:Lib/StdPeriphs/src/stm32f4xx_rcc.c ****   
1651:Lib/StdPeriphs/src/stm32f4xx_rcc.c ****   tmpreg = RCC->DCKCFGR;
1652:Lib/StdPeriphs/src/stm32f4xx_rcc.c **** 
1653:Lib/StdPeriphs/src/stm32f4xx_rcc.c ****   /* Clear RCC_DCKCFGR_SAI1ASRC[1:0] bits */
1654:Lib/StdPeriphs/src/stm32f4xx_rcc.c ****   tmpreg &= ~RCC_DCKCFGR_SAI1BSRC;
1655:Lib/StdPeriphs/src/stm32f4xx_rcc.c **** 
1656:Lib/StdPeriphs/src/stm32f4xx_rcc.c ****   /* Set SAI Block B source selection value */
1657:Lib/StdPeriphs/src/stm32f4xx_rcc.c ****   tmpreg |= RCC_SAIBlockBCLKSource;
1658:Lib/StdPeriphs/src/stm32f4xx_rcc.c **** 
1659:Lib/StdPeriphs/src/stm32f4xx_rcc.c ****   /* Store the new value */
1660:Lib/StdPeriphs/src/stm32f4xx_rcc.c ****   RCC->DCKCFGR = tmpreg;
1661:Lib/StdPeriphs/src/stm32f4xx_rcc.c **** }
1662:Lib/StdPeriphs/src/stm32f4xx_rcc.c **** #endif /* STM32F413_423xx */
1663:Lib/StdPeriphs/src/stm32f4xx_rcc.c **** #endif /* STM32F412xG || STM32F413_423xx || STM32F446xx */
1664:Lib/StdPeriphs/src/stm32f4xx_rcc.c **** 
1665:Lib/StdPeriphs/src/stm32f4xx_rcc.c **** #if defined(STM32F410xx)
1666:Lib/StdPeriphs/src/stm32f4xx_rcc.c **** /**
1667:Lib/StdPeriphs/src/stm32f4xx_rcc.c ****   * @brief  Configures the I2S clock source (I2SCLK).
1668:Lib/StdPeriphs/src/stm32f4xx_rcc.c ****   * @note   This function must be called before enabling the I2S clock.
1669:Lib/StdPeriphs/src/stm32f4xx_rcc.c ****   *
1670:Lib/StdPeriphs/src/stm32f4xx_rcc.c ****   * @param  RCC_I2SCLKSource: specifies the I2S clock source.
1671:Lib/StdPeriphs/src/stm32f4xx_rcc.c ****   *         This parameter can be one of the following values:
1672:Lib/StdPeriphs/src/stm32f4xx_rcc.c ****   *            @arg RCC_I2SAPBCLKSOURCE_PLLR: PLL VCO output clock divided by PLLR.
1673:Lib/StdPeriphs/src/stm32f4xx_rcc.c ****   *            @arg RCC_I2SAPBCLKSOURCE_EXT: External clock mapped on the I2S_CKIN pin.
1674:Lib/StdPeriphs/src/stm32f4xx_rcc.c ****   *            @arg RCC_I2SAPBCLKSOURCE_PLLSRC: HSI/HSE depends on PLLSRC.
1675:Lib/StdPeriphs/src/stm32f4xx_rcc.c ****   * @retval None
1676:Lib/StdPeriphs/src/stm32f4xx_rcc.c ****   */
1677:Lib/StdPeriphs/src/stm32f4xx_rcc.c **** void RCC_I2SCLKConfig(uint32_t RCC_I2SCLKSource)
1678:Lib/StdPeriphs/src/stm32f4xx_rcc.c **** {
1679:Lib/StdPeriphs/src/stm32f4xx_rcc.c ****   /* Check the parameters */
1680:Lib/StdPeriphs/src/stm32f4xx_rcc.c ****   assert_param(IS_RCC_I2SCLK_SOURCE(RCC_I2SCLKSource));
1681:Lib/StdPeriphs/src/stm32f4xx_rcc.c ****   
1682:Lib/StdPeriphs/src/stm32f4xx_rcc.c ****   /* Clear I2Sx clock source selection bits */
1683:Lib/StdPeriphs/src/stm32f4xx_rcc.c ****   RCC->DCKCFGR &= ~RCC_DCKCFGR_I2SSRC;
1684:Lib/StdPeriphs/src/stm32f4xx_rcc.c ****   /* Set new I2Sx clock source*/
1685:Lib/StdPeriphs/src/stm32f4xx_rcc.c ****   RCC->DCKCFGR |= RCC_I2SCLKSource;
1686:Lib/StdPeriphs/src/stm32f4xx_rcc.c **** }
1687:Lib/StdPeriphs/src/stm32f4xx_rcc.c **** #endif /* STM32F410xx */
1688:Lib/StdPeriphs/src/stm32f4xx_rcc.c **** 
1689:Lib/StdPeriphs/src/stm32f4xx_rcc.c **** #if defined(STM32F40_41xxx) || defined(STM32F427_437xx) || defined(STM32F429_439xx) || defined(STM3
1690:Lib/StdPeriphs/src/stm32f4xx_rcc.c **** /**
1691:Lib/StdPeriphs/src/stm32f4xx_rcc.c ****   * @brief  Configures the I2S clock source (I2SCLK).
1692:Lib/StdPeriphs/src/stm32f4xx_rcc.c ****   * @note   This function must be called before enabling the I2S APB clock.
1693:Lib/StdPeriphs/src/stm32f4xx_rcc.c ****   * @param  RCC_I2SCLKSource: specifies the I2S clock source.
1694:Lib/StdPeriphs/src/stm32f4xx_rcc.c ****   *          This parameter can be one of the following values:
1695:Lib/StdPeriphs/src/stm32f4xx_rcc.c ****   *            @arg RCC_I2S2CLKSource_PLLI2S: PLLI2S clock used as I2S clock source
1696:Lib/StdPeriphs/src/stm32f4xx_rcc.c ****   *            @arg RCC_I2S2CLKSource_Ext: External clock mapped on the I2S_CKIN pin
1697:Lib/StdPeriphs/src/stm32f4xx_rcc.c ****   *                                        used as I2S clock source
1698:Lib/StdPeriphs/src/stm32f4xx_rcc.c ****   * @retval None
1699:Lib/StdPeriphs/src/stm32f4xx_rcc.c ****   */
1700:Lib/StdPeriphs/src/stm32f4xx_rcc.c **** void RCC_I2SCLKConfig(uint32_t RCC_I2SCLKSource)
ARM GAS  C:\Users\asus\AppData\Local\Temp\ccEdY3aN.s 			page 51


1701:Lib/StdPeriphs/src/stm32f4xx_rcc.c **** {
 1153              		.loc 1 1701 1 is_stmt 1 view -0
 1154              		.cfi_startproc
 1155              		@ args = 0, pretend = 0, frame = 0
 1156              		@ frame_needed = 0, uses_anonymous_args = 0
 1157              		@ link register save eliminated.
1702:Lib/StdPeriphs/src/stm32f4xx_rcc.c ****   /* Check the parameters */
1703:Lib/StdPeriphs/src/stm32f4xx_rcc.c ****   assert_param(IS_RCC_I2SCLK_SOURCE(RCC_I2SCLKSource));
 1158              		.loc 1 1703 3 view .LVU310
1704:Lib/StdPeriphs/src/stm32f4xx_rcc.c **** 
1705:Lib/StdPeriphs/src/stm32f4xx_rcc.c ****   *(__IO uint32_t *) CFGR_I2SSRC_BB = RCC_I2SCLKSource;  
 1159              		.loc 1 1705 3 view .LVU311
 1160              		.loc 1 1705 37 is_stmt 0 view .LVU312
 1161 0000 014B     		ldr	r3, .L86
 1162 0002 C3F85C01 		str	r0, [r3, #348]
1706:Lib/StdPeriphs/src/stm32f4xx_rcc.c **** }
 1163              		.loc 1 1706 1 view .LVU313
 1164 0006 7047     		bx	lr
 1165              	.L87:
 1166              		.align	2
 1167              	.L86:
 1168 0008 00004742 		.word	1111949312
 1169              		.cfi_endproc
 1170              	.LFE148:
 1172              		.section	.text.RCC_SAIBlockACLKConfig,"ax",%progbits
 1173              		.align	1
 1174              		.global	RCC_SAIBlockACLKConfig
 1175              		.syntax unified
 1176              		.thumb
 1177              		.thumb_func
 1179              	RCC_SAIBlockACLKConfig:
 1180              	.LVL89:
 1181              	.LFB149:
1707:Lib/StdPeriphs/src/stm32f4xx_rcc.c **** #endif /* STM32F40_41xxx || STM32F427_437xx || STM32F429_439xx || STM32F401xx || STM32F411xE || STM
1708:Lib/StdPeriphs/src/stm32f4xx_rcc.c **** 
1709:Lib/StdPeriphs/src/stm32f4xx_rcc.c **** #if defined(STM32F40_41xxx) || defined(STM32F427_437xx) || defined(STM32F429_439xx) || defined(STM3
1710:Lib/StdPeriphs/src/stm32f4xx_rcc.c **** /**
1711:Lib/StdPeriphs/src/stm32f4xx_rcc.c ****   * @brief  Configures SAI1BlockA clock source selection.
1712:Lib/StdPeriphs/src/stm32f4xx_rcc.c ****   * 
1713:Lib/StdPeriphs/src/stm32f4xx_rcc.c ****   * @note   This function can be used only for STM32F42xxx/43xxx/469xx/479xx devices.
1714:Lib/StdPeriphs/src/stm32f4xx_rcc.c ****   *       
1715:Lib/StdPeriphs/src/stm32f4xx_rcc.c ****   * @note   This function must be called before enabling PLLSAI, PLLI2S and  
1716:Lib/StdPeriphs/src/stm32f4xx_rcc.c ****   *         the SAI clock.
1717:Lib/StdPeriphs/src/stm32f4xx_rcc.c ****   * @param  RCC_SAIBlockACLKSource: specifies the SAI Block A clock source.
1718:Lib/StdPeriphs/src/stm32f4xx_rcc.c ****   *          This parameter can be one of the following values:
1719:Lib/StdPeriphs/src/stm32f4xx_rcc.c ****   *            @arg RCC_SAIACLKSource_PLLI2S: PLLI2S_Q clock divided by PLLI2SDIVQ used 
1720:Lib/StdPeriphs/src/stm32f4xx_rcc.c ****   *                                           as SAI1 Block A clock 
1721:Lib/StdPeriphs/src/stm32f4xx_rcc.c ****   *            @arg RCC_SAIACLKSource_PLLSAI: PLLISAI_Q clock divided by PLLSAIDIVQ used 
1722:Lib/StdPeriphs/src/stm32f4xx_rcc.c ****   *                                           as SAI1 Block A clock 
1723:Lib/StdPeriphs/src/stm32f4xx_rcc.c ****   *            @arg RCC_SAIACLKSource_Ext: External clock mapped on the I2S_CKIN pin
1724:Lib/StdPeriphs/src/stm32f4xx_rcc.c ****   *                                        used as SAI1 Block A clock
1725:Lib/StdPeriphs/src/stm32f4xx_rcc.c ****   * @retval None
1726:Lib/StdPeriphs/src/stm32f4xx_rcc.c ****   */
1727:Lib/StdPeriphs/src/stm32f4xx_rcc.c **** void RCC_SAIBlockACLKConfig(uint32_t RCC_SAIBlockACLKSource)
1728:Lib/StdPeriphs/src/stm32f4xx_rcc.c **** {
 1182              		.loc 1 1728 1 is_stmt 1 view -0
 1183              		.cfi_startproc
ARM GAS  C:\Users\asus\AppData\Local\Temp\ccEdY3aN.s 			page 52


 1184              		@ args = 0, pretend = 0, frame = 0
 1185              		@ frame_needed = 0, uses_anonymous_args = 0
 1186              		@ link register save eliminated.
1729:Lib/StdPeriphs/src/stm32f4xx_rcc.c ****   uint32_t tmpreg = 0;
 1187              		.loc 1 1729 3 view .LVU315
1730:Lib/StdPeriphs/src/stm32f4xx_rcc.c ****   
1731:Lib/StdPeriphs/src/stm32f4xx_rcc.c ****   /* Check the parameters */
1732:Lib/StdPeriphs/src/stm32f4xx_rcc.c ****   assert_param(IS_RCC_SAIACLK_SOURCE(RCC_SAIBlockACLKSource));
 1188              		.loc 1 1732 3 view .LVU316
1733:Lib/StdPeriphs/src/stm32f4xx_rcc.c ****   
1734:Lib/StdPeriphs/src/stm32f4xx_rcc.c ****   tmpreg = RCC->DCKCFGR;
 1189              		.loc 1 1734 3 view .LVU317
 1190              		.loc 1 1734 10 is_stmt 0 view .LVU318
 1191 0000 044A     		ldr	r2, .L89
 1192 0002 D2F88C30 		ldr	r3, [r2, #140]
 1193              	.LVL90:
1735:Lib/StdPeriphs/src/stm32f4xx_rcc.c **** 
1736:Lib/StdPeriphs/src/stm32f4xx_rcc.c ****   /* Clear RCC_DCKCFGR_SAI1ASRC[1:0] bits */
1737:Lib/StdPeriphs/src/stm32f4xx_rcc.c ****   tmpreg &= ~RCC_DCKCFGR_SAI1ASRC;
 1194              		.loc 1 1737 3 is_stmt 1 view .LVU319
 1195              		.loc 1 1737 10 is_stmt 0 view .LVU320
 1196 0006 23F44013 		bic	r3, r3, #3145728
 1197              	.LVL91:
1738:Lib/StdPeriphs/src/stm32f4xx_rcc.c **** 
1739:Lib/StdPeriphs/src/stm32f4xx_rcc.c ****   /* Set SAI Block A source selection value */
1740:Lib/StdPeriphs/src/stm32f4xx_rcc.c ****   tmpreg |= RCC_SAIBlockACLKSource;
 1198              		.loc 1 1740 3 is_stmt 1 view .LVU321
 1199              		.loc 1 1740 10 is_stmt 0 view .LVU322
 1200 000a 0343     		orrs	r3, r3, r0
 1201              	.LVL92:
1741:Lib/StdPeriphs/src/stm32f4xx_rcc.c **** 
1742:Lib/StdPeriphs/src/stm32f4xx_rcc.c ****   /* Store the new value */
1743:Lib/StdPeriphs/src/stm32f4xx_rcc.c ****   RCC->DCKCFGR = tmpreg;
 1202              		.loc 1 1743 3 is_stmt 1 view .LVU323
 1203              		.loc 1 1743 16 is_stmt 0 view .LVU324
 1204 000c C2F88C30 		str	r3, [r2, #140]
1744:Lib/StdPeriphs/src/stm32f4xx_rcc.c **** }
 1205              		.loc 1 1744 1 view .LVU325
 1206 0010 7047     		bx	lr
 1207              	.L90:
 1208 0012 00BF     		.align	2
 1209              	.L89:
 1210 0014 00380240 		.word	1073887232
 1211              		.cfi_endproc
 1212              	.LFE149:
 1214              		.section	.text.RCC_SAIBlockBCLKConfig,"ax",%progbits
 1215              		.align	1
 1216              		.global	RCC_SAIBlockBCLKConfig
 1217              		.syntax unified
 1218              		.thumb
 1219              		.thumb_func
 1221              	RCC_SAIBlockBCLKConfig:
 1222              	.LVL93:
 1223              	.LFB150:
1745:Lib/StdPeriphs/src/stm32f4xx_rcc.c **** 
1746:Lib/StdPeriphs/src/stm32f4xx_rcc.c **** /**
1747:Lib/StdPeriphs/src/stm32f4xx_rcc.c ****   * @brief  Configures SAI1BlockB clock source selection.
ARM GAS  C:\Users\asus\AppData\Local\Temp\ccEdY3aN.s 			page 53


1748:Lib/StdPeriphs/src/stm32f4xx_rcc.c ****   * 
1749:Lib/StdPeriphs/src/stm32f4xx_rcc.c ****   * @note   This function can be used only for STM32F42xxx/43xxx/469xx/479xx devices.
1750:Lib/StdPeriphs/src/stm32f4xx_rcc.c ****   *       
1751:Lib/StdPeriphs/src/stm32f4xx_rcc.c ****   * @note   This function must be called before enabling PLLSAI, PLLI2S and  
1752:Lib/StdPeriphs/src/stm32f4xx_rcc.c ****   *         the SAI clock.
1753:Lib/StdPeriphs/src/stm32f4xx_rcc.c ****   * @param  RCC_SAIBlockBCLKSource: specifies the SAI Block B clock source.
1754:Lib/StdPeriphs/src/stm32f4xx_rcc.c ****   *          This parameter can be one of the following values:
1755:Lib/StdPeriphs/src/stm32f4xx_rcc.c ****   *            @arg RCC_SAIBCLKSource_PLLI2S: PLLI2S_Q clock divided by PLLI2SDIVQ used 
1756:Lib/StdPeriphs/src/stm32f4xx_rcc.c ****   *                                           as SAI1 Block B clock 
1757:Lib/StdPeriphs/src/stm32f4xx_rcc.c ****   *            @arg RCC_SAIBCLKSource_PLLSAI: PLLISAI_Q clock divided by PLLSAIDIVQ used 
1758:Lib/StdPeriphs/src/stm32f4xx_rcc.c ****   *                                           as SAI1 Block B clock 
1759:Lib/StdPeriphs/src/stm32f4xx_rcc.c ****   *            @arg RCC_SAIBCLKSource_Ext: External clock mapped on the I2S_CKIN pin
1760:Lib/StdPeriphs/src/stm32f4xx_rcc.c ****   *                                        used as SAI1 Block B clock
1761:Lib/StdPeriphs/src/stm32f4xx_rcc.c ****   * @retval None
1762:Lib/StdPeriphs/src/stm32f4xx_rcc.c ****   */
1763:Lib/StdPeriphs/src/stm32f4xx_rcc.c **** void RCC_SAIBlockBCLKConfig(uint32_t RCC_SAIBlockBCLKSource)
1764:Lib/StdPeriphs/src/stm32f4xx_rcc.c **** {
 1224              		.loc 1 1764 1 is_stmt 1 view -0
 1225              		.cfi_startproc
 1226              		@ args = 0, pretend = 0, frame = 0
 1227              		@ frame_needed = 0, uses_anonymous_args = 0
 1228              		@ link register save eliminated.
1765:Lib/StdPeriphs/src/stm32f4xx_rcc.c ****   uint32_t tmpreg = 0;
 1229              		.loc 1 1765 3 view .LVU327
1766:Lib/StdPeriphs/src/stm32f4xx_rcc.c ****   
1767:Lib/StdPeriphs/src/stm32f4xx_rcc.c ****   /* Check the parameters */
1768:Lib/StdPeriphs/src/stm32f4xx_rcc.c ****   assert_param(IS_RCC_SAIBCLK_SOURCE(RCC_SAIBlockBCLKSource));
 1230              		.loc 1 1768 3 view .LVU328
1769:Lib/StdPeriphs/src/stm32f4xx_rcc.c ****   
1770:Lib/StdPeriphs/src/stm32f4xx_rcc.c ****   tmpreg = RCC->DCKCFGR;
 1231              		.loc 1 1770 3 view .LVU329
 1232              		.loc 1 1770 10 is_stmt 0 view .LVU330
 1233 0000 044A     		ldr	r2, .L92
 1234 0002 D2F88C30 		ldr	r3, [r2, #140]
 1235              	.LVL94:
1771:Lib/StdPeriphs/src/stm32f4xx_rcc.c **** 
1772:Lib/StdPeriphs/src/stm32f4xx_rcc.c ****   /* Clear RCC_DCKCFGR_SAI1BSRC[1:0] bits */
1773:Lib/StdPeriphs/src/stm32f4xx_rcc.c ****   tmpreg &= ~RCC_DCKCFGR_SAI1BSRC;
 1236              		.loc 1 1773 3 is_stmt 1 view .LVU331
 1237              		.loc 1 1773 10 is_stmt 0 view .LVU332
 1238 0006 23F44003 		bic	r3, r3, #12582912
 1239              	.LVL95:
1774:Lib/StdPeriphs/src/stm32f4xx_rcc.c **** 
1775:Lib/StdPeriphs/src/stm32f4xx_rcc.c ****   /* Set SAI Block B source selection value */
1776:Lib/StdPeriphs/src/stm32f4xx_rcc.c ****   tmpreg |= RCC_SAIBlockBCLKSource;
 1240              		.loc 1 1776 3 is_stmt 1 view .LVU333
 1241              		.loc 1 1776 10 is_stmt 0 view .LVU334
 1242 000a 0343     		orrs	r3, r3, r0
 1243              	.LVL96:
1777:Lib/StdPeriphs/src/stm32f4xx_rcc.c **** 
1778:Lib/StdPeriphs/src/stm32f4xx_rcc.c ****   /* Store the new value */
1779:Lib/StdPeriphs/src/stm32f4xx_rcc.c ****   RCC->DCKCFGR = tmpreg;
 1244              		.loc 1 1779 3 is_stmt 1 view .LVU335
 1245              		.loc 1 1779 16 is_stmt 0 view .LVU336
 1246 000c C2F88C30 		str	r3, [r2, #140]
1780:Lib/StdPeriphs/src/stm32f4xx_rcc.c **** }
 1247              		.loc 1 1780 1 view .LVU337
ARM GAS  C:\Users\asus\AppData\Local\Temp\ccEdY3aN.s 			page 54


 1248 0010 7047     		bx	lr
 1249              	.L93:
 1250 0012 00BF     		.align	2
 1251              	.L92:
 1252 0014 00380240 		.word	1073887232
 1253              		.cfi_endproc
 1254              	.LFE150:
 1256              		.section	.text.RCC_SAIPLLI2SClkDivConfig,"ax",%progbits
 1257              		.align	1
 1258              		.global	RCC_SAIPLLI2SClkDivConfig
 1259              		.syntax unified
 1260              		.thumb
 1261              		.thumb_func
 1263              	RCC_SAIPLLI2SClkDivConfig:
 1264              	.LVL97:
 1265              	.LFB151:
1781:Lib/StdPeriphs/src/stm32f4xx_rcc.c **** #endif /* STM32F40_41xxx || STM32F427_437xx || STM32F429_439xx || STM32F469_479xx */
1782:Lib/StdPeriphs/src/stm32f4xx_rcc.c **** 
1783:Lib/StdPeriphs/src/stm32f4xx_rcc.c **** /**
1784:Lib/StdPeriphs/src/stm32f4xx_rcc.c ****   * @brief  Configures the SAI clock Divider coming from PLLI2S.
1785:Lib/StdPeriphs/src/stm32f4xx_rcc.c ****   * 
1786:Lib/StdPeriphs/src/stm32f4xx_rcc.c ****   * @note   This function can be used only for STM32F42xxx/43xxx/446xx/469xx/479xx devices.
1787:Lib/StdPeriphs/src/stm32f4xx_rcc.c ****   *   
1788:Lib/StdPeriphs/src/stm32f4xx_rcc.c ****   * @note   This function must be called before enabling the PLLI2S.
1789:Lib/StdPeriphs/src/stm32f4xx_rcc.c ****   *              
1790:Lib/StdPeriphs/src/stm32f4xx_rcc.c ****   * @param  RCC_PLLI2SDivQ: specifies the PLLI2S division factor for SAI1 clock .
1791:Lib/StdPeriphs/src/stm32f4xx_rcc.c ****   *          This parameter must be a number between 1 and 32.
1792:Lib/StdPeriphs/src/stm32f4xx_rcc.c ****   *          SAI1 clock frequency = f(PLLI2S_Q) / RCC_PLLI2SDivQ 
1793:Lib/StdPeriphs/src/stm32f4xx_rcc.c ****   *              
1794:Lib/StdPeriphs/src/stm32f4xx_rcc.c ****   * @retval None
1795:Lib/StdPeriphs/src/stm32f4xx_rcc.c ****   */
1796:Lib/StdPeriphs/src/stm32f4xx_rcc.c **** void RCC_SAIPLLI2SClkDivConfig(uint32_t RCC_PLLI2SDivQ)  
1797:Lib/StdPeriphs/src/stm32f4xx_rcc.c **** {
 1266              		.loc 1 1797 1 is_stmt 1 view -0
 1267              		.cfi_startproc
 1268              		@ args = 0, pretend = 0, frame = 0
 1269              		@ frame_needed = 0, uses_anonymous_args = 0
 1270              		@ link register save eliminated.
1798:Lib/StdPeriphs/src/stm32f4xx_rcc.c ****   uint32_t tmpreg = 0;
 1271              		.loc 1 1798 3 view .LVU339
1799:Lib/StdPeriphs/src/stm32f4xx_rcc.c ****   
1800:Lib/StdPeriphs/src/stm32f4xx_rcc.c ****   /* Check the parameters */
1801:Lib/StdPeriphs/src/stm32f4xx_rcc.c ****   assert_param(IS_RCC_PLLI2S_DIVQ_VALUE(RCC_PLLI2SDivQ));
 1272              		.loc 1 1801 3 view .LVU340
1802:Lib/StdPeriphs/src/stm32f4xx_rcc.c ****   
1803:Lib/StdPeriphs/src/stm32f4xx_rcc.c ****   tmpreg = RCC->DCKCFGR;
 1273              		.loc 1 1803 3 view .LVU341
 1274              		.loc 1 1803 10 is_stmt 0 view .LVU342
 1275 0000 044A     		ldr	r2, .L95
 1276 0002 D2F88C30 		ldr	r3, [r2, #140]
 1277              	.LVL98:
1804:Lib/StdPeriphs/src/stm32f4xx_rcc.c **** 
1805:Lib/StdPeriphs/src/stm32f4xx_rcc.c ****   /* Clear PLLI2SDIVQ[4:0] bits */
1806:Lib/StdPeriphs/src/stm32f4xx_rcc.c ****   tmpreg &= ~(RCC_DCKCFGR_PLLI2SDIVQ);
 1278              		.loc 1 1806 3 is_stmt 1 view .LVU343
 1279              		.loc 1 1806 10 is_stmt 0 view .LVU344
 1280 0006 23F01F03 		bic	r3, r3, #31
ARM GAS  C:\Users\asus\AppData\Local\Temp\ccEdY3aN.s 			page 55


 1281              	.LVL99:
1807:Lib/StdPeriphs/src/stm32f4xx_rcc.c **** 
1808:Lib/StdPeriphs/src/stm32f4xx_rcc.c ****   /* Set PLLI2SDIVQ values */
1809:Lib/StdPeriphs/src/stm32f4xx_rcc.c ****   tmpreg |= (RCC_PLLI2SDivQ - 1);
 1282              		.loc 1 1809 3 is_stmt 1 view .LVU345
 1283              		.loc 1 1809 29 is_stmt 0 view .LVU346
 1284 000a 0138     		subs	r0, r0, #1
 1285              	.LVL100:
 1286              		.loc 1 1809 10 view .LVU347
 1287 000c 1843     		orrs	r0, r0, r3
 1288              	.LVL101:
1810:Lib/StdPeriphs/src/stm32f4xx_rcc.c **** 
1811:Lib/StdPeriphs/src/stm32f4xx_rcc.c ****   /* Store the new value */
1812:Lib/StdPeriphs/src/stm32f4xx_rcc.c ****   RCC->DCKCFGR = tmpreg;
 1289              		.loc 1 1812 3 is_stmt 1 view .LVU348
 1290              		.loc 1 1812 16 is_stmt 0 view .LVU349
 1291 000e C2F88C00 		str	r0, [r2, #140]
1813:Lib/StdPeriphs/src/stm32f4xx_rcc.c **** }
 1292              		.loc 1 1813 1 view .LVU350
 1293 0012 7047     		bx	lr
 1294              	.L96:
 1295              		.align	2
 1296              	.L95:
 1297 0014 00380240 		.word	1073887232
 1298              		.cfi_endproc
 1299              	.LFE151:
 1301              		.section	.text.RCC_SAIPLLSAIClkDivConfig,"ax",%progbits
 1302              		.align	1
 1303              		.global	RCC_SAIPLLSAIClkDivConfig
 1304              		.syntax unified
 1305              		.thumb
 1306              		.thumb_func
 1308              	RCC_SAIPLLSAIClkDivConfig:
 1309              	.LVL102:
 1310              	.LFB152:
1814:Lib/StdPeriphs/src/stm32f4xx_rcc.c **** 
1815:Lib/StdPeriphs/src/stm32f4xx_rcc.c **** /**
1816:Lib/StdPeriphs/src/stm32f4xx_rcc.c ****   * @brief  Configures the SAI clock Divider coming from PLLSAI.
1817:Lib/StdPeriphs/src/stm32f4xx_rcc.c ****   * 
1818:Lib/StdPeriphs/src/stm32f4xx_rcc.c ****   * @note   This function can be used only for STM32F42xxx/43xxx/446xx/469xx/479xx devices.
1819:Lib/StdPeriphs/src/stm32f4xx_rcc.c ****   *        
1820:Lib/StdPeriphs/src/stm32f4xx_rcc.c ****   * @note   This function must be called before enabling the PLLSAI.
1821:Lib/StdPeriphs/src/stm32f4xx_rcc.c ****   *   
1822:Lib/StdPeriphs/src/stm32f4xx_rcc.c ****   * @param  RCC_PLLSAIDivQ: specifies the PLLSAI division factor for SAI1 clock .
1823:Lib/StdPeriphs/src/stm32f4xx_rcc.c ****   *          This parameter must be a number between 1 and 32.
1824:Lib/StdPeriphs/src/stm32f4xx_rcc.c ****   *          SAI1 clock frequency = f(PLLSAI_Q) / RCC_PLLSAIDivQ  
1825:Lib/StdPeriphs/src/stm32f4xx_rcc.c ****   *              
1826:Lib/StdPeriphs/src/stm32f4xx_rcc.c ****   * @retval None
1827:Lib/StdPeriphs/src/stm32f4xx_rcc.c ****   */
1828:Lib/StdPeriphs/src/stm32f4xx_rcc.c **** void RCC_SAIPLLSAIClkDivConfig(uint32_t RCC_PLLSAIDivQ)  
1829:Lib/StdPeriphs/src/stm32f4xx_rcc.c **** {
 1311              		.loc 1 1829 1 is_stmt 1 view -0
 1312              		.cfi_startproc
 1313              		@ args = 0, pretend = 0, frame = 0
 1314              		@ frame_needed = 0, uses_anonymous_args = 0
 1315              		@ link register save eliminated.
1830:Lib/StdPeriphs/src/stm32f4xx_rcc.c ****   uint32_t tmpreg = 0;
ARM GAS  C:\Users\asus\AppData\Local\Temp\ccEdY3aN.s 			page 56


 1316              		.loc 1 1830 3 view .LVU352
1831:Lib/StdPeriphs/src/stm32f4xx_rcc.c ****   
1832:Lib/StdPeriphs/src/stm32f4xx_rcc.c ****   /* Check the parameters */
1833:Lib/StdPeriphs/src/stm32f4xx_rcc.c ****   assert_param(IS_RCC_PLLSAI_DIVQ_VALUE(RCC_PLLSAIDivQ));
 1317              		.loc 1 1833 3 view .LVU353
1834:Lib/StdPeriphs/src/stm32f4xx_rcc.c ****   
1835:Lib/StdPeriphs/src/stm32f4xx_rcc.c ****   tmpreg = RCC->DCKCFGR;
 1318              		.loc 1 1835 3 view .LVU354
 1319              		.loc 1 1835 10 is_stmt 0 view .LVU355
 1320 0000 054A     		ldr	r2, .L98
 1321 0002 D2F88C30 		ldr	r3, [r2, #140]
 1322              	.LVL103:
1836:Lib/StdPeriphs/src/stm32f4xx_rcc.c **** 
1837:Lib/StdPeriphs/src/stm32f4xx_rcc.c ****   /* Clear PLLI2SDIVQ[4:0] and PLLSAIDIVQ[4:0] bits */
1838:Lib/StdPeriphs/src/stm32f4xx_rcc.c ****   tmpreg &= ~(RCC_DCKCFGR_PLLSAIDIVQ);
 1323              		.loc 1 1838 3 is_stmt 1 view .LVU356
 1324              		.loc 1 1838 10 is_stmt 0 view .LVU357
 1325 0006 23F4F853 		bic	r3, r3, #7936
 1326              	.LVL104:
1839:Lib/StdPeriphs/src/stm32f4xx_rcc.c **** 
1840:Lib/StdPeriphs/src/stm32f4xx_rcc.c ****   /* Set PLLSAIDIVQ values */
1841:Lib/StdPeriphs/src/stm32f4xx_rcc.c ****   tmpreg |= ((RCC_PLLSAIDivQ - 1) << 8);
 1327              		.loc 1 1841 3 is_stmt 1 view .LVU358
 1328              		.loc 1 1841 30 is_stmt 0 view .LVU359
 1329 000a 0138     		subs	r0, r0, #1
 1330              	.LVL105:
 1331              		.loc 1 1841 10 view .LVU360
 1332 000c 43EA0023 		orr	r3, r3, r0, lsl #8
 1333              	.LVL106:
1842:Lib/StdPeriphs/src/stm32f4xx_rcc.c **** 
1843:Lib/StdPeriphs/src/stm32f4xx_rcc.c ****   /* Store the new value */
1844:Lib/StdPeriphs/src/stm32f4xx_rcc.c ****   RCC->DCKCFGR = tmpreg;
 1334              		.loc 1 1844 3 is_stmt 1 view .LVU361
 1335              		.loc 1 1844 16 is_stmt 0 view .LVU362
 1336 0010 C2F88C30 		str	r3, [r2, #140]
1845:Lib/StdPeriphs/src/stm32f4xx_rcc.c **** }
 1337              		.loc 1 1845 1 view .LVU363
 1338 0014 7047     		bx	lr
 1339              	.L99:
 1340 0016 00BF     		.align	2
 1341              	.L98:
 1342 0018 00380240 		.word	1073887232
 1343              		.cfi_endproc
 1344              	.LFE152:
 1346              		.section	.text.RCC_LTDCCLKDivConfig,"ax",%progbits
 1347              		.align	1
 1348              		.global	RCC_LTDCCLKDivConfig
 1349              		.syntax unified
 1350              		.thumb
 1351              		.thumb_func
 1353              	RCC_LTDCCLKDivConfig:
 1354              	.LVL107:
 1355              	.LFB153:
1846:Lib/StdPeriphs/src/stm32f4xx_rcc.c **** 
1847:Lib/StdPeriphs/src/stm32f4xx_rcc.c **** #if defined(STM32F413_423xx)
1848:Lib/StdPeriphs/src/stm32f4xx_rcc.c **** /**
1849:Lib/StdPeriphs/src/stm32f4xx_rcc.c ****   * @brief  Configures the SAI clock Divider coming from PLLI2S.
ARM GAS  C:\Users\asus\AppData\Local\Temp\ccEdY3aN.s 			page 57


1850:Lib/StdPeriphs/src/stm32f4xx_rcc.c ****   * 
1851:Lib/StdPeriphs/src/stm32f4xx_rcc.c ****   * @note   This function can be used only for STM32F413_423xx
1852:Lib/StdPeriphs/src/stm32f4xx_rcc.c ****   *   
1853:Lib/StdPeriphs/src/stm32f4xx_rcc.c ****   * @param   RCC_PLLI2SDivR: specifies the PLLI2S division factor for SAI1 clock.
1854:Lib/StdPeriphs/src/stm32f4xx_rcc.c ****   *          This parameter must be a number between 1 and 32.
1855:Lib/StdPeriphs/src/stm32f4xx_rcc.c ****   *          SAI1 clock frequency = f(PLLI2SR) / RCC_PLLI2SDivR 
1856:Lib/StdPeriphs/src/stm32f4xx_rcc.c ****   * @retval None
1857:Lib/StdPeriphs/src/stm32f4xx_rcc.c ****   */
1858:Lib/StdPeriphs/src/stm32f4xx_rcc.c **** void RCC_SAIPLLI2SRClkDivConfig(uint32_t RCC_PLLI2SDivR)  
1859:Lib/StdPeriphs/src/stm32f4xx_rcc.c **** {
1860:Lib/StdPeriphs/src/stm32f4xx_rcc.c ****   uint32_t tmpreg = 0;
1861:Lib/StdPeriphs/src/stm32f4xx_rcc.c ****   
1862:Lib/StdPeriphs/src/stm32f4xx_rcc.c ****   /* Check the parameters */
1863:Lib/StdPeriphs/src/stm32f4xx_rcc.c ****   assert_param(IS_RCC_PLLI2S_DIVR_VALUE(RCC_PLLI2SDivR));
1864:Lib/StdPeriphs/src/stm32f4xx_rcc.c ****   
1865:Lib/StdPeriphs/src/stm32f4xx_rcc.c ****   tmpreg = RCC->DCKCFGR;
1866:Lib/StdPeriphs/src/stm32f4xx_rcc.c **** 
1867:Lib/StdPeriphs/src/stm32f4xx_rcc.c ****   /* Clear PLLI2SDIVR[4:0] bits */
1868:Lib/StdPeriphs/src/stm32f4xx_rcc.c ****   tmpreg &= ~(RCC_DCKCFGR_PLLI2SDIVR);
1869:Lib/StdPeriphs/src/stm32f4xx_rcc.c **** 
1870:Lib/StdPeriphs/src/stm32f4xx_rcc.c ****   /* Set PLLI2SDIVR values */
1871:Lib/StdPeriphs/src/stm32f4xx_rcc.c ****   tmpreg |= (RCC_PLLI2SDivR-1);
1872:Lib/StdPeriphs/src/stm32f4xx_rcc.c **** 
1873:Lib/StdPeriphs/src/stm32f4xx_rcc.c ****   /* Store the new value */
1874:Lib/StdPeriphs/src/stm32f4xx_rcc.c ****   RCC->DCKCFGR = tmpreg;
1875:Lib/StdPeriphs/src/stm32f4xx_rcc.c **** }
1876:Lib/StdPeriphs/src/stm32f4xx_rcc.c **** 
1877:Lib/StdPeriphs/src/stm32f4xx_rcc.c **** /**
1878:Lib/StdPeriphs/src/stm32f4xx_rcc.c ****   * @brief  Configures the SAI clock Divider coming from PLL.
1879:Lib/StdPeriphs/src/stm32f4xx_rcc.c ****   * 
1880:Lib/StdPeriphs/src/stm32f4xx_rcc.c ****   * @note   This function can be used only for STM32F413_423xx
1881:Lib/StdPeriphs/src/stm32f4xx_rcc.c ****   *        
1882:Lib/StdPeriphs/src/stm32f4xx_rcc.c ****   * @note   This function must be called before enabling the PLLSAI.
1883:Lib/StdPeriphs/src/stm32f4xx_rcc.c ****   *   
1884:Lib/StdPeriphs/src/stm32f4xx_rcc.c ****   * @param  RCC_PLLDivR: specifies the PLL division factor for SAI1 clock.
1885:Lib/StdPeriphs/src/stm32f4xx_rcc.c ****   *          This parameter must be a number between 1 and 32.
1886:Lib/StdPeriphs/src/stm32f4xx_rcc.c ****   *          SAI1 clock frequency = f(PLLR) / RCC_PLLDivR 
1887:Lib/StdPeriphs/src/stm32f4xx_rcc.c ****   *              
1888:Lib/StdPeriphs/src/stm32f4xx_rcc.c ****   * @retval None
1889:Lib/StdPeriphs/src/stm32f4xx_rcc.c ****   */
1890:Lib/StdPeriphs/src/stm32f4xx_rcc.c **** void RCC_SAIPLLRClkDivConfig(uint32_t RCC_PLLDivR)  
1891:Lib/StdPeriphs/src/stm32f4xx_rcc.c **** {
1892:Lib/StdPeriphs/src/stm32f4xx_rcc.c ****   uint32_t tmpreg = 0;
1893:Lib/StdPeriphs/src/stm32f4xx_rcc.c ****   
1894:Lib/StdPeriphs/src/stm32f4xx_rcc.c ****   /* Check the parameters */
1895:Lib/StdPeriphs/src/stm32f4xx_rcc.c ****   assert_param(IS_RCC_PLL_DIVR_VALUE(RCC_PLLDivR));
1896:Lib/StdPeriphs/src/stm32f4xx_rcc.c ****   
1897:Lib/StdPeriphs/src/stm32f4xx_rcc.c ****   tmpreg = RCC->DCKCFGR;
1898:Lib/StdPeriphs/src/stm32f4xx_rcc.c **** 
1899:Lib/StdPeriphs/src/stm32f4xx_rcc.c ****   /* Clear PLLDIVR[12:8] */
1900:Lib/StdPeriphs/src/stm32f4xx_rcc.c ****   tmpreg &= ~(RCC_DCKCFGR_PLLDIVR);
1901:Lib/StdPeriphs/src/stm32f4xx_rcc.c **** 
1902:Lib/StdPeriphs/src/stm32f4xx_rcc.c ****   /* Set PLLDivR values */
1903:Lib/StdPeriphs/src/stm32f4xx_rcc.c ****   tmpreg |= ((RCC_PLLDivR - 1 ) << 8);
1904:Lib/StdPeriphs/src/stm32f4xx_rcc.c **** 
1905:Lib/StdPeriphs/src/stm32f4xx_rcc.c ****   /* Store the new value */
1906:Lib/StdPeriphs/src/stm32f4xx_rcc.c ****   RCC->DCKCFGR = tmpreg;
ARM GAS  C:\Users\asus\AppData\Local\Temp\ccEdY3aN.s 			page 58


1907:Lib/StdPeriphs/src/stm32f4xx_rcc.c **** }
1908:Lib/StdPeriphs/src/stm32f4xx_rcc.c **** #endif /* STM32F413_423xx */
1909:Lib/StdPeriphs/src/stm32f4xx_rcc.c **** 
1910:Lib/StdPeriphs/src/stm32f4xx_rcc.c **** /**
1911:Lib/StdPeriphs/src/stm32f4xx_rcc.c ****   * @brief  Configures the LTDC clock Divider coming from PLLSAI.
1912:Lib/StdPeriphs/src/stm32f4xx_rcc.c ****   * 
1913:Lib/StdPeriphs/src/stm32f4xx_rcc.c ****   * @note   The LTDC peripheral is only available with STM32F42xxx/43xxx/446xx/469xx/479xx Devices.
1914:Lib/StdPeriphs/src/stm32f4xx_rcc.c ****   *      
1915:Lib/StdPeriphs/src/stm32f4xx_rcc.c ****   * @note   This function must be called before enabling the PLLSAI.
1916:Lib/StdPeriphs/src/stm32f4xx_rcc.c ****   *   
1917:Lib/StdPeriphs/src/stm32f4xx_rcc.c ****   * @param  RCC_PLLSAIDivR: specifies the PLLSAI division factor for LTDC clock .
1918:Lib/StdPeriphs/src/stm32f4xx_rcc.c ****   *          LTDC clock frequency = f(PLLSAI_R) / RCC_PLLSAIDivR  
1919:Lib/StdPeriphs/src/stm32f4xx_rcc.c ****   *          This parameter can be one of the following values:
1920:Lib/StdPeriphs/src/stm32f4xx_rcc.c ****   *            @arg RCC_PLLSAIDivR_Div2: LTDC clock = f(PLLSAI_R)/2
1921:Lib/StdPeriphs/src/stm32f4xx_rcc.c ****   *            @arg RCC_PLLSAIDivR_Div4: LTDC clock = f(PLLSAI_R)/4
1922:Lib/StdPeriphs/src/stm32f4xx_rcc.c ****   *            @arg RCC_PLLSAIDivR_Div8: LTDC clock = f(PLLSAI_R)/8
1923:Lib/StdPeriphs/src/stm32f4xx_rcc.c ****   *            @arg RCC_PLLSAIDivR_Div16: LTDC clock = f(PLLSAI_R)/16
1924:Lib/StdPeriphs/src/stm32f4xx_rcc.c ****   *            
1925:Lib/StdPeriphs/src/stm32f4xx_rcc.c ****   * @retval None
1926:Lib/StdPeriphs/src/stm32f4xx_rcc.c ****   */
1927:Lib/StdPeriphs/src/stm32f4xx_rcc.c **** void RCC_LTDCCLKDivConfig(uint32_t RCC_PLLSAIDivR)
1928:Lib/StdPeriphs/src/stm32f4xx_rcc.c **** {
 1356              		.loc 1 1928 1 is_stmt 1 view -0
 1357              		.cfi_startproc
 1358              		@ args = 0, pretend = 0, frame = 0
 1359              		@ frame_needed = 0, uses_anonymous_args = 0
 1360              		@ link register save eliminated.
1929:Lib/StdPeriphs/src/stm32f4xx_rcc.c ****   uint32_t tmpreg = 0;
 1361              		.loc 1 1929 3 view .LVU365
1930:Lib/StdPeriphs/src/stm32f4xx_rcc.c ****   
1931:Lib/StdPeriphs/src/stm32f4xx_rcc.c ****   /* Check the parameters */
1932:Lib/StdPeriphs/src/stm32f4xx_rcc.c ****   assert_param(IS_RCC_PLLSAI_DIVR_VALUE(RCC_PLLSAIDivR));
 1362              		.loc 1 1932 3 view .LVU366
1933:Lib/StdPeriphs/src/stm32f4xx_rcc.c ****   
1934:Lib/StdPeriphs/src/stm32f4xx_rcc.c ****   tmpreg = RCC->DCKCFGR;
 1363              		.loc 1 1934 3 view .LVU367
 1364              		.loc 1 1934 10 is_stmt 0 view .LVU368
 1365 0000 044A     		ldr	r2, .L101
 1366 0002 D2F88C30 		ldr	r3, [r2, #140]
 1367              	.LVL108:
1935:Lib/StdPeriphs/src/stm32f4xx_rcc.c **** 
1936:Lib/StdPeriphs/src/stm32f4xx_rcc.c ****   /* Clear PLLSAIDIVR[2:0] bits */
1937:Lib/StdPeriphs/src/stm32f4xx_rcc.c ****   tmpreg &= ~RCC_DCKCFGR_PLLSAIDIVR;
 1368              		.loc 1 1937 3 is_stmt 1 view .LVU369
 1369              		.loc 1 1937 10 is_stmt 0 view .LVU370
 1370 0006 23F44033 		bic	r3, r3, #196608
 1371              	.LVL109:
1938:Lib/StdPeriphs/src/stm32f4xx_rcc.c **** 
1939:Lib/StdPeriphs/src/stm32f4xx_rcc.c ****   /* Set PLLSAIDIVR values */
1940:Lib/StdPeriphs/src/stm32f4xx_rcc.c ****   tmpreg |= RCC_PLLSAIDivR;
 1372              		.loc 1 1940 3 is_stmt 1 view .LVU371
 1373              		.loc 1 1940 10 is_stmt 0 view .LVU372
 1374 000a 0343     		orrs	r3, r3, r0
 1375              	.LVL110:
1941:Lib/StdPeriphs/src/stm32f4xx_rcc.c **** 
1942:Lib/StdPeriphs/src/stm32f4xx_rcc.c ****   /* Store the new value */
1943:Lib/StdPeriphs/src/stm32f4xx_rcc.c ****   RCC->DCKCFGR = tmpreg;
ARM GAS  C:\Users\asus\AppData\Local\Temp\ccEdY3aN.s 			page 59


 1376              		.loc 1 1943 3 is_stmt 1 view .LVU373
 1377              		.loc 1 1943 16 is_stmt 0 view .LVU374
 1378 000c C2F88C30 		str	r3, [r2, #140]
1944:Lib/StdPeriphs/src/stm32f4xx_rcc.c **** }
 1379              		.loc 1 1944 1 view .LVU375
 1380 0010 7047     		bx	lr
 1381              	.L102:
 1382 0012 00BF     		.align	2
 1383              	.L101:
 1384 0014 00380240 		.word	1073887232
 1385              		.cfi_endproc
 1386              	.LFE153:
 1388              		.section	.text.RCC_TIMCLKPresConfig,"ax",%progbits
 1389              		.align	1
 1390              		.global	RCC_TIMCLKPresConfig
 1391              		.syntax unified
 1392              		.thumb
 1393              		.thumb_func
 1395              	RCC_TIMCLKPresConfig:
 1396              	.LVL111:
 1397              	.LFB154:
1945:Lib/StdPeriphs/src/stm32f4xx_rcc.c **** 
1946:Lib/StdPeriphs/src/stm32f4xx_rcc.c **** #if defined(STM32F412xG) || defined(STM32F413_423xx)
1947:Lib/StdPeriphs/src/stm32f4xx_rcc.c **** /**
1948:Lib/StdPeriphs/src/stm32f4xx_rcc.c ****   * @brief  Configures the DFSDM clock source (DFSDMCLK).
1949:Lib/StdPeriphs/src/stm32f4xx_rcc.c ****   * @note   This function must be called before enabling the DFSDM APB clock.
1950:Lib/StdPeriphs/src/stm32f4xx_rcc.c ****   * @param  RCC_DFSDMCLKSource: specifies the DFSDM clock source.
1951:Lib/StdPeriphs/src/stm32f4xx_rcc.c ****   *          This parameter can be one of the following values:
1952:Lib/StdPeriphs/src/stm32f4xx_rcc.c ****   *            @arg RCC_DFSDMCLKSource_APB: APB clock used as DFSDM clock source.
1953:Lib/StdPeriphs/src/stm32f4xx_rcc.c ****   *            @arg RCC_DFSDMCLKSource_SYS: System clock used as DFSDM clock source.
1954:Lib/StdPeriphs/src/stm32f4xx_rcc.c ****   *                                        
1955:Lib/StdPeriphs/src/stm32f4xx_rcc.c ****   * @retval None
1956:Lib/StdPeriphs/src/stm32f4xx_rcc.c ****   */
1957:Lib/StdPeriphs/src/stm32f4xx_rcc.c **** void RCC_DFSDM1CLKConfig(uint32_t RCC_DFSDMCLKSource)
1958:Lib/StdPeriphs/src/stm32f4xx_rcc.c **** {
1959:Lib/StdPeriphs/src/stm32f4xx_rcc.c ****   uint32_t tmpreg = 0;
1960:Lib/StdPeriphs/src/stm32f4xx_rcc.c ****   
1961:Lib/StdPeriphs/src/stm32f4xx_rcc.c ****   /* Check the parameters */
1962:Lib/StdPeriphs/src/stm32f4xx_rcc.c ****   assert_param(IS_RCC_DFSDM1CLK_SOURCE(RCC_DFSDMCLKSource));
1963:Lib/StdPeriphs/src/stm32f4xx_rcc.c ****   
1964:Lib/StdPeriphs/src/stm32f4xx_rcc.c ****   tmpreg = RCC->DCKCFGR;
1965:Lib/StdPeriphs/src/stm32f4xx_rcc.c **** 
1966:Lib/StdPeriphs/src/stm32f4xx_rcc.c ****   /* Clear CKDFSDM-SEL  bit */
1967:Lib/StdPeriphs/src/stm32f4xx_rcc.c ****   tmpreg &= ~RCC_DCKCFGR_CKDFSDM1SEL;
1968:Lib/StdPeriphs/src/stm32f4xx_rcc.c **** 
1969:Lib/StdPeriphs/src/stm32f4xx_rcc.c ****   /* Set CKDFSDM-SEL bit according to RCC_DFSDMCLKSource value */
1970:Lib/StdPeriphs/src/stm32f4xx_rcc.c ****   tmpreg |= (RCC_DFSDMCLKSource << 31) ;
1971:Lib/StdPeriphs/src/stm32f4xx_rcc.c **** 
1972:Lib/StdPeriphs/src/stm32f4xx_rcc.c ****   /* Store the new value */
1973:Lib/StdPeriphs/src/stm32f4xx_rcc.c ****   RCC->DCKCFGR = tmpreg;
1974:Lib/StdPeriphs/src/stm32f4xx_rcc.c **** }
1975:Lib/StdPeriphs/src/stm32f4xx_rcc.c **** 
1976:Lib/StdPeriphs/src/stm32f4xx_rcc.c **** /**
1977:Lib/StdPeriphs/src/stm32f4xx_rcc.c ****   * @brief  Configures the DFSDM Audio clock source (DFSDMACLK).
1978:Lib/StdPeriphs/src/stm32f4xx_rcc.c ****   * @note   This function must be called before enabling the DFSDM APB clock.
1979:Lib/StdPeriphs/src/stm32f4xx_rcc.c ****   * @param  RCC_DFSDM1ACLKSource: specifies the DFSDM clock source.
1980:Lib/StdPeriphs/src/stm32f4xx_rcc.c ****   *          This parameter can be one of the following values:
ARM GAS  C:\Users\asus\AppData\Local\Temp\ccEdY3aN.s 			page 60


1981:Lib/StdPeriphs/src/stm32f4xx_rcc.c ****   *            @arg RCC_DFSDM1AUDIOCLKSOURCE_I2SAPB1: APB clock used as DFSDM clock source.
1982:Lib/StdPeriphs/src/stm32f4xx_rcc.c ****   *            @arg RCC_DFSDM1AUDIOCLKSOURCE_I2SAPB2: System clock used as DFSDM clock source.
1983:Lib/StdPeriphs/src/stm32f4xx_rcc.c ****   *                                        
1984:Lib/StdPeriphs/src/stm32f4xx_rcc.c ****   * @retval None
1985:Lib/StdPeriphs/src/stm32f4xx_rcc.c ****   */
1986:Lib/StdPeriphs/src/stm32f4xx_rcc.c **** void RCC_DFSDM1ACLKConfig(uint32_t RCC_DFSDM1ACLKSource)
1987:Lib/StdPeriphs/src/stm32f4xx_rcc.c **** {
1988:Lib/StdPeriphs/src/stm32f4xx_rcc.c ****   uint32_t tmpreg = 0;
1989:Lib/StdPeriphs/src/stm32f4xx_rcc.c ****   
1990:Lib/StdPeriphs/src/stm32f4xx_rcc.c ****   /* Check the parameters */
1991:Lib/StdPeriphs/src/stm32f4xx_rcc.c ****   assert_param(IS_RCC_DFSDMACLK_SOURCE(RCC_DFSDM1ACLKSource));
1992:Lib/StdPeriphs/src/stm32f4xx_rcc.c ****   
1993:Lib/StdPeriphs/src/stm32f4xx_rcc.c ****   tmpreg = RCC->DCKCFGR;
1994:Lib/StdPeriphs/src/stm32f4xx_rcc.c **** 
1995:Lib/StdPeriphs/src/stm32f4xx_rcc.c ****   /* Clear CKDFSDMA SEL  bit */
1996:Lib/StdPeriphs/src/stm32f4xx_rcc.c ****   tmpreg &= ~RCC_DCKCFGR_CKDFSDM1ASEL;
1997:Lib/StdPeriphs/src/stm32f4xx_rcc.c **** 
1998:Lib/StdPeriphs/src/stm32f4xx_rcc.c ****   /* Set CKDFSDM-SEL   bt according to RCC_DFSDMCLKSource value */
1999:Lib/StdPeriphs/src/stm32f4xx_rcc.c ****   tmpreg |= RCC_DFSDM1ACLKSource;
2000:Lib/StdPeriphs/src/stm32f4xx_rcc.c **** 
2001:Lib/StdPeriphs/src/stm32f4xx_rcc.c ****   /* Store the new value */
2002:Lib/StdPeriphs/src/stm32f4xx_rcc.c ****   RCC->DCKCFGR = tmpreg;
2003:Lib/StdPeriphs/src/stm32f4xx_rcc.c **** }
2004:Lib/StdPeriphs/src/stm32f4xx_rcc.c **** 
2005:Lib/StdPeriphs/src/stm32f4xx_rcc.c **** #if defined(STM32F413_423xx)
2006:Lib/StdPeriphs/src/stm32f4xx_rcc.c **** /**
2007:Lib/StdPeriphs/src/stm32f4xx_rcc.c ****   * @brief  Configures the DFSDM Audio clock source (DFSDMACLK).
2008:Lib/StdPeriphs/src/stm32f4xx_rcc.c ****   * @note   This function must be called before enabling the DFSDM APB clock.
2009:Lib/StdPeriphs/src/stm32f4xx_rcc.c ****   * @param  RCC_DFSDM2ACLKSource: specifies the DFSDM clock source.
2010:Lib/StdPeriphs/src/stm32f4xx_rcc.c ****   *          This parameter can be one of the following values:
2011:Lib/StdPeriphs/src/stm32f4xx_rcc.c ****   *            @arg RCC_DFSDM2AUDIOCLKSOURCE_I2SAPB1: APB clock used as DFSDM clock source.
2012:Lib/StdPeriphs/src/stm32f4xx_rcc.c ****   *            @arg RCC_DFSDM2AUDIOCLKSOURCE_I2SAPB2: System clock used as DFSDM clock source.
2013:Lib/StdPeriphs/src/stm32f4xx_rcc.c ****   *                                        
2014:Lib/StdPeriphs/src/stm32f4xx_rcc.c ****   * @retval None
2015:Lib/StdPeriphs/src/stm32f4xx_rcc.c ****   */
2016:Lib/StdPeriphs/src/stm32f4xx_rcc.c **** void RCC_DFSDM2ACLKConfig(uint32_t RCC_DFSDMACLKSource)
2017:Lib/StdPeriphs/src/stm32f4xx_rcc.c **** {
2018:Lib/StdPeriphs/src/stm32f4xx_rcc.c ****   uint32_t tmpreg = 0;
2019:Lib/StdPeriphs/src/stm32f4xx_rcc.c ****   
2020:Lib/StdPeriphs/src/stm32f4xx_rcc.c ****   /* Check the parameters */
2021:Lib/StdPeriphs/src/stm32f4xx_rcc.c ****   assert_param(IS_RCC_DFSDMCLK_SOURCE(RCC_DFSDMACLKSource));
2022:Lib/StdPeriphs/src/stm32f4xx_rcc.c ****   
2023:Lib/StdPeriphs/src/stm32f4xx_rcc.c ****   tmpreg = RCC->DCKCFGR;
2024:Lib/StdPeriphs/src/stm32f4xx_rcc.c **** 
2025:Lib/StdPeriphs/src/stm32f4xx_rcc.c ****   /* Clear CKDFSDMA SEL  bit */
2026:Lib/StdPeriphs/src/stm32f4xx_rcc.c ****   tmpreg &= ~RCC_DCKCFGR_CKDFSDM1ASEL;
2027:Lib/StdPeriphs/src/stm32f4xx_rcc.c **** 
2028:Lib/StdPeriphs/src/stm32f4xx_rcc.c ****   /* Set CKDFSDM-SEL   bt according to RCC_DFSDMCLKSource value */
2029:Lib/StdPeriphs/src/stm32f4xx_rcc.c ****   tmpreg |= RCC_DFSDMACLKSource;
2030:Lib/StdPeriphs/src/stm32f4xx_rcc.c **** 
2031:Lib/StdPeriphs/src/stm32f4xx_rcc.c ****   /* Store the new value */
2032:Lib/StdPeriphs/src/stm32f4xx_rcc.c ****   RCC->DCKCFGR = tmpreg;
2033:Lib/StdPeriphs/src/stm32f4xx_rcc.c **** }
2034:Lib/StdPeriphs/src/stm32f4xx_rcc.c **** #endif /* STM32F413_423xx */
2035:Lib/StdPeriphs/src/stm32f4xx_rcc.c **** #endif /* STM32F412xG || STM32F413_423xx */
2036:Lib/StdPeriphs/src/stm32f4xx_rcc.c **** 
2037:Lib/StdPeriphs/src/stm32f4xx_rcc.c **** /**
ARM GAS  C:\Users\asus\AppData\Local\Temp\ccEdY3aN.s 			page 61


2038:Lib/StdPeriphs/src/stm32f4xx_rcc.c ****   * @brief  Configures the Timers clocks prescalers selection.
2039:Lib/StdPeriphs/src/stm32f4xx_rcc.c ****   * 
2040:Lib/StdPeriphs/src/stm32f4xx_rcc.c ****   * @note   This function can be used only for STM32F42xxx/43xxx and STM32F401xx/411xE devices. 
2041:Lib/StdPeriphs/src/stm32f4xx_rcc.c ****   *   
2042:Lib/StdPeriphs/src/stm32f4xx_rcc.c ****   * @param  RCC_TIMCLKPrescaler : specifies the Timers clocks prescalers selection
2043:Lib/StdPeriphs/src/stm32f4xx_rcc.c ****   *         This parameter can be one of the following values:
2044:Lib/StdPeriphs/src/stm32f4xx_rcc.c ****   *            @arg RCC_TIMPrescDesactivated: The Timers kernels clocks prescaler is 
2045:Lib/StdPeriphs/src/stm32f4xx_rcc.c ****   *                 equal to HPRE if PPREx is corresponding to division by 1 or 2, 
2046:Lib/StdPeriphs/src/stm32f4xx_rcc.c ****   *                 else it is equal to [(HPRE * PPREx) / 2] if PPREx is corresponding to 
2047:Lib/StdPeriphs/src/stm32f4xx_rcc.c ****   *                 division by 4 or more.
2048:Lib/StdPeriphs/src/stm32f4xx_rcc.c ****   *                   
2049:Lib/StdPeriphs/src/stm32f4xx_rcc.c ****   *            @arg RCC_TIMPrescActivated: The Timers kernels clocks prescaler is 
2050:Lib/StdPeriphs/src/stm32f4xx_rcc.c ****   *                 equal to HPRE if PPREx is corresponding to division by 1, 2 or 4, 
2051:Lib/StdPeriphs/src/stm32f4xx_rcc.c ****   *                 else it is equal to [(HPRE * PPREx) / 4] if PPREx is corresponding 
2052:Lib/StdPeriphs/src/stm32f4xx_rcc.c ****   *                 to division by 8 or more.
2053:Lib/StdPeriphs/src/stm32f4xx_rcc.c ****   * @retval None
2054:Lib/StdPeriphs/src/stm32f4xx_rcc.c ****   */
2055:Lib/StdPeriphs/src/stm32f4xx_rcc.c **** void RCC_TIMCLKPresConfig(uint32_t RCC_TIMCLKPrescaler)
2056:Lib/StdPeriphs/src/stm32f4xx_rcc.c **** {
 1398              		.loc 1 2056 1 is_stmt 1 view -0
 1399              		.cfi_startproc
 1400              		@ args = 0, pretend = 0, frame = 0
 1401              		@ frame_needed = 0, uses_anonymous_args = 0
 1402              		@ link register save eliminated.
2057:Lib/StdPeriphs/src/stm32f4xx_rcc.c ****   /* Check the parameters */
2058:Lib/StdPeriphs/src/stm32f4xx_rcc.c ****   assert_param(IS_RCC_TIMCLK_PRESCALER(RCC_TIMCLKPrescaler));
 1403              		.loc 1 2058 3 view .LVU377
2059:Lib/StdPeriphs/src/stm32f4xx_rcc.c **** 
2060:Lib/StdPeriphs/src/stm32f4xx_rcc.c ****   *(__IO uint32_t *) DCKCFGR_TIMPRE_BB = RCC_TIMCLKPrescaler;
 1404              		.loc 1 2060 3 view .LVU378
 1405              		.loc 1 2060 40 is_stmt 0 view .LVU379
 1406 0000 014B     		ldr	r3, .L104
 1407 0002 C3F8E001 		str	r0, [r3, #480]
2061:Lib/StdPeriphs/src/stm32f4xx_rcc.c **** }
 1408              		.loc 1 2061 1 view .LVU380
 1409 0006 7047     		bx	lr
 1410              	.L105:
 1411              		.align	2
 1412              	.L104:
 1413 0008 00104742 		.word	1111953408
 1414              		.cfi_endproc
 1415              	.LFE154:
 1417              		.section	.text.RCC_AHB1PeriphClockCmd,"ax",%progbits
 1418              		.align	1
 1419              		.global	RCC_AHB1PeriphClockCmd
 1420              		.syntax unified
 1421              		.thumb
 1422              		.thumb_func
 1424              	RCC_AHB1PeriphClockCmd:
 1425              	.LVL112:
 1426              	.LFB155:
2062:Lib/StdPeriphs/src/stm32f4xx_rcc.c **** 
2063:Lib/StdPeriphs/src/stm32f4xx_rcc.c **** /**
2064:Lib/StdPeriphs/src/stm32f4xx_rcc.c ****   * @brief  Enables or disables the AHB1 peripheral clock.
2065:Lib/StdPeriphs/src/stm32f4xx_rcc.c ****   * @note   After reset, the peripheral clock (used for registers read/write access)
2066:Lib/StdPeriphs/src/stm32f4xx_rcc.c ****   *         is disabled and the application software has to enable this clock before 
2067:Lib/StdPeriphs/src/stm32f4xx_rcc.c ****   *         using it.   
ARM GAS  C:\Users\asus\AppData\Local\Temp\ccEdY3aN.s 			page 62


2068:Lib/StdPeriphs/src/stm32f4xx_rcc.c ****   * @param  RCC_AHBPeriph: specifies the AHB1 peripheral to gates its clock.
2069:Lib/StdPeriphs/src/stm32f4xx_rcc.c ****   *          This parameter can be any combination of the following values:
2070:Lib/StdPeriphs/src/stm32f4xx_rcc.c ****   *            @arg RCC_AHB1Periph_GPIOA:       GPIOA clock
2071:Lib/StdPeriphs/src/stm32f4xx_rcc.c ****   *            @arg RCC_AHB1Periph_GPIOB:       GPIOB clock 
2072:Lib/StdPeriphs/src/stm32f4xx_rcc.c ****   *            @arg RCC_AHB1Periph_GPIOC:       GPIOC clock
2073:Lib/StdPeriphs/src/stm32f4xx_rcc.c ****   *            @arg RCC_AHB1Periph_GPIOD:       GPIOD clock
2074:Lib/StdPeriphs/src/stm32f4xx_rcc.c ****   *            @arg RCC_AHB1Periph_GPIOE:       GPIOE clock
2075:Lib/StdPeriphs/src/stm32f4xx_rcc.c ****   *            @arg RCC_AHB1Periph_GPIOF:       GPIOF clock
2076:Lib/StdPeriphs/src/stm32f4xx_rcc.c ****   *            @arg RCC_AHB1Periph_GPIOG:       GPIOG clock
2077:Lib/StdPeriphs/src/stm32f4xx_rcc.c ****   *            @arg RCC_AHB1Periph_GPIOG:       GPIOG clock
2078:Lib/StdPeriphs/src/stm32f4xx_rcc.c ****   *            @arg RCC_AHB1Periph_GPIOI:       GPIOI clock
2079:Lib/StdPeriphs/src/stm32f4xx_rcc.c ****   *            @arg RCC_AHB1Periph_GPIOJ:       GPIOJ clock (STM32F42xxx/43xxx devices) 
2080:Lib/StdPeriphs/src/stm32f4xx_rcc.c ****   *            @arg RCC_AHB1Periph_GPIOK:       GPIOK clock (STM32F42xxx/43xxx devices)  
2081:Lib/StdPeriphs/src/stm32f4xx_rcc.c ****   *            @arg RCC_AHB1Periph_CRC:         CRC clock
2082:Lib/StdPeriphs/src/stm32f4xx_rcc.c ****   *            @arg RCC_AHB1Periph_BKPSRAM:     BKPSRAM interface clock
2083:Lib/StdPeriphs/src/stm32f4xx_rcc.c ****   *            @arg RCC_AHB1Periph_CCMDATARAMEN CCM data RAM interface clock
2084:Lib/StdPeriphs/src/stm32f4xx_rcc.c ****   *            @arg RCC_AHB1Periph_DMA1:        DMA1 clock
2085:Lib/StdPeriphs/src/stm32f4xx_rcc.c ****   *            @arg RCC_AHB1Periph_DMA2:        DMA2 clock
2086:Lib/StdPeriphs/src/stm32f4xx_rcc.c ****   *            @arg RCC_AHB1Periph_DMA2D:       DMA2D clock (STM32F429xx/439xx devices)  
2087:Lib/StdPeriphs/src/stm32f4xx_rcc.c ****   *            @arg RCC_AHB1Periph_ETH_MAC:     Ethernet MAC clock
2088:Lib/StdPeriphs/src/stm32f4xx_rcc.c ****   *            @arg RCC_AHB1Periph_ETH_MAC_Tx:  Ethernet Transmission clock
2089:Lib/StdPeriphs/src/stm32f4xx_rcc.c ****   *            @arg RCC_AHB1Periph_ETH_MAC_Rx:  Ethernet Reception clock
2090:Lib/StdPeriphs/src/stm32f4xx_rcc.c ****   *            @arg RCC_AHB1Periph_ETH_MAC_PTP: Ethernet PTP clock
2091:Lib/StdPeriphs/src/stm32f4xx_rcc.c ****   *            @arg RCC_AHB1Periph_OTG_HS:      USB OTG HS clock
2092:Lib/StdPeriphs/src/stm32f4xx_rcc.c ****   *            @arg RCC_AHB1Periph_OTG_HS_ULPI: USB OTG HS ULPI clock
2093:Lib/StdPeriphs/src/stm32f4xx_rcc.c ****   * @param  NewState: new state of the specified peripheral clock.
2094:Lib/StdPeriphs/src/stm32f4xx_rcc.c ****   *          This parameter can be: ENABLE or DISABLE.
2095:Lib/StdPeriphs/src/stm32f4xx_rcc.c ****   * @retval None
2096:Lib/StdPeriphs/src/stm32f4xx_rcc.c ****   */
2097:Lib/StdPeriphs/src/stm32f4xx_rcc.c **** void RCC_AHB1PeriphClockCmd(uint32_t RCC_AHB1Periph, FunctionalState NewState)
2098:Lib/StdPeriphs/src/stm32f4xx_rcc.c **** {
 1427              		.loc 1 2098 1 is_stmt 1 view -0
 1428              		.cfi_startproc
 1429              		@ args = 0, pretend = 0, frame = 0
 1430              		@ frame_needed = 0, uses_anonymous_args = 0
 1431              		@ link register save eliminated.
2099:Lib/StdPeriphs/src/stm32f4xx_rcc.c ****   /* Check the parameters */
2100:Lib/StdPeriphs/src/stm32f4xx_rcc.c ****   assert_param(IS_RCC_AHB1_CLOCK_PERIPH(RCC_AHB1Periph));
 1432              		.loc 1 2100 3 view .LVU382
2101:Lib/StdPeriphs/src/stm32f4xx_rcc.c **** 
2102:Lib/StdPeriphs/src/stm32f4xx_rcc.c ****   assert_param(IS_FUNCTIONAL_STATE(NewState));
 1433              		.loc 1 2102 3 view .LVU383
2103:Lib/StdPeriphs/src/stm32f4xx_rcc.c ****   if (NewState != DISABLE)
 1434              		.loc 1 2103 3 view .LVU384
 1435              		.loc 1 2103 6 is_stmt 0 view .LVU385
 1436 0000 21B1     		cbz	r1, .L107
2104:Lib/StdPeriphs/src/stm32f4xx_rcc.c ****   {
2105:Lib/StdPeriphs/src/stm32f4xx_rcc.c ****     RCC->AHB1ENR |= RCC_AHB1Periph;
 1437              		.loc 1 2105 5 is_stmt 1 view .LVU386
 1438              		.loc 1 2105 8 is_stmt 0 view .LVU387
 1439 0002 054A     		ldr	r2, .L109
 1440 0004 136B     		ldr	r3, [r2, #48]
 1441              		.loc 1 2105 18 view .LVU388
 1442 0006 0343     		orrs	r3, r3, r0
 1443 0008 1363     		str	r3, [r2, #48]
 1444 000a 7047     		bx	lr
 1445              	.L107:
ARM GAS  C:\Users\asus\AppData\Local\Temp\ccEdY3aN.s 			page 63


2106:Lib/StdPeriphs/src/stm32f4xx_rcc.c ****   }
2107:Lib/StdPeriphs/src/stm32f4xx_rcc.c ****   else
2108:Lib/StdPeriphs/src/stm32f4xx_rcc.c ****   {
2109:Lib/StdPeriphs/src/stm32f4xx_rcc.c ****     RCC->AHB1ENR &= ~RCC_AHB1Periph;
 1446              		.loc 1 2109 5 is_stmt 1 view .LVU389
 1447              		.loc 1 2109 8 is_stmt 0 view .LVU390
 1448 000c 024A     		ldr	r2, .L109
 1449 000e 136B     		ldr	r3, [r2, #48]
 1450              		.loc 1 2109 18 view .LVU391
 1451 0010 23EA0003 		bic	r3, r3, r0
 1452 0014 1363     		str	r3, [r2, #48]
2110:Lib/StdPeriphs/src/stm32f4xx_rcc.c ****   }
2111:Lib/StdPeriphs/src/stm32f4xx_rcc.c **** }
 1453              		.loc 1 2111 1 view .LVU392
 1454 0016 7047     		bx	lr
 1455              	.L110:
 1456              		.align	2
 1457              	.L109:
 1458 0018 00380240 		.word	1073887232
 1459              		.cfi_endproc
 1460              	.LFE155:
 1462              		.section	.text.RCC_AHB2PeriphClockCmd,"ax",%progbits
 1463              		.align	1
 1464              		.global	RCC_AHB2PeriphClockCmd
 1465              		.syntax unified
 1466              		.thumb
 1467              		.thumb_func
 1469              	RCC_AHB2PeriphClockCmd:
 1470              	.LVL113:
 1471              	.LFB156:
2112:Lib/StdPeriphs/src/stm32f4xx_rcc.c **** 
2113:Lib/StdPeriphs/src/stm32f4xx_rcc.c **** /**
2114:Lib/StdPeriphs/src/stm32f4xx_rcc.c ****   * @brief  Enables or disables the AHB2 peripheral clock.
2115:Lib/StdPeriphs/src/stm32f4xx_rcc.c ****   * @note   After reset, the peripheral clock (used for registers read/write access)
2116:Lib/StdPeriphs/src/stm32f4xx_rcc.c ****   *         is disabled and the application software has to enable this clock before 
2117:Lib/StdPeriphs/src/stm32f4xx_rcc.c ****   *         using it. 
