ARM GAS  C:\Users\asus\AppData\Local\Temp\ccNx8Yqz.s 			page 1


   1              		.cpu cortex-m4
   2              		.arch armv7e-m
   3              		.fpu fpv4-sp-d16
   4              		.eabi_attribute 27, 1
   5              		.eabi_attribute 28, 1
   6              		.eabi_attribute 20, 1
   7              		.eabi_attribute 21, 1
   8              		.eabi_attribute 23, 3
   9              		.eabi_attribute 24, 1
  10              		.eabi_attribute 25, 1
  11              		.eabi_attribute 26, 1
  12              		.eabi_attribute 30, 1
  13              		.eabi_attribute 34, 1
  14              		.eabi_attribute 18, 4
  15              		.file	"sys.c"
  16              		.text
  17              	.Ltext0:
  18              		.cfi_sections	.debug_frame
  19              		.file 1 "MyHardWare/Src/sys.c"
  20              		.section	.text.WFI_SET,"ax",%progbits
  21              		.align	1
  22              		.global	WFI_SET
  23              		.syntax unified
  24              		.thumb
  25              		.thumb_func
  27              	WFI_SET:
  28              	.LFB123:
   1:MyHardWare/Src/sys.c **** #include "sys.h"
   2:MyHardWare/Src/sys.c **** 
   3:MyHardWare/Src/sys.c **** // THUMB指令不支持汇编内联
   4:MyHardWare/Src/sys.c **** // 采用如下方法实现执行汇编指令WFI
   5:MyHardWare/Src/sys.c **** 
   6:MyHardWare/Src/sys.c **** void WFI_SET(void) { __asm volatile("WFI"); }
  29              		.loc 1 6 20 view -0
  30              		.cfi_startproc
  31              		@ args = 0, pretend = 0, frame = 0
  32              		@ frame_needed = 0, uses_anonymous_args = 0
  33              		@ link register save eliminated.
  34              		.loc 1 6 22 view .LVU1
  35              		.syntax unified
  36              	@ 6 "MyHardWare/Src/sys.c" 1
  37 0000 30BF     		WFI
  38              	@ 0 "" 2
  39              		.loc 1 6 45 is_stmt 0 view .LVU2
  40              		.thumb
  41              		.syntax unified
  42 0002 7047     		bx	lr
  43              		.cfi_endproc
  44              	.LFE123:
  46              		.section	.text.INTX_DISABLE,"ax",%progbits
  47              		.align	1
  48              		.global	INTX_DISABLE
  49              		.syntax unified
  50              		.thumb
  51              		.thumb_func
  53              	INTX_DISABLE:
  54              	.LFB124:
ARM GAS  C:\Users\asus\AppData\Local\Temp\ccNx8Yqz.s 			page 2


   7:MyHardWare/Src/sys.c **** 
   8:MyHardWare/Src/sys.c **** void INTX_DISABLE(void) { __asm volatile("CPSID I"); }
  55              		.loc 1 8 25 is_stmt 1 view -0
  56              		.cfi_startproc
  57              		@ args = 0, pretend = 0, frame = 0
  58              		@ frame_needed = 0, uses_anonymous_args = 0
  59              		@ link register save eliminated.
  60              		.loc 1 8 27 view .LVU4
  61              		.syntax unified
  62              	@ 8 "MyHardWare/Src/sys.c" 1
  63 0000 72B6     		CPSID I
  64              	@ 0 "" 2
  65              		.loc 1 8 54 is_stmt 0 view .LVU5
  66              		.thumb
  67              		.syntax unified
  68 0002 7047     		bx	lr
  69              		.cfi_endproc
  70              	.LFE124:
  72              		.section	.text.INTX_ENABLE,"ax",%progbits
  73              		.align	1
  74              		.global	INTX_ENABLE
  75              		.syntax unified
  76              		.thumb
  77              		.thumb_func
  79              	INTX_ENABLE:
  80              	.LFB125:
   9:MyHardWare/Src/sys.c **** 
  10:MyHardWare/Src/sys.c **** void INTX_ENABLE(void) { __asm volatile("CPSIE I"); }
  81              		.loc 1 10 24 is_stmt 1 view -0
  82              		.cfi_startproc
  83              		@ args = 0, pretend = 0, frame = 0
  84              		@ frame_needed = 0, uses_anonymous_args = 0
  85              		@ link register save eliminated.
  86              		.loc 1 10 26 view .LVU7
  87              		.syntax unified
  88              	@ 10 "MyHardWare/Src/sys.c" 1
  89 0000 62B6     		CPSIE I
  90              	@ 0 "" 2
  91              		.loc 1 10 53 is_stmt 0 view .LVU8
  92              		.thumb
  93              		.syntax unified
  94 0002 7047     		bx	lr
  95              		.cfi_endproc
  96              	.LFE125:
  98              		.section	.text.MSR_MSP,"ax",%progbits
  99              		.align	1
 100              		.global	MSR_MSP
 101              		.syntax unified
 102              		.thumb
 103              		.thumb_func
 105              	MSR_MSP:
 106              	.LVL0:
 107              	.LFB126:
  11:MyHardWare/Src/sys.c **** 
  12:MyHardWare/Src/sys.c **** void MSR_MSP(u32 addr) { __asm volatile("MSR MSP, %0" : : "r"(addr)); }
 108              		.loc 1 12 24 is_stmt 1 view -0
 109              		.cfi_startproc
ARM GAS  C:\Users\asus\AppData\Local\Temp\ccNx8Yqz.s 			page 3


 110              		@ args = 0, pretend = 0, frame = 0
 111              		@ frame_needed = 0, uses_anonymous_args = 0
 112              		@ link register save eliminated.
 113              		.loc 1 12 26 view .LVU10
 114              		.syntax unified
 115              	@ 12 "MyHardWare/Src/sys.c" 1
 116 0000 80F30888 		MSR MSP, r0
 117              	@ 0 "" 2
 118              		.loc 1 12 71 is_stmt 0 view .LVU11
 119              		.thumb
 120              		.syntax unified
 121 0004 7047     		bx	lr
 122              		.cfi_endproc
 123              	.LFE126:
 125              		.text
 126              	.Letext0:
 127              		.file 2 "C:/Program Files (x86)/Arm GNU Toolchain arm-none-eabi/13.2 Rel1/arm-none-eabi/include/ma
 128              		.file 3 "C:/Program Files (x86)/Arm GNU Toolchain arm-none-eabi/13.2 Rel1/arm-none-eabi/include/sy
 129              		.file 4 "CMSIS/stm32f4xx.h"
ARM GAS  C:\Users\asus\AppData\Local\Temp\ccNx8Yqz.s 			page 4

