ARM GAS  /tmp/ccUS3QqX.s 			page 1


   1              		.cpu cortex-m4
   2              		.arch armv7e-m
   3              		.fpu fpv4-sp-d16
   4              		.eabi_attribute 27, 1
   5              		.eabi_attribute 28, 1
   6              		.eabi_attribute 20, 1
   7              		.eabi_attribute 21, 1
   8              		.eabi_attribute 23, 3
   9              		.eabi_attribute 24, 1
  10              		.eabi_attribute 25, 1
  11              		.eabi_attribute 26, 1
  12              		.eabi_attribute 30, 1
  13              		.eabi_attribute 34, 1
  14              		.eabi_attribute 18, 4
  15              		.file	"TCRT5000.c"
  16              		.text
  17              	.Ltext0:
  18              		.cfi_sections	.debug_frame
  19              		.file 1 "MyHardWare/Src/TCRT5000.c"
  20              		.section	.text.TCRT_GPIOInit,"ax",%progbits
  21              		.align	1
  22              		.global	TCRT_GPIOInit
  23              		.syntax unified
  24              		.thumb
  25              		.thumb_func
  27              	TCRT_GPIOInit:
  28              	.LFB123:
   1:MyHardWare/Src/TCRT5000.c **** 
   2:MyHardWare/Src/TCRT5000.c **** #include "TCRT5000.h"
   3:MyHardWare/Src/TCRT5000.c **** #include <stdint.h>
   4:MyHardWare/Src/TCRT5000.c **** volatile TCRT Tcrt;
   5:MyHardWare/Src/TCRT5000.c **** void TCRT_GPIOInit(void) {
  29              		.loc 1 5 26 view -0
  30              		.cfi_startproc
  31              		@ args = 0, pretend = 0, frame = 8
  32              		@ frame_needed = 0, uses_anonymous_args = 0
  33 0000 10B5     		push	{r4, lr}
  34              	.LCFI0:
  35              		.cfi_def_cfa_offset 8
  36              		.cfi_offset 4, -8
  37              		.cfi_offset 14, -4
  38 0002 82B0     		sub	sp, sp, #8
  39              	.LCFI1:
  40              		.cfi_def_cfa_offset 16
   6:MyHardWare/Src/TCRT5000.c ****   RCC_AHB1PeriphClockCmd(TCRT_AO_CLK | TCRTDO_CLK, ENABLE);
  41              		.loc 1 6 3 view .LVU1
  42 0004 0121     		movs	r1, #1
  43 0006 0846     		mov	r0, r1
  44 0008 FFF7FEFF 		bl	RCC_AHB1PeriphClockCmd
  45              	.LVL0:
   7:MyHardWare/Src/TCRT5000.c ****   GPIO_InitTypeDef GPIO_InitStructrue;
  46              		.loc 1 7 3 view .LVU2
   8:MyHardWare/Src/TCRT5000.c ****   GPIO_InitStructrue.GPIO_Mode = GPIO_Mode_AIN;
  47              		.loc 1 8 3 view .LVU3
  48              		.loc 1 8 32 is_stmt 0 view .LVU4
  49 000c 0323     		movs	r3, #3
  50 000e 8DF80430 		strb	r3, [sp, #4]
ARM GAS  /tmp/ccUS3QqX.s 			page 2


   9:MyHardWare/Src/TCRT5000.c ****   GPIO_InitStructrue.GPIO_Pin = TCRT_AO_Pin;
  51              		.loc 1 9 3 is_stmt 1 view .LVU5
  52              		.loc 1 9 31 is_stmt 0 view .LVU6
  53 0012 0422     		movs	r2, #4
  54 0014 0092     		str	r2, [sp]
  10:MyHardWare/Src/TCRT5000.c ****   GPIO_InitStructrue.GPIO_PuPd = GPIO_PuPd_NOPULL;
  55              		.loc 1 10 3 is_stmt 1 view .LVU7
  56              		.loc 1 10 32 is_stmt 0 view .LVU8
  57 0016 0022     		movs	r2, #0
  58 0018 8DF80720 		strb	r2, [sp, #7]
  11:MyHardWare/Src/TCRT5000.c ****   GPIO_InitStructrue.GPIO_Speed = GPIO_Speed_100MHz;
  59              		.loc 1 11 3 is_stmt 1 view .LVU9
  60              		.loc 1 11 33 is_stmt 0 view .LVU10
  61 001c 8DF80530 		strb	r3, [sp, #5]
  12:MyHardWare/Src/TCRT5000.c ****   GPIO_Init(TCRT_AO_Port, &GPIO_InitStructrue);
  62              		.loc 1 12 3 is_stmt 1 view .LVU11
  63 0020 064C     		ldr	r4, .L3
  64 0022 6946     		mov	r1, sp
  65 0024 2046     		mov	r0, r4
  66 0026 FFF7FEFF 		bl	GPIO_Init
  67              	.LVL1:
  13:MyHardWare/Src/TCRT5000.c ****   GPIO_InitStructrue.GPIO_Pin = TCRT_DO_Pin;
  68              		.loc 1 13 3 view .LVU12
  69              		.loc 1 13 31 is_stmt 0 view .LVU13
  70 002a 4FF48073 		mov	r3, #256
  71 002e 0093     		str	r3, [sp]
  14:MyHardWare/Src/TCRT5000.c ****   GPIO_Init(TCRT_DO_Port, &GPIO_InitStructrue);
  72              		.loc 1 14 3 is_stmt 1 view .LVU14
  73 0030 6946     		mov	r1, sp
  74 0032 2046     		mov	r0, r4
  75 0034 FFF7FEFF 		bl	GPIO_Init
  76              	.LVL2:
  15:MyHardWare/Src/TCRT5000.c **** }
  77              		.loc 1 15 1 is_stmt 0 view .LVU15
  78 0038 02B0     		add	sp, sp, #8
  79              	.LCFI2:
  80              		.cfi_def_cfa_offset 8
  81              		@ sp needed
  82 003a 10BD     		pop	{r4, pc}
  83              	.L4:
  84              		.align	2
  85              	.L3:
  86 003c 00000240 		.word	1073872896
  87              		.cfi_endproc
  88              	.LFE123:
  90              		.section	.text.TCRT_Time_Init,"ax",%progbits
  91              		.align	1
  92              		.global	TCRT_Time_Init
  93              		.syntax unified
  94              		.thumb
  95              		.thumb_func
  97              	TCRT_Time_Init:
  98              	.LFB124:
  16:MyHardWare/Src/TCRT5000.c **** // 可选TIM3作为ADC的触发源
  17:MyHardWare/Src/TCRT5000.c **** void TCRT_Time_Init(void) {
  99              		.loc 1 17 27 is_stmt 1 view -0
 100              		.cfi_startproc
ARM GAS  /tmp/ccUS3QqX.s 			page 3


 101              		@ args = 0, pretend = 0, frame = 16
 102              		@ frame_needed = 0, uses_anonymous_args = 0
 103 0000 10B5     		push	{r4, lr}
 104              	.LCFI3:
 105              		.cfi_def_cfa_offset 8
 106              		.cfi_offset 4, -8
 107              		.cfi_offset 14, -4
 108 0002 84B0     		sub	sp, sp, #16
 109              	.LCFI4:
 110              		.cfi_def_cfa_offset 24
  18:MyHardWare/Src/TCRT5000.c **** 
  19:MyHardWare/Src/TCRT5000.c ****   RCC_APB1PeriphClockCmd(RCC_APB1Periph_TIM3, ENABLE);
 111              		.loc 1 19 3 view .LVU17
 112 0004 0121     		movs	r1, #1
 113 0006 0220     		movs	r0, #2
 114 0008 FFF7FEFF 		bl	RCC_APB1PeriphClockCmd
 115              	.LVL3:
  20:MyHardWare/Src/TCRT5000.c **** 
  21:MyHardWare/Src/TCRT5000.c ****   TIM_TimeBaseInitTypeDef TIM_TimeBaseInitStructure;
 116              		.loc 1 21 3 view .LVU18
  22:MyHardWare/Src/TCRT5000.c **** 
  23:MyHardWare/Src/TCRT5000.c ****   // 配置100kHz触发频率：
  24:MyHardWare/Src/TCRT5000.c ****   // TIM3时钟 = 84MHz (APB1 42MHz × 2)
  25:MyHardWare/Src/TCRT5000.c ****   // 目标频率 = 100kHz
  26:MyHardWare/Src/TCRT5000.c ****   // 计算：84MHz / (PSC+1) / (ARR+1) = 100kHz
  27:MyHardWare/Src/TCRT5000.c ****   // 设置：PSC = 83, ARR = 9
  28:MyHardWare/Src/TCRT5000.c ****   // 实际频率：84MHz / 84 / 10 = 100kHz
  29:MyHardWare/Src/TCRT5000.c **** 
  30:MyHardWare/Src/TCRT5000.c ****   TIM_TimeBaseInitStructure.TIM_ClockDivision = TIM_CKD_DIV1; // 时钟不分频
 117              		.loc 1 30 3 view .LVU19
 118              		.loc 1 30 47 is_stmt 0 view .LVU20
 119 000c 0023     		movs	r3, #0
 120 000e ADF80C30 		strh	r3, [sp, #12]	@ movhi
  31:MyHardWare/Src/TCRT5000.c ****   TIM_TimeBaseInitStructure.TIM_CounterMode =
 121              		.loc 1 31 3 is_stmt 1 view .LVU21
 122              		.loc 1 31 45 is_stmt 0 view .LVU22
 123 0012 ADF80630 		strh	r3, [sp, #6]	@ movhi
  32:MyHardWare/Src/TCRT5000.c ****       TIM_CounterMode_Up; // 向上计数模式
  33:MyHardWare/Src/TCRT5000.c ****   TIM_TimeBaseInitStructure.TIM_RepetitionCounter =
 124              		.loc 1 33 3 is_stmt 1 view .LVU23
 125              		.loc 1 33 51 is_stmt 0 view .LVU24
 126 0016 8DF80E30 		strb	r3, [sp, #14]
  34:MyHardWare/Src/TCRT5000.c ****       0; // 重复计数器（基本定时器不使用）
  35:MyHardWare/Src/TCRT5000.c ****   TIM_TimeBaseInitStructure.TIM_Period = 10 - 1;    // 自动重装载值 ARR = 9
 127              		.loc 1 35 3 is_stmt 1 view .LVU25
 128              		.loc 1 35 40 is_stmt 0 view .LVU26
 129 001a 0923     		movs	r3, #9
 130 001c 0293     		str	r3, [sp, #8]
  36:MyHardWare/Src/TCRT5000.c ****   TIM_TimeBaseInitStructure.TIM_Prescaler = 84 - 1; // 预分频器值 PSC = 83
 131              		.loc 1 36 3 is_stmt 1 view .LVU27
 132              		.loc 1 36 43 is_stmt 0 view .LVU28
 133 001e 5323     		movs	r3, #83
 134 0020 ADF80430 		strh	r3, [sp, #4]	@ movhi
  37:MyHardWare/Src/TCRT5000.c **** 
  38:MyHardWare/Src/TCRT5000.c ****   TIM_TimeBaseInit(TIM3, &TIM_TimeBaseInitStructure);
 135              		.loc 1 38 3 is_stmt 1 view .LVU29
 136 0024 074C     		ldr	r4, .L7
ARM GAS  /tmp/ccUS3QqX.s 			page 4


 137 0026 01A9     		add	r1, sp, #4
 138 0028 2046     		mov	r0, r4
 139 002a FFF7FEFF 		bl	TIM_TimeBaseInit
 140              	.LVL4:
  39:MyHardWare/Src/TCRT5000.c **** 
  40:MyHardWare/Src/TCRT5000.c ****   // 使能TIM3的主模式输出，触发ADC
  41:MyHardWare/Src/TCRT5000.c ****   TIM_SelectOutputTrigger(TIM3,
 141              		.loc 1 41 3 view .LVU30
 142 002e 2021     		movs	r1, #32
 143 0030 2046     		mov	r0, r4
 144 0032 FFF7FEFF 		bl	TIM_SelectOutputTrigger
 145              	.LVL5:
  42:MyHardWare/Src/TCRT5000.c ****                           TIM_TRGOSource_Update); // 使用更新事件作为触发输出
  43:MyHardWare/Src/TCRT5000.c **** 
  44:MyHardWare/Src/TCRT5000.c ****   TIM_Cmd(TIM3, ENABLE); // 使能TIM3
 146              		.loc 1 44 3 view .LVU31
 147 0036 0121     		movs	r1, #1
 148 0038 2046     		mov	r0, r4
 149 003a FFF7FEFF 		bl	TIM_Cmd
 150              	.LVL6:
  45:MyHardWare/Src/TCRT5000.c **** }
 151              		.loc 1 45 1 is_stmt 0 view .LVU32
 152 003e 04B0     		add	sp, sp, #16
 153              	.LCFI5:
 154              		.cfi_def_cfa_offset 8
 155              		@ sp needed
 156 0040 10BD     		pop	{r4, pc}
 157              	.L8:
 158 0042 00BF     		.align	2
 159              	.L7:
 160 0044 00040040 		.word	1073742848
 161              		.cfi_endproc
 162              	.LFE124:
 164              		.section	.text.TCRT_ADC_Init,"ax",%progbits
 165              		.align	1
 166              		.global	TCRT_ADC_Init
 167              		.syntax unified
 168              		.thumb
 169              		.thumb_func
 171              	TCRT_ADC_Init:
 172              	.LFB125:
  46:MyHardWare/Src/TCRT5000.c **** void TCRT_ADC_Init(void) {
 173              		.loc 1 46 26 is_stmt 1 view -0
 174              		.cfi_startproc
 175              		@ args = 0, pretend = 0, frame = 40
 176              		@ frame_needed = 0, uses_anonymous_args = 0
 177 0000 30B5     		push	{r4, r5, lr}
 178              	.LCFI6:
 179              		.cfi_def_cfa_offset 12
 180              		.cfi_offset 4, -12
 181              		.cfi_offset 5, -8
 182              		.cfi_offset 14, -4
 183 0002 8BB0     		sub	sp, sp, #44
 184              	.LCFI7:
 185              		.cfi_def_cfa_offset 56
  47:MyHardWare/Src/TCRT5000.c **** 
  48:MyHardWare/Src/TCRT5000.c ****   RCC_APB2PeriphClockCmd(TCRT_ADC_CLK, ENABLE);
ARM GAS  /tmp/ccUS3QqX.s 			page 5


 186              		.loc 1 48 3 view .LVU34
 187 0004 0121     		movs	r1, #1
 188 0006 4FF48070 		mov	r0, #256
 189 000a FFF7FEFF 		bl	RCC_APB2PeriphClockCmd
 190              	.LVL7:
  49:MyHardWare/Src/TCRT5000.c ****   ADC_CommonInitTypeDef ADC_CommonInitStructure;
 191              		.loc 1 49 3 view .LVU35
  50:MyHardWare/Src/TCRT5000.c ****   ADC_CommonInitStructure.ADC_DMAAccessMode = ADC_DMAAccessMode_Disabled;
 192              		.loc 1 50 3 view .LVU36
 193              		.loc 1 50 45 is_stmt 0 view .LVU37
 194 000e 0024     		movs	r4, #0
 195 0010 0894     		str	r4, [sp, #32]
  51:MyHardWare/Src/TCRT5000.c ****   ADC_CommonInitStructure.ADC_Mode = ADC_Mode_Independent;
 196              		.loc 1 51 3 is_stmt 1 view .LVU38
 197              		.loc 1 51 36 is_stmt 0 view .LVU39
 198 0012 0694     		str	r4, [sp, #24]
  52:MyHardWare/Src/TCRT5000.c ****   ADC_CommonInitStructure.ADC_Prescaler = ADC_Prescaler_Div4;
 199              		.loc 1 52 3 is_stmt 1 view .LVU40
 200              		.loc 1 52 41 is_stmt 0 view .LVU41
 201 0014 4FF48033 		mov	r3, #65536
 202 0018 0793     		str	r3, [sp, #28]
  53:MyHardWare/Src/TCRT5000.c ****   ADC_CommonInit(&ADC_CommonInitStructure);
 203              		.loc 1 53 3 is_stmt 1 view .LVU42
 204 001a 06A8     		add	r0, sp, #24
 205 001c FFF7FEFF 		bl	ADC_CommonInit
 206              	.LVL8:
  54:MyHardWare/Src/TCRT5000.c ****   ADC_InitTypeDef ADC_InitStructure;
 207              		.loc 1 54 3 view .LVU43
  55:MyHardWare/Src/TCRT5000.c ****   ADC_InitStructure.ADC_ScanConvMode = DISABLE;       // 单通道模式
 208              		.loc 1 55 3 view .LVU44
 209              		.loc 1 55 38 is_stmt 0 view .LVU45
 210 0020 8DF80440 		strb	r4, [sp, #4]
  56:MyHardWare/Src/TCRT5000.c ****   ADC_InitStructure.ADC_ContinuousConvMode = DISABLE; // 非连续转换，由外部触发
 211              		.loc 1 56 3 is_stmt 1 view .LVU46
 212              		.loc 1 56 44 is_stmt 0 view .LVU47
 213 0024 8DF80540 		strb	r4, [sp, #5]
  57:MyHardWare/Src/TCRT5000.c ****   ADC_InitStructure.ADC_ExternalTrigConvEdge = ADC_ExternalTrigConvEdge_None;
 214              		.loc 1 57 3 is_stmt 1 view .LVU48
 215              		.loc 1 57 46 is_stmt 0 view .LVU49
 216 0028 0294     		str	r4, [sp, #8]
  58:MyHardWare/Src/TCRT5000.c ****   ADC_InitStructure.ADC_ExternalTrigConv = ADC_ExternalTrigConv_T1_CC1;
 217              		.loc 1 58 3 is_stmt 1 view .LVU50
 218              		.loc 1 58 42 is_stmt 0 view .LVU51
 219 002a 0394     		str	r4, [sp, #12]
  59:MyHardWare/Src/TCRT5000.c ****   // 使用Time的更新事件进行触发
  60:MyHardWare/Src/TCRT5000.c ****   /*
  61:MyHardWare/Src/TCRT5000.c ****   ADC_InitStructure.ADC_ExternalTrigConv =
  62:MyHardWare/Src/TCRT5000.c ****       ADC_ExternalTrigConv_T3_TRGO; // TIM3触发
  63:MyHardWare/Src/TCRT5000.c ****   ADC_InitStructure.ADC_ExternalTrigConvEdge =
  64:MyHardWare/Src/TCRT5000.c ****       ADC_ExternalTrigConvEdge_Rising;                   // 上升沿触发
  65:MyHardWare/Src/TCRT5000.c ****   */
  66:MyHardWare/Src/TCRT5000.c ****   ADC_InitStructure.ADC_DataAlign = ADC_DataAlign_Right; // 数据右对齐
 220              		.loc 1 66 3 is_stmt 1 view .LVU52
 221              		.loc 1 66 35 is_stmt 0 view .LVU53
 222 002c 0494     		str	r4, [sp, #16]
  67:MyHardWare/Src/TCRT5000.c ****   ADC_InitStructure.ADC_Resolution = ADC_Resolution_12b; // 12位分辨率
 223              		.loc 1 67 3 is_stmt 1 view .LVU54
ARM GAS  /tmp/ccUS3QqX.s 			page 6


 224              		.loc 1 67 36 is_stmt 0 view .LVU55
 225 002e 0094     		str	r4, [sp]
  68:MyHardWare/Src/TCRT5000.c ****   ADC_InitStructure.ADC_NbrOfConversion = 1;             // 1个转换通道
 226              		.loc 1 68 3 is_stmt 1 view .LVU56
 227              		.loc 1 68 41 is_stmt 0 view .LVU57
 228 0030 0125     		movs	r5, #1
 229 0032 8DF81450 		strb	r5, [sp, #20]
  69:MyHardWare/Src/TCRT5000.c ****   ADC_Init(TCRT_ADC, &ADC_InitStructure);
 230              		.loc 1 69 3 is_stmt 1 view .LVU58
 231 0036 04F18044 		add	r4, r4, #1073741824
 232 003a 04F59034 		add	r4, r4, #73728
 233 003e 6946     		mov	r1, sp
 234 0040 2046     		mov	r0, r4
 235 0042 FFF7FEFF 		bl	ADC_Init
 236              	.LVL9:
  70:MyHardWare/Src/TCRT5000.c ****   ADC_RegularChannelConfig(ADC1, ADC_Channel_2, 1, ADC_SampleTime_28Cycles);
 237              		.loc 1 70 3 view .LVU59
 238 0046 0223     		movs	r3, #2
 239 0048 2A46     		mov	r2, r5
 240 004a 1946     		mov	r1, r3
 241 004c 2046     		mov	r0, r4
 242 004e FFF7FEFF 		bl	ADC_RegularChannelConfig
 243              	.LVL10:
  71:MyHardWare/Src/TCRT5000.c ****   ADC_Cmd(TCRT_ADC, ENABLE);
 244              		.loc 1 71 3 view .LVU60
 245 0052 2946     		mov	r1, r5
 246 0054 2046     		mov	r0, r4
 247 0056 FFF7FEFF 		bl	ADC_Cmd
 248              	.LVL11:
  72:MyHardWare/Src/TCRT5000.c **** }
 249              		.loc 1 72 1 is_stmt 0 view .LVU61
 250 005a 0BB0     		add	sp, sp, #44
 251              	.LCFI8:
 252              		.cfi_def_cfa_offset 12
 253              		@ sp needed
 254 005c 30BD     		pop	{r4, r5, pc}
 255              		.cfi_endproc
 256              	.LFE125:
 258              		.section	.text.TCRT_Init,"ax",%progbits
 259              		.align	1
 260              		.global	TCRT_Init
 261              		.syntax unified
 262              		.thumb
 263              		.thumb_func
 265              	TCRT_Init:
 266              	.LFB126:
  73:MyHardWare/Src/TCRT5000.c **** void TCRT_Init(void) {
 267              		.loc 1 73 22 is_stmt 1 view -0
 268              		.cfi_startproc
 269              		@ args = 0, pretend = 0, frame = 0
 270              		@ frame_needed = 0, uses_anonymous_args = 0
 271 0000 08B5     		push	{r3, lr}
 272              	.LCFI9:
 273              		.cfi_def_cfa_offset 8
 274              		.cfi_offset 3, -8
 275              		.cfi_offset 14, -4
  74:MyHardWare/Src/TCRT5000.c ****   RCC_APB2PeriphClockCmd(RCC_APB2Periph_ADC1, ENABLE);
ARM GAS  /tmp/ccUS3QqX.s 			page 7


 276              		.loc 1 74 3 view .LVU63
 277 0002 0121     		movs	r1, #1
 278 0004 4FF48070 		mov	r0, #256
 279 0008 FFF7FEFF 		bl	RCC_APB2PeriphClockCmd
 280              	.LVL12:
  75:MyHardWare/Src/TCRT5000.c **** 
  76:MyHardWare/Src/TCRT5000.c ****   TCRT_GPIOInit();
 281              		.loc 1 76 3 view .LVU64
 282 000c FFF7FEFF 		bl	TCRT_GPIOInit
 283              	.LVL13:
  77:MyHardWare/Src/TCRT5000.c ****   TCRT_ADC_Init();
 284              		.loc 1 77 3 view .LVU65
 285 0010 FFF7FEFF 		bl	TCRT_ADC_Init
 286              	.LVL14:
  78:MyHardWare/Src/TCRT5000.c **** }
 287              		.loc 1 78 1 is_stmt 0 view .LVU66
 288 0014 08BD     		pop	{r3, pc}
 289              		.cfi_endproc
 290              	.LFE126:
 292              		.section	.text.TCRT_GetValue,"ax",%progbits
 293              		.align	1
 294              		.global	TCRT_GetValue
 295              		.syntax unified
 296              		.thumb
 297              		.thumb_func
 299              	TCRT_GetValue:
 300              	.LFB127:
  79:MyHardWare/Src/TCRT5000.c **** uint16_t TCRT_GetValue(void) {
 301              		.loc 1 79 30 is_stmt 1 view -0
 302              		.cfi_startproc
 303              		@ args = 0, pretend = 0, frame = 0
 304              		@ frame_needed = 0, uses_anonymous_args = 0
 305 0000 08B5     		push	{r3, lr}
 306              	.LCFI10:
 307              		.cfi_def_cfa_offset 8
 308              		.cfi_offset 3, -8
 309              		.cfi_offset 14, -4
  80:MyHardWare/Src/TCRT5000.c ****   ADC_SoftwareStartConv(TCRT_ADC);
 310              		.loc 1 80 3 view .LVU68
 311 0002 0648     		ldr	r0, .L16
 312 0004 FFF7FEFF 		bl	ADC_SoftwareStartConv
 313              	.LVL15:
  81:MyHardWare/Src/TCRT5000.c ****   while (ADC_GetFlagStatus(TCRT_ADC, ADC_FLAG_EOC) == RESET)
 314              		.loc 1 81 3 view .LVU69
 315              	.L14:
 316              		.loc 1 81 52 discriminator 1 view .LVU70
 317              		.loc 1 81 10 is_stmt 0 discriminator 1 view .LVU71
 318 0008 0221     		movs	r1, #2
 319 000a 0448     		ldr	r0, .L16
 320 000c FFF7FEFF 		bl	ADC_GetFlagStatus
 321              	.LVL16:
 322              		.loc 1 81 52 discriminator 1 view .LVU72
 323 0010 0028     		cmp	r0, #0
 324 0012 F9D0     		beq	.L14
  82:MyHardWare/Src/TCRT5000.c ****     ;
  83:MyHardWare/Src/TCRT5000.c ****   return ADC_GetConversionValue(TCRT_ADC);
 325              		.loc 1 83 3 is_stmt 1 view .LVU73
ARM GAS  /tmp/ccUS3QqX.s 			page 8


 326              		.loc 1 83 10 is_stmt 0 view .LVU74
 327 0014 0148     		ldr	r0, .L16
 328 0016 FFF7FEFF 		bl	ADC_GetConversionValue
 329              	.LVL17:
  84:MyHardWare/Src/TCRT5000.c **** }
 330              		.loc 1 84 1 view .LVU75
 331 001a 08BD     		pop	{r3, pc}
 332              	.L17:
 333              		.align	2
 334              	.L16:
 335 001c 00200140 		.word	1073815552
 336              		.cfi_endproc
 337              	.LFE127:
 339              		.global	Tcrt
 340              		.section	.bss.Tcrt,"aw",%nobits
 341              		.align	2
 344              	Tcrt:
 345 0000 00000000 		.space	4
 346              		.text
 347              	.Letext0:
 348              		.file 2 "/usr/lib/gcc/arm-none-eabi/13.2.1/include/stdint.h"
 349              		.file 3 "CMSIS/stm32f4xx.h"
 350              		.file 4 "Lib/StdPeriphs/inc/stm32f4xx_adc.h"
 351              		.file 5 "Lib/StdPeriphs/inc/stm32f4xx_gpio.h"
 352              		.file 6 "Lib/StdPeriphs/inc/stm32f4xx_tim.h"
 353              		.file 7 "MyHardWare/Inc/TCRT5000.h"
 354              		.file 8 "Lib/StdPeriphs/inc/stm32f4xx_rcc.h"
ARM GAS  /tmp/ccUS3QqX.s 			page 9

