ARM GAS  C:\Users\asus\AppData\Local\Temp\ccPSL3d3.s 			page 1


   1              		.cpu cortex-m4
   2              		.arch armv7e-m
   3              		.fpu fpv4-sp-d16
   4              		.eabi_attribute 27, 1
   5              		.eabi_attribute 28, 1
   6              		.eabi_attribute 20, 1
   7              		.eabi_attribute 21, 1
   8              		.eabi_attribute 23, 3
   9              		.eabi_attribute 24, 1
  10              		.eabi_attribute 25, 1
  11              		.eabi_attribute 26, 1
  12              		.eabi_attribute 30, 1
  13              		.eabi_attribute 34, 1
  14              		.eabi_attribute 18, 4
  15              		.file	"ulog.c"
  16              		.text
  17              	.Ltext0:
  18              		.cfi_sections	.debug_frame
  19              		.file 1 "MyHardWare/Src/ulog.c"
  20              		.section	.text.ulog_lowest_log_level,"ax",%progbits
  21              		.align	1
  22              		.syntax unified
  23              		.thumb
  24              		.thumb_func
  26              	ulog_lowest_log_level:
  27              	.LFB8:
   1:MyHardWare/Src/ulog.c **** /**
   2:MyHardWare/Src/ulog.c **** MIT License
   3:MyHardWare/Src/ulog.c **** 
   4:MyHardWare/Src/ulog.c **** Copyright (c) 2019 R. Dunbar Poor <rdpoor@gmail.com>
   5:MyHardWare/Src/ulog.c **** 
   6:MyHardWare/Src/ulog.c **** Permission is hereby granted, free of charge, to any person obtaining a copy of
   7:MyHardWare/Src/ulog.c **** this software and associated documentation files (the "Software"), to deal in
   8:MyHardWare/Src/ulog.c **** the Software without restriction, including without limitation the rights to
   9:MyHardWare/Src/ulog.c **** use, copy, modify, merge, publish, distribute, sublicense, and/or sell copies of
  10:MyHardWare/Src/ulog.c **** the Software, and to permit persons to whom the Software is furnished to do so,
  11:MyHardWare/Src/ulog.c **** subject to the following conditions:
  12:MyHardWare/Src/ulog.c **** 
  13:MyHardWare/Src/ulog.c **** The above copyright notice and this permission notice shall be included in all
  14:MyHardWare/Src/ulog.c **** copies or substantial portions of the Software.
  15:MyHardWare/Src/ulog.c **** 
  16:MyHardWare/Src/ulog.c **** THE SOFTWARE IS PROVIDED "AS IS", WITHOUT WARRANTY OF ANY KIND, EXPRESS OR
  17:MyHardWare/Src/ulog.c **** IMPLIED, INCLUDING BUT NOT LIMITED TO THE WARRANTIES OF MERCHANTABILITY, FITNESS
  18:MyHardWare/Src/ulog.c **** FOR A PARTICULAR PURPOSE AND NONINFRINGEMENT. IN NO EVENT SHALL THE AUTHORS OR
  19:MyHardWare/Src/ulog.c **** COPYRIGHT HOLDERS BE LIABLE FOR ANY CLAIM, DAMAGES OR OTHER LIABILITY, WHETHER
  20:MyHardWare/Src/ulog.c **** IN AN ACTION OF CONTRACT, TORT OR OTHERWISE, ARISING FROM, OUT OF OR IN
  21:MyHardWare/Src/ulog.c **** CONNECTION WITH THE SOFTWARE OR THE USE OR OTHER DEALINGS IN THE SOFTWARE.
  22:MyHardWare/Src/ulog.c **** */
  23:MyHardWare/Src/ulog.c **** 
  24:MyHardWare/Src/ulog.c **** /**
  25:MyHardWare/Src/ulog.c ****  * \file ulog.c
  26:MyHardWare/Src/ulog.c ****  *
  27:MyHardWare/Src/ulog.c ****  * \brief uLog: lightweight logging for embedded systems
  28:MyHardWare/Src/ulog.c ****  *
  29:MyHardWare/Src/ulog.c ****  * See ulog.h for sparse documentation.
  30:MyHardWare/Src/ulog.c ****  */
  31:MyHardWare/Src/ulog.c **** 
ARM GAS  C:\Users\asus\AppData\Local\Temp\ccPSL3d3.s 			page 2


  32:MyHardWare/Src/ulog.c **** #include "ulog.h"
  33:MyHardWare/Src/ulog.c **** 
  34:MyHardWare/Src/ulog.c **** #ifdef ULOG_ENABLED  // whole file...
  35:MyHardWare/Src/ulog.c **** 
  36:MyHardWare/Src/ulog.c **** #include <stdio.h>
  37:MyHardWare/Src/ulog.c **** #include <string.h>
  38:MyHardWare/Src/ulog.c **** #include <stdarg.h>
  39:MyHardWare/Src/ulog.c **** 
  40:MyHardWare/Src/ulog.c **** 
  41:MyHardWare/Src/ulog.c **** // =============================================================================
  42:MyHardWare/Src/ulog.c **** // types and definitions
  43:MyHardWare/Src/ulog.c **** 
  44:MyHardWare/Src/ulog.c **** typedef struct {
  45:MyHardWare/Src/ulog.c ****   ulog_function_t fn;
  46:MyHardWare/Src/ulog.c ****   ulog_level_t threshold;
  47:MyHardWare/Src/ulog.c **** } subscriber_t;
  48:MyHardWare/Src/ulog.c **** 
  49:MyHardWare/Src/ulog.c **** static ulog_level_t ulog_lowest_log_level();
  50:MyHardWare/Src/ulog.c **** 
  51:MyHardWare/Src/ulog.c **** // =============================================================================
  52:MyHardWare/Src/ulog.c **** // local storage
  53:MyHardWare/Src/ulog.c **** 
  54:MyHardWare/Src/ulog.c **** static subscriber_t s_subscribers[ULOG_MAX_SUBSCRIBERS];
  55:MyHardWare/Src/ulog.c **** static char s_message[ULOG_MAX_MESSAGE_LENGTH];
  56:MyHardWare/Src/ulog.c **** static ulog_level_t s_lowest_log_level;
  57:MyHardWare/Src/ulog.c **** 
  58:MyHardWare/Src/ulog.c **** // =============================================================================
  59:MyHardWare/Src/ulog.c **** // user-visible code
  60:MyHardWare/Src/ulog.c **** 
  61:MyHardWare/Src/ulog.c **** void ulog_init() {
  62:MyHardWare/Src/ulog.c ****   memset(s_subscribers, 0, sizeof(s_subscribers));
  63:MyHardWare/Src/ulog.c ****   s_lowest_log_level = ulog_lowest_log_level();
  64:MyHardWare/Src/ulog.c **** }
  65:MyHardWare/Src/ulog.c **** 
  66:MyHardWare/Src/ulog.c **** // search the s_subscribers table to install or update fn
  67:MyHardWare/Src/ulog.c **** ulog_err_t ulog_subscribe(ulog_function_t fn, ulog_level_t threshold) {
  68:MyHardWare/Src/ulog.c ****   int available_slot = -1;
  69:MyHardWare/Src/ulog.c ****   int i;
  70:MyHardWare/Src/ulog.c ****   for (i=0; i<ULOG_MAX_SUBSCRIBERS; i++) {
  71:MyHardWare/Src/ulog.c ****     if (s_subscribers[i].fn == fn) {
  72:MyHardWare/Src/ulog.c ****       // already subscribed: update threshold and return immediately.
  73:MyHardWare/Src/ulog.c ****       s_subscribers[i].threshold = threshold;
  74:MyHardWare/Src/ulog.c ****       return ULOG_ERR_NONE;
  75:MyHardWare/Src/ulog.c **** 
  76:MyHardWare/Src/ulog.c ****     } else if (s_subscribers[i].fn == NULL) {
  77:MyHardWare/Src/ulog.c ****       // found a free slot
  78:MyHardWare/Src/ulog.c ****       available_slot = i;
  79:MyHardWare/Src/ulog.c ****     }
  80:MyHardWare/Src/ulog.c ****   }
  81:MyHardWare/Src/ulog.c ****   // fn is not yet a subscriber.  assign if possible.
  82:MyHardWare/Src/ulog.c ****   if (available_slot == -1) {
  83:MyHardWare/Src/ulog.c ****     return ULOG_ERR_SUBSCRIBERS_EXCEEDED;
  84:MyHardWare/Src/ulog.c ****   }
  85:MyHardWare/Src/ulog.c ****   s_subscribers[available_slot].fn = fn;
  86:MyHardWare/Src/ulog.c ****   s_subscribers[available_slot].threshold = threshold;
  87:MyHardWare/Src/ulog.c ****   s_lowest_log_level = ulog_lowest_log_level(); // Update lowest log level
  88:MyHardWare/Src/ulog.c **** 
ARM GAS  C:\Users\asus\AppData\Local\Temp\ccPSL3d3.s 			page 3


  89:MyHardWare/Src/ulog.c ****   return ULOG_ERR_NONE;
  90:MyHardWare/Src/ulog.c **** }
  91:MyHardWare/Src/ulog.c **** 
  92:MyHardWare/Src/ulog.c **** // search the s_subscribers table to remove
  93:MyHardWare/Src/ulog.c **** ulog_err_t ulog_unsubscribe(ulog_function_t fn) {
  94:MyHardWare/Src/ulog.c ****   int i;
  95:MyHardWare/Src/ulog.c ****   for (i=0; i<ULOG_MAX_SUBSCRIBERS; i++) {
  96:MyHardWare/Src/ulog.c ****     if (s_subscribers[i].fn == fn) {
  97:MyHardWare/Src/ulog.c ****       s_subscribers[i].fn = NULL;    // mark as empty
  98:MyHardWare/Src/ulog.c ****       s_lowest_log_level = ulog_lowest_log_level(); // Update lowest log level
  99:MyHardWare/Src/ulog.c ****       return ULOG_ERR_NONE;
 100:MyHardWare/Src/ulog.c ****     }
 101:MyHardWare/Src/ulog.c ****   }
 102:MyHardWare/Src/ulog.c ****   return ULOG_ERR_NOT_SUBSCRIBED;
 103:MyHardWare/Src/ulog.c **** }
 104:MyHardWare/Src/ulog.c **** 
 105:MyHardWare/Src/ulog.c **** const char *ulog_level_name(ulog_level_t severity) {
 106:MyHardWare/Src/ulog.c ****   switch(severity) {
 107:MyHardWare/Src/ulog.c ****    case ULOG_TRACE_LEVEL: return "TRACE";
 108:MyHardWare/Src/ulog.c ****    case ULOG_DEBUG_LEVEL: return "DEBUG";
 109:MyHardWare/Src/ulog.c ****    case ULOG_INFO_LEVEL: return "INFO";
 110:MyHardWare/Src/ulog.c ****    case ULOG_WARNING_LEVEL: return "WARNING";
 111:MyHardWare/Src/ulog.c ****    case ULOG_ERROR_LEVEL: return "ERROR";
 112:MyHardWare/Src/ulog.c ****    case ULOG_CRITICAL_LEVEL: return "CRITICAL";
 113:MyHardWare/Src/ulog.c ****    case ULOG_ALWAYS_LEVEL: return "ALWAYS";
 114:MyHardWare/Src/ulog.c ****    default: return "UNKNOWN";
 115:MyHardWare/Src/ulog.c ****   }
 116:MyHardWare/Src/ulog.c **** }
 117:MyHardWare/Src/ulog.c **** 
 118:MyHardWare/Src/ulog.c **** void ulog_message(ulog_level_t severity, const char *fmt, ...) {
 119:MyHardWare/Src/ulog.c ****   // Do not evaluate the log message if it will never be logged
 120:MyHardWare/Src/ulog.c ****   if (severity < s_lowest_log_level){
 121:MyHardWare/Src/ulog.c ****     return;
 122:MyHardWare/Src/ulog.c ****   }
 123:MyHardWare/Src/ulog.c **** 
 124:MyHardWare/Src/ulog.c ****   va_list ap;
 125:MyHardWare/Src/ulog.c ****   int i;
 126:MyHardWare/Src/ulog.c ****   va_start(ap, fmt);
 127:MyHardWare/Src/ulog.c ****   vsnprintf(s_message, ULOG_MAX_MESSAGE_LENGTH, fmt, ap);
 128:MyHardWare/Src/ulog.c ****   va_end(ap);
 129:MyHardWare/Src/ulog.c **** 
 130:MyHardWare/Src/ulog.c ****   for (i=0; i<ULOG_MAX_SUBSCRIBERS; i++) {
 131:MyHardWare/Src/ulog.c ****     if (s_subscribers[i].fn != NULL) {
 132:MyHardWare/Src/ulog.c ****       if (severity >= s_subscribers[i].threshold) {
 133:MyHardWare/Src/ulog.c ****         s_subscribers[i].fn(severity, s_message);
 134:MyHardWare/Src/ulog.c ****       }
 135:MyHardWare/Src/ulog.c ****     }
 136:MyHardWare/Src/ulog.c ****   }
 137:MyHardWare/Src/ulog.c **** }
 138:MyHardWare/Src/ulog.c **** 
 139:MyHardWare/Src/ulog.c **** // =============================================================================
 140:MyHardWare/Src/ulog.c **** // private code
 141:MyHardWare/Src/ulog.c **** 
 142:MyHardWare/Src/ulog.c **** static ulog_level_t ulog_lowest_log_level(){
  28              		.loc 1 142 44 view -0
  29              		.cfi_startproc
  30              		@ args = 0, pretend = 0, frame = 0
ARM GAS  C:\Users\asus\AppData\Local\Temp\ccPSL3d3.s 			page 4


  31              		@ frame_needed = 0, uses_anonymous_args = 0
  32              		@ link register save eliminated.
 143:MyHardWare/Src/ulog.c ****   ulog_level_t lowest_log_level = ULOG_ALWAYS_LEVEL;
  33              		.loc 1 143 3 view .LVU1
  34              	.LVL0:
 144:MyHardWare/Src/ulog.c ****   int i;
  35              		.loc 1 144 3 view .LVU2
 145:MyHardWare/Src/ulog.c ****   for (i=0; i<ULOG_MAX_SUBSCRIBERS; i++) {
  36              		.loc 1 145 3 view .LVU3
  37              		.loc 1 145 9 is_stmt 0 view .LVU4
  38 0000 0023     		movs	r3, #0
 143:MyHardWare/Src/ulog.c ****   ulog_level_t lowest_log_level = ULOG_ALWAYS_LEVEL;
  39              		.loc 1 143 16 view .LVU5
  40 0002 6A20     		movs	r0, #106
  41              		.loc 1 145 3 view .LVU6
  42 0004 00E0     		b	.L2
  43              	.LVL1:
  44              	.L3:
  45              		.loc 1 145 38 is_stmt 1 discriminator 2 view .LVU7
  46 0006 0133     		adds	r3, r3, #1
  47              	.LVL2:
  48              	.L2:
  49              		.loc 1 145 14 discriminator 1 view .LVU8
  50 0008 052B     		cmp	r3, #5
  51 000a 0CDC     		bgt	.L6
 146:MyHardWare/Src/ulog.c ****     if (s_subscribers[i].fn != NULL){
  52              		.loc 1 146 5 view .LVU9
  53              		.loc 1 146 25 is_stmt 0 view .LVU10
  54 000c 064A     		ldr	r2, .L7
  55 000e 52F83320 		ldr	r2, [r2, r3, lsl #3]
  56              		.loc 1 146 8 view .LVU11
  57 0012 002A     		cmp	r2, #0
  58 0014 F7D0     		beq	.L3
 147:MyHardWare/Src/ulog.c ****       if (s_subscribers[i].threshold < lowest_log_level) {
  59              		.loc 1 147 7 is_stmt 1 view .LVU12
  60              		.loc 1 147 27 is_stmt 0 view .LVU13
  61 0016 044A     		ldr	r2, .L7
  62 0018 02EBC302 		add	r2, r2, r3, lsl #3
  63 001c 1279     		ldrb	r2, [r2, #4]	@ zero_extendqisi2
  64              		.loc 1 147 10 view .LVU14
  65 001e 8242     		cmp	r2, r0
  66 0020 F1D2     		bcs	.L3
 148:MyHardWare/Src/ulog.c ****         lowest_log_level = s_subscribers[i].threshold;
  67              		.loc 1 148 26 view .LVU15
  68 0022 1046     		mov	r0, r2
  69              	.LVL3:
  70              		.loc 1 148 26 view .LVU16
  71 0024 EFE7     		b	.L3
  72              	.LVL4:
  73              	.L6:
 149:MyHardWare/Src/ulog.c ****       }
 150:MyHardWare/Src/ulog.c ****     }
 151:MyHardWare/Src/ulog.c ****   }
 152:MyHardWare/Src/ulog.c ****   return lowest_log_level;
  74              		.loc 1 152 3 is_stmt 1 view .LVU17
 153:MyHardWare/Src/ulog.c **** }
  75              		.loc 1 153 1 is_stmt 0 view .LVU18
ARM GAS  C:\Users\asus\AppData\Local\Temp\ccPSL3d3.s 			page 5


  76 0026 7047     		bx	lr
  77              	.L8:
  78              		.align	2
  79              	.L7:
  80 0028 00000000 		.word	s_subscribers
  81              		.cfi_endproc
  82              	.LFE8:
  84              		.section	.text.ulog_init,"ax",%progbits
  85              		.align	1
  86              		.global	ulog_init
  87              		.syntax unified
  88              		.thumb
  89              		.thumb_func
  91              	ulog_init:
  92              	.LFB3:
  61:MyHardWare/Src/ulog.c ****   memset(s_subscribers, 0, sizeof(s_subscribers));
  93              		.loc 1 61 18 is_stmt 1 view -0
  94              		.cfi_startproc
  95              		@ args = 0, pretend = 0, frame = 0
  96              		@ frame_needed = 0, uses_anonymous_args = 0
  97 0000 08B5     		push	{r3, lr}
  98              	.LCFI0:
  99              		.cfi_def_cfa_offset 8
 100              		.cfi_offset 3, -8
 101              		.cfi_offset 14, -4
  62:MyHardWare/Src/ulog.c ****   s_lowest_log_level = ulog_lowest_log_level();
 102              		.loc 1 62 3 view .LVU20
 103 0002 3022     		movs	r2, #48
 104 0004 0021     		movs	r1, #0
 105 0006 0448     		ldr	r0, .L11
 106 0008 FFF7FEFF 		bl	memset
 107              	.LVL5:
  63:MyHardWare/Src/ulog.c **** }
 108              		.loc 1 63 3 view .LVU21
  63:MyHardWare/Src/ulog.c **** }
 109              		.loc 1 63 24 is_stmt 0 view .LVU22
 110 000c FFF7FEFF 		bl	ulog_lowest_log_level
 111              	.LVL6:
  63:MyHardWare/Src/ulog.c **** }
 112              		.loc 1 63 22 discriminator 1 view .LVU23
 113 0010 024B     		ldr	r3, .L11+4
 114 0012 1870     		strb	r0, [r3]
  64:MyHardWare/Src/ulog.c **** 
 115              		.loc 1 64 1 view .LVU24
 116 0014 08BD     		pop	{r3, pc}
 117              	.L12:
 118 0016 00BF     		.align	2
 119              	.L11:
 120 0018 00000000 		.word	s_subscribers
 121 001c 00000000 		.word	s_lowest_log_level
 122              		.cfi_endproc
 123              	.LFE3:
 125              		.section	.text.ulog_subscribe,"ax",%progbits
 126              		.align	1
 127              		.global	ulog_subscribe
 128              		.syntax unified
 129              		.thumb
ARM GAS  C:\Users\asus\AppData\Local\Temp\ccPSL3d3.s 			page 6


 130              		.thumb_func
 132              	ulog_subscribe:
 133              	.LVL7:
 134              	.LFB4:
  67:MyHardWare/Src/ulog.c ****   int available_slot = -1;
 135              		.loc 1 67 71 is_stmt 1 view -0
 136              		.cfi_startproc
 137              		@ args = 0, pretend = 0, frame = 0
 138              		@ frame_needed = 0, uses_anonymous_args = 0
  67:MyHardWare/Src/ulog.c ****   int available_slot = -1;
 139              		.loc 1 67 71 is_stmt 0 view .LVU26
 140 0000 08B5     		push	{r3, lr}
 141              	.LCFI1:
 142              		.cfi_def_cfa_offset 8
 143              		.cfi_offset 3, -8
 144              		.cfi_offset 14, -4
  68:MyHardWare/Src/ulog.c ****   int i;
 145              		.loc 1 68 3 is_stmt 1 view .LVU27
 146              	.LVL8:
  69:MyHardWare/Src/ulog.c ****   for (i=0; i<ULOG_MAX_SUBSCRIBERS; i++) {
 147              		.loc 1 69 3 view .LVU28
  70:MyHardWare/Src/ulog.c ****     if (s_subscribers[i].fn == fn) {
 148              		.loc 1 70 3 view .LVU29
  70:MyHardWare/Src/ulog.c ****     if (s_subscribers[i].fn == fn) {
 149              		.loc 1 70 9 is_stmt 0 view .LVU30
 150 0002 0023     		movs	r3, #0
  68:MyHardWare/Src/ulog.c ****   int i;
 151              		.loc 1 68 7 view .LVU31
 152 0004 4FF0FF3C 		mov	ip, #-1
  70:MyHardWare/Src/ulog.c ****     if (s_subscribers[i].fn == fn) {
 153              		.loc 1 70 3 view .LVU32
 154 0008 06E0     		b	.L14
 155              	.LVL9:
 156              	.L23:
  73:MyHardWare/Src/ulog.c ****       return ULOG_ERR_NONE;
 157              		.loc 1 73 7 is_stmt 1 view .LVU33
  73:MyHardWare/Src/ulog.c ****       return ULOG_ERR_NONE;
 158              		.loc 1 73 34 is_stmt 0 view .LVU34
 159 000a 114A     		ldr	r2, .L24
 160 000c 02EBC303 		add	r3, r2, r3, lsl #3
 161              	.LVL10:
  73:MyHardWare/Src/ulog.c ****       return ULOG_ERR_NONE;
 162              		.loc 1 73 34 view .LVU35
 163 0010 1971     		strb	r1, [r3, #4]
  74:MyHardWare/Src/ulog.c **** 
 164              		.loc 1 74 7 is_stmt 1 view .LVU36
  74:MyHardWare/Src/ulog.c **** 
 165              		.loc 1 74 14 is_stmt 0 view .LVU37
 166 0012 0020     		movs	r0, #0
 167              	.LVL11:
  74:MyHardWare/Src/ulog.c **** 
 168              		.loc 1 74 14 view .LVU38
 169 0014 19E0     		b	.L16
 170              	.LVL12:
 171              	.L17:
  70:MyHardWare/Src/ulog.c ****     if (s_subscribers[i].fn == fn) {
 172              		.loc 1 70 38 is_stmt 1 discriminator 2 view .LVU39
ARM GAS  C:\Users\asus\AppData\Local\Temp\ccPSL3d3.s 			page 7


 173 0016 0133     		adds	r3, r3, #1
 174              	.LVL13:
 175              	.L14:
  70:MyHardWare/Src/ulog.c ****     if (s_subscribers[i].fn == fn) {
 176              		.loc 1 70 14 discriminator 1 view .LVU40
 177 0018 052B     		cmp	r3, #5
 178 001a 08DC     		bgt	.L22
  71:MyHardWare/Src/ulog.c ****       // already subscribed: update threshold and return immediately.
 179              		.loc 1 71 5 view .LVU41
  71:MyHardWare/Src/ulog.c ****       // already subscribed: update threshold and return immediately.
 180              		.loc 1 71 25 is_stmt 0 view .LVU42
 181 001c 0C4A     		ldr	r2, .L24
 182 001e 52F83320 		ldr	r2, [r2, r3, lsl #3]
  71:MyHardWare/Src/ulog.c ****       // already subscribed: update threshold and return immediately.
 183              		.loc 1 71 8 view .LVU43
 184 0022 8242     		cmp	r2, r0
 185 0024 F1D0     		beq	.L23
  76:MyHardWare/Src/ulog.c ****       // found a free slot
 186              		.loc 1 76 12 is_stmt 1 view .LVU44
  76:MyHardWare/Src/ulog.c ****       // found a free slot
 187              		.loc 1 76 15 is_stmt 0 view .LVU45
 188 0026 002A     		cmp	r2, #0
 189 0028 F5D1     		bne	.L17
  78:MyHardWare/Src/ulog.c ****     }
 190              		.loc 1 78 22 view .LVU46
 191 002a 9C46     		mov	ip, r3
 192              	.LVL14:
  78:MyHardWare/Src/ulog.c ****     }
 193              		.loc 1 78 22 view .LVU47
 194 002c F3E7     		b	.L17
 195              	.LVL15:
 196              	.L22:
  82:MyHardWare/Src/ulog.c ****     return ULOG_ERR_SUBSCRIBERS_EXCEEDED;
 197              		.loc 1 82 3 is_stmt 1 view .LVU48
  82:MyHardWare/Src/ulog.c ****     return ULOG_ERR_SUBSCRIBERS_EXCEEDED;
 198              		.loc 1 82 6 is_stmt 0 view .LVU49
 199 002e BCF1FF3F 		cmp	ip, #-1
 200 0032 0BD0     		beq	.L20
  85:MyHardWare/Src/ulog.c ****   s_subscribers[available_slot].threshold = threshold;
 201              		.loc 1 85 3 is_stmt 1 view .LVU50
  85:MyHardWare/Src/ulog.c ****   s_subscribers[available_slot].threshold = threshold;
 202              		.loc 1 85 36 is_stmt 0 view .LVU51
 203 0034 064B     		ldr	r3, .L24
 204              	.LVL16:
  85:MyHardWare/Src/ulog.c ****   s_subscribers[available_slot].threshold = threshold;
 205              		.loc 1 85 36 view .LVU52
 206 0036 43F83C00 		str	r0, [r3, ip, lsl #3]
  86:MyHardWare/Src/ulog.c ****   s_lowest_log_level = ulog_lowest_log_level(); // Update lowest log level
 207              		.loc 1 86 3 is_stmt 1 view .LVU53
  86:MyHardWare/Src/ulog.c ****   s_lowest_log_level = ulog_lowest_log_level(); // Update lowest log level
 208              		.loc 1 86 43 is_stmt 0 view .LVU54
 209 003a 03EBCC03 		add	r3, r3, ip, lsl #3
 210 003e 1971     		strb	r1, [r3, #4]
  87:MyHardWare/Src/ulog.c **** 
 211              		.loc 1 87 3 is_stmt 1 view .LVU55
  87:MyHardWare/Src/ulog.c **** 
 212              		.loc 1 87 24 is_stmt 0 view .LVU56
ARM GAS  C:\Users\asus\AppData\Local\Temp\ccPSL3d3.s 			page 8


 213 0040 FFF7FEFF 		bl	ulog_lowest_log_level
 214              	.LVL17:
  87:MyHardWare/Src/ulog.c **** 
 215              		.loc 1 87 22 discriminator 1 view .LVU57
 216 0044 034B     		ldr	r3, .L24+4
 217 0046 1870     		strb	r0, [r3]
  89:MyHardWare/Src/ulog.c **** }
 218              		.loc 1 89 3 is_stmt 1 view .LVU58
  89:MyHardWare/Src/ulog.c **** }
 219              		.loc 1 89 10 is_stmt 0 view .LVU59
 220 0048 0020     		movs	r0, #0
 221              	.L16:
  90:MyHardWare/Src/ulog.c **** 
 222              		.loc 1 90 1 view .LVU60
 223 004a 08BD     		pop	{r3, pc}
 224              	.LVL18:
 225              	.L20:
  83:MyHardWare/Src/ulog.c ****   }
 226              		.loc 1 83 12 view .LVU61
 227 004c 0120     		movs	r0, #1
 228              	.LVL19:
  83:MyHardWare/Src/ulog.c ****   }
 229              		.loc 1 83 12 view .LVU62
 230 004e FCE7     		b	.L16
 231              	.L25:
 232              		.align	2
 233              	.L24:
 234 0050 00000000 		.word	s_subscribers
 235 0054 00000000 		.word	s_lowest_log_level
 236              		.cfi_endproc
 237              	.LFE4:
 239              		.section	.text.ulog_unsubscribe,"ax",%progbits
 240              		.align	1
 241              		.global	ulog_unsubscribe
 242              		.syntax unified
 243              		.thumb
 244              		.thumb_func
 246              	ulog_unsubscribe:
 247              	.LVL20:
 248              	.LFB5:
  93:MyHardWare/Src/ulog.c ****   int i;
 249              		.loc 1 93 49 is_stmt 1 view -0
 250              		.cfi_startproc
 251              		@ args = 0, pretend = 0, frame = 0
 252              		@ frame_needed = 0, uses_anonymous_args = 0
  94:MyHardWare/Src/ulog.c ****   for (i=0; i<ULOG_MAX_SUBSCRIBERS; i++) {
 253              		.loc 1 94 3 view .LVU64
  95:MyHardWare/Src/ulog.c ****     if (s_subscribers[i].fn == fn) {
 254              		.loc 1 95 3 view .LVU65
  95:MyHardWare/Src/ulog.c ****     if (s_subscribers[i].fn == fn) {
 255              		.loc 1 95 9 is_stmt 0 view .LVU66
 256 0000 0023     		movs	r3, #0
 257              	.LVL21:
 258              	.L27:
  95:MyHardWare/Src/ulog.c ****     if (s_subscribers[i].fn == fn) {
 259              		.loc 1 95 14 is_stmt 1 discriminator 1 view .LVU67
 260 0002 052B     		cmp	r3, #5
ARM GAS  C:\Users\asus\AppData\Local\Temp\ccPSL3d3.s 			page 9


 261 0004 11DC     		bgt	.L35
  96:MyHardWare/Src/ulog.c ****       s_subscribers[i].fn = NULL;    // mark as empty
 262              		.loc 1 96 5 view .LVU68
  96:MyHardWare/Src/ulog.c ****       s_subscribers[i].fn = NULL;    // mark as empty
 263              		.loc 1 96 25 is_stmt 0 view .LVU69
 264 0006 0A4A     		ldr	r2, .L37
 265 0008 52F83320 		ldr	r2, [r2, r3, lsl #3]
  96:MyHardWare/Src/ulog.c ****       s_subscribers[i].fn = NULL;    // mark as empty
 266              		.loc 1 96 8 view .LVU70
 267 000c 8242     		cmp	r2, r0
 268 000e 01D0     		beq	.L36
  95:MyHardWare/Src/ulog.c ****     if (s_subscribers[i].fn == fn) {
 269              		.loc 1 95 38 is_stmt 1 discriminator 2 view .LVU71
 270 0010 0133     		adds	r3, r3, #1
 271              	.LVL22:
  95:MyHardWare/Src/ulog.c ****     if (s_subscribers[i].fn == fn) {
 272              		.loc 1 95 38 is_stmt 0 discriminator 2 view .LVU72
 273 0012 F6E7     		b	.L27
 274              	.L36:
  93:MyHardWare/Src/ulog.c ****   int i;
 275              		.loc 1 93 49 view .LVU73
 276 0014 10B5     		push	{r4, lr}
 277              	.LCFI2:
 278              		.cfi_def_cfa_offset 8
 279              		.cfi_offset 4, -8
 280              		.cfi_offset 14, -4
  97:MyHardWare/Src/ulog.c ****       s_lowest_log_level = ulog_lowest_log_level(); // Update lowest log level
 281              		.loc 1 97 7 is_stmt 1 view .LVU74
  97:MyHardWare/Src/ulog.c ****       s_lowest_log_level = ulog_lowest_log_level(); // Update lowest log level
 282              		.loc 1 97 27 is_stmt 0 view .LVU75
 283 0016 0024     		movs	r4, #0
 284 0018 054A     		ldr	r2, .L37
 285 001a 42F83340 		str	r4, [r2, r3, lsl #3]
  98:MyHardWare/Src/ulog.c ****       return ULOG_ERR_NONE;
 286              		.loc 1 98 7 is_stmt 1 view .LVU76
  98:MyHardWare/Src/ulog.c ****       return ULOG_ERR_NONE;
 287              		.loc 1 98 28 is_stmt 0 view .LVU77
 288 001e FFF7FEFF 		bl	ulog_lowest_log_level
 289              	.LVL23:
  98:MyHardWare/Src/ulog.c ****       return ULOG_ERR_NONE;
 290              		.loc 1 98 26 discriminator 1 view .LVU78
 291 0022 044B     		ldr	r3, .L37+4
 292 0024 1870     		strb	r0, [r3]
  99:MyHardWare/Src/ulog.c ****     }
 293              		.loc 1 99 7 is_stmt 1 view .LVU79
  99:MyHardWare/Src/ulog.c ****     }
 294              		.loc 1 99 14 is_stmt 0 view .LVU80
 295 0026 2046     		mov	r0, r4
 103:MyHardWare/Src/ulog.c **** 
 296              		.loc 1 103 1 view .LVU81
 297 0028 10BD     		pop	{r4, pc}
 298              	.LVL24:
 299              	.L35:
 300              	.LCFI3:
 301              		.cfi_def_cfa_offset 0
 302              		.cfi_restore 4
 303              		.cfi_restore 14
ARM GAS  C:\Users\asus\AppData\Local\Temp\ccPSL3d3.s 			page 10


 102:MyHardWare/Src/ulog.c **** }
 304              		.loc 1 102 10 view .LVU82
 305 002a 0220     		movs	r0, #2
 306              	.LVL25:
 103:MyHardWare/Src/ulog.c **** 
 307              		.loc 1 103 1 view .LVU83
 308 002c 7047     		bx	lr
 309              	.L38:
 310 002e 00BF     		.align	2
 311              	.L37:
 312 0030 00000000 		.word	s_subscribers
 313 0034 00000000 		.word	s_lowest_log_level
 314              		.cfi_endproc
 315              	.LFE5:
 317              		.section	.rodata.ulog_level_name.str1.4,"aMS",%progbits,1
 318              		.align	2
 319              	.LC0:
 320 0000 54524143 		.ascii	"TRACE\000"
 320      4500
 321 0006 0000     		.align	2
 322              	.LC1:
 323 0008 44454255 		.ascii	"DEBUG\000"
 323      4700
 324 000e 0000     		.align	2
 325              	.LC2:
 326 0010 494E464F 		.ascii	"INFO\000"
 326      00
 327 0015 000000   		.align	2
 328              	.LC3:
 329 0018 5741524E 		.ascii	"WARNING\000"
 329      494E4700 
 330              		.align	2
 331              	.LC4:
 332 0020 4552524F 		.ascii	"ERROR\000"
 332      5200
 333 0026 0000     		.align	2
 334              	.LC5:
 335 0028 43524954 		.ascii	"CRITICAL\000"
 335      4943414C 
 335      00
 336 0031 000000   		.align	2
 337              	.LC6:
 338 0034 414C5741 		.ascii	"ALWAYS\000"
 338      595300
 339 003b 00       		.align	2
 340              	.LC7:
 341 003c 554E4B4E 		.ascii	"UNKNOWN\000"
 341      4F574E00 
 342              		.section	.text.ulog_level_name,"ax",%progbits
 343              		.align	1
 344              		.global	ulog_level_name
 345              		.syntax unified
 346              		.thumb
 347              		.thumb_func
 349              	ulog_level_name:
 350              	.LVL26:
 351              	.LFB6:
ARM GAS  C:\Users\asus\AppData\Local\Temp\ccPSL3d3.s 			page 11


 105:MyHardWare/Src/ulog.c ****   switch(severity) {
 352              		.loc 1 105 52 is_stmt 1 view -0
 353              		.cfi_startproc
 354              		@ args = 0, pretend = 0, frame = 0
 355              		@ frame_needed = 0, uses_anonymous_args = 0
 356              		@ link register save eliminated.
 106:MyHardWare/Src/ulog.c ****    case ULOG_TRACE_LEVEL: return "TRACE";
 357              		.loc 1 106 3 view .LVU85
 358 0000 6438     		subs	r0, r0, #100
 359              	.LVL27:
 106:MyHardWare/Src/ulog.c ****    case ULOG_TRACE_LEVEL: return "TRACE";
 360              		.loc 1 106 3 is_stmt 0 view .LVU86
 361 0002 0628     		cmp	r0, #6
 362 0004 11D8     		bhi	.L40
 363 0006 DFE800F0 		tbb	[pc, r0]
 364              	.L42:
 365 000a 04       		.byte	(.L48-.L42)/2
 366 000b 12       		.byte	(.L49-.L42)/2
 367 000c 06       		.byte	(.L46-.L42)/2
 368 000d 08       		.byte	(.L45-.L42)/2
 369 000e 0A       		.byte	(.L44-.L42)/2
 370 000f 0C       		.byte	(.L43-.L42)/2
 371 0010 0E       		.byte	(.L41-.L42)/2
 372 0011 00       		.p2align 1
 373              	.L48:
 374 0012 0848     		ldr	r0, .L50
 375              	.LVL28:
 106:MyHardWare/Src/ulog.c ****    case ULOG_TRACE_LEVEL: return "TRACE";
 376              		.loc 1 106 3 view .LVU87
 377 0014 7047     		bx	lr
 378              	.L46:
 109:MyHardWare/Src/ulog.c ****    case ULOG_WARNING_LEVEL: return "WARNING";
 379              		.loc 1 109 26 is_stmt 1 view .LVU88
 109:MyHardWare/Src/ulog.c ****    case ULOG_WARNING_LEVEL: return "WARNING";
 380              		.loc 1 109 33 is_stmt 0 view .LVU89
 381 0016 0848     		ldr	r0, .L50+4
 382 0018 7047     		bx	lr
 383              	.L45:
 110:MyHardWare/Src/ulog.c ****    case ULOG_ERROR_LEVEL: return "ERROR";
 384              		.loc 1 110 29 is_stmt 1 view .LVU90
 110:MyHardWare/Src/ulog.c ****    case ULOG_ERROR_LEVEL: return "ERROR";
 385              		.loc 1 110 36 is_stmt 0 view .LVU91
 386 001a 0848     		ldr	r0, .L50+8
 387 001c 7047     		bx	lr
 388              	.L44:
 111:MyHardWare/Src/ulog.c ****    case ULOG_CRITICAL_LEVEL: return "CRITICAL";
 389              		.loc 1 111 27 is_stmt 1 view .LVU92
 111:MyHardWare/Src/ulog.c ****    case ULOG_CRITICAL_LEVEL: return "CRITICAL";
 390              		.loc 1 111 34 is_stmt 0 view .LVU93
 391 001e 0848     		ldr	r0, .L50+12
 392 0020 7047     		bx	lr
 393              	.L43:
 112:MyHardWare/Src/ulog.c ****    case ULOG_ALWAYS_LEVEL: return "ALWAYS";
 394              		.loc 1 112 30 is_stmt 1 view .LVU94
 112:MyHardWare/Src/ulog.c ****    case ULOG_ALWAYS_LEVEL: return "ALWAYS";
 395              		.loc 1 112 37 is_stmt 0 view .LVU95
 396 0022 0848     		ldr	r0, .L50+16
ARM GAS  C:\Users\asus\AppData\Local\Temp\ccPSL3d3.s 			page 12


 397 0024 7047     		bx	lr
 398              	.L41:
 113:MyHardWare/Src/ulog.c ****    default: return "UNKNOWN";
 399              		.loc 1 113 28 is_stmt 1 view .LVU96
 113:MyHardWare/Src/ulog.c ****    default: return "UNKNOWN";
 400              		.loc 1 113 35 is_stmt 0 view .LVU97
 401 0026 0848     		ldr	r0, .L50+20
 402 0028 7047     		bx	lr
 403              	.L40:
 114:MyHardWare/Src/ulog.c ****   }
 404              		.loc 1 114 13 is_stmt 1 view .LVU98
 114:MyHardWare/Src/ulog.c ****   }
 405              		.loc 1 114 20 is_stmt 0 view .LVU99
 406 002a 0848     		ldr	r0, .L50+24
 407 002c 7047     		bx	lr
 408              	.L49:
 108:MyHardWare/Src/ulog.c ****    case ULOG_INFO_LEVEL: return "INFO";
 409              		.loc 1 108 34 view .LVU100
 410 002e 0848     		ldr	r0, .L50+28
 116:MyHardWare/Src/ulog.c **** 
 411              		.loc 1 116 1 view .LVU101
 412 0030 7047     		bx	lr
 413              	.L51:
 414 0032 00BF     		.align	2
 415              	.L50:
 416 0034 00000000 		.word	.LC0
 417 0038 10000000 		.word	.LC2
 418 003c 18000000 		.word	.LC3
 419 0040 20000000 		.word	.LC4
 420 0044 28000000 		.word	.LC5
 421 0048 34000000 		.word	.LC6
 422 004c 3C000000 		.word	.LC7
 423 0050 08000000 		.word	.LC1
 424              		.cfi_endproc
 425              	.LFE6:
 427              		.section	.text.ulog_message,"ax",%progbits
 428              		.align	1
 429              		.global	ulog_message
 430              		.syntax unified
 431              		.thumb
 432              		.thumb_func
 434              	ulog_message:
 435              	.LVL29:
 436              	.LFB7:
 118:MyHardWare/Src/ulog.c ****   // Do not evaluate the log message if it will never be logged
 437              		.loc 1 118 64 is_stmt 1 view -0
 438              		.cfi_startproc
 439              		@ args = 4, pretend = 12, frame = 8
 440              		@ frame_needed = 0, uses_anonymous_args = 1
 118:MyHardWare/Src/ulog.c ****   // Do not evaluate the log message if it will never be logged
 441              		.loc 1 118 64 is_stmt 0 view .LVU103
 442 0000 0EB4     		push	{r1, r2, r3}
 443              	.LCFI4:
 444              		.cfi_def_cfa_offset 12
 445              		.cfi_offset 1, -12
 446              		.cfi_offset 2, -8
 447              		.cfi_offset 3, -4
ARM GAS  C:\Users\asus\AppData\Local\Temp\ccPSL3d3.s 			page 13


 448 0002 30B5     		push	{r4, r5, lr}
 449              	.LCFI5:
 450              		.cfi_def_cfa_offset 24
 451              		.cfi_offset 4, -24
 452              		.cfi_offset 5, -20
 453              		.cfi_offset 14, -16
 454 0004 82B0     		sub	sp, sp, #8
 455              	.LCFI6:
 456              		.cfi_def_cfa_offset 32
 120:MyHardWare/Src/ulog.c ****     return;
 457              		.loc 1 120 3 is_stmt 1 view .LVU104
 120:MyHardWare/Src/ulog.c ****     return;
 458              		.loc 1 120 16 is_stmt 0 view .LVU105
 459 0006 124B     		ldr	r3, .L60
 460 0008 1B78     		ldrb	r3, [r3]	@ zero_extendqisi2
 120:MyHardWare/Src/ulog.c ****     return;
 461              		.loc 1 120 6 view .LVU106
 462 000a 8342     		cmp	r3, r0
 463 000c 04D9     		bls	.L59
 464              	.LVL30:
 465              	.L52:
 137:MyHardWare/Src/ulog.c **** 
 466              		.loc 1 137 1 view .LVU107
 467 000e 02B0     		add	sp, sp, #8
 468              	.LCFI7:
 469              		.cfi_remember_state
 470              		.cfi_def_cfa_offset 24
 471              		@ sp needed
 472 0010 BDE83040 		pop	{r4, r5, lr}
 473              	.LCFI8:
 474              		.cfi_restore 14
 475              		.cfi_restore 5
 476              		.cfi_restore 4
 477              		.cfi_def_cfa_offset 12
 478 0014 03B0     		add	sp, sp, #12
 479              	.LCFI9:
 480              		.cfi_restore 3
 481              		.cfi_restore 2
 482              		.cfi_restore 1
 483              		.cfi_def_cfa_offset 0
 484 0016 7047     		bx	lr
 485              	.LVL31:
 486              	.L59:
 487              	.LCFI10:
 488              		.cfi_restore_state
 137:MyHardWare/Src/ulog.c **** 
 489              		.loc 1 137 1 view .LVU108
 490 0018 0546     		mov	r5, r0
 124:MyHardWare/Src/ulog.c ****   int i;
 491              		.loc 1 124 3 is_stmt 1 view .LVU109
 125:MyHardWare/Src/ulog.c ****   va_start(ap, fmt);
 492              		.loc 1 125 3 view .LVU110
 126:MyHardWare/Src/ulog.c ****   vsnprintf(s_message, ULOG_MAX_MESSAGE_LENGTH, fmt, ap);
 493              		.loc 1 126 3 view .LVU111
 494 001a 06AB     		add	r3, sp, #24
 495 001c 0193     		str	r3, [sp, #4]
 127:MyHardWare/Src/ulog.c ****   va_end(ap);
ARM GAS  C:\Users\asus\AppData\Local\Temp\ccPSL3d3.s 			page 14


 496              		.loc 1 127 3 view .LVU112
 497 001e 059A     		ldr	r2, [sp, #20]
 498 0020 7821     		movs	r1, #120
 499 0022 0C48     		ldr	r0, .L60+4
 500              	.LVL32:
 127:MyHardWare/Src/ulog.c ****   va_end(ap);
 501              		.loc 1 127 3 is_stmt 0 view .LVU113
 502 0024 FFF7FEFF 		bl	vsnprintf
 503              	.LVL33:
 128:MyHardWare/Src/ulog.c **** 
 504              		.loc 1 128 3 is_stmt 1 view .LVU114
 130:MyHardWare/Src/ulog.c ****     if (s_subscribers[i].fn != NULL) {
 505              		.loc 1 130 3 view .LVU115
 130:MyHardWare/Src/ulog.c ****     if (s_subscribers[i].fn != NULL) {
 506              		.loc 1 130 9 is_stmt 0 view .LVU116
 507 0028 0024     		movs	r4, #0
 130:MyHardWare/Src/ulog.c ****     if (s_subscribers[i].fn != NULL) {
 508              		.loc 1 130 3 view .LVU117
 509 002a 00E0     		b	.L55
 510              	.LVL34:
 511              	.L56:
 130:MyHardWare/Src/ulog.c ****     if (s_subscribers[i].fn != NULL) {
 512              		.loc 1 130 38 is_stmt 1 discriminator 2 view .LVU118
 513 002c 0134     		adds	r4, r4, #1
 514              	.LVL35:
 515              	.L55:
 130:MyHardWare/Src/ulog.c ****     if (s_subscribers[i].fn != NULL) {
 516              		.loc 1 130 14 discriminator 1 view .LVU119
 517 002e 052C     		cmp	r4, #5
 518 0030 EDDC     		bgt	.L52
 131:MyHardWare/Src/ulog.c ****       if (severity >= s_subscribers[i].threshold) {
 519              		.loc 1 131 5 view .LVU120
 131:MyHardWare/Src/ulog.c ****       if (severity >= s_subscribers[i].threshold) {
 520              		.loc 1 131 25 is_stmt 0 view .LVU121
 521 0032 094B     		ldr	r3, .L60+8
 522 0034 53F83420 		ldr	r2, [r3, r4, lsl #3]
 131:MyHardWare/Src/ulog.c ****       if (severity >= s_subscribers[i].threshold) {
 523              		.loc 1 131 8 view .LVU122
 524 0038 002A     		cmp	r2, #0
 525 003a F7D0     		beq	.L56
 132:MyHardWare/Src/ulog.c ****         s_subscribers[i].fn(severity, s_message);
 526              		.loc 1 132 7 is_stmt 1 view .LVU123
 132:MyHardWare/Src/ulog.c ****         s_subscribers[i].fn(severity, s_message);
 527              		.loc 1 132 39 is_stmt 0 view .LVU124
 528 003c 03EBC403 		add	r3, r3, r4, lsl #3
 529 0040 1B79     		ldrb	r3, [r3, #4]	@ zero_extendqisi2
 132:MyHardWare/Src/ulog.c ****         s_subscribers[i].fn(severity, s_message);
 530              		.loc 1 132 10 view .LVU125
 531 0042 AB42     		cmp	r3, r5
 532 0044 F2D8     		bhi	.L56
 133:MyHardWare/Src/ulog.c ****       }
 533              		.loc 1 133 9 is_stmt 1 view .LVU126
 534 0046 0349     		ldr	r1, .L60+4
 535 0048 2846     		mov	r0, r5
 536 004a 9047     		blx	r2
 537              	.LVL36:
 538 004c EEE7     		b	.L56
ARM GAS  C:\Users\asus\AppData\Local\Temp\ccPSL3d3.s 			page 15


 539              	.L61:
 540 004e 00BF     		.align	2
 541              	.L60:
 542 0050 00000000 		.word	s_lowest_log_level
 543 0054 00000000 		.word	s_message
 544 0058 00000000 		.word	s_subscribers
 545              		.cfi_endproc
 546              	.LFE7:
 548              		.section	.bss.s_lowest_log_level,"aw",%nobits
 551              	s_lowest_log_level:
 552 0000 00       		.space	1
 553              		.section	.bss.s_message,"aw",%nobits
 554              		.align	2
 557              	s_message:
 558 0000 00000000 		.space	120
 558      00000000 
 558      00000000 
 558      00000000 
 558      00000000 
 559              		.section	.bss.s_subscribers,"aw",%nobits
 560              		.align	2
 563              	s_subscribers:
 564 0000 00000000 		.space	48
 564      00000000 
 564      00000000 
 564      00000000 
 564      00000000 
 565              		.text
 566              	.Letext0:
 567              		.file 2 "MyHardWare/Inc/ulog.h"
 568              		.file 3 "C:/Program Files (x86)/Arm GNU Toolchain arm-none-eabi/13.2 Rel1/lib/gcc/arm-none-eabi/13
 569              		.file 4 "C:/Program Files (x86)/Arm GNU Toolchain arm-none-eabi/13.2 Rel1/lib/gcc/arm-none-eabi/13
 570              		.file 5 "C:/Program Files (x86)/Arm GNU Toolchain arm-none-eabi/13.2 Rel1/arm-none-eabi/include/st
 571              		.file 6 "C:/Program Files (x86)/Arm GNU Toolchain arm-none-eabi/13.2 Rel1/arm-none-eabi/include/st
 572              		.file 7 "<built-in>"
ARM GAS  C:\Users\asus\AppData\Local\Temp\ccPSL3d3.s 			page 16

